---
triple:          'arm64-apple-darwin'
binary-path:     Zoso
relocations:
  - { offsetInCU: 0x3F, offset: 0x3F, size: 0x8, addend: 0x0, symName: _code, symObjAddr: 0xCDB28, symBinAddr: 0x100020010, symSize: 0x0 }
  - { offsetInCU: 0x6FC7, offset: 0x6FC7, size: 0x8, addend: 0x0, symName: __ZNSt3__1L19piecewise_constructE, symObjAddr: 0x16B14, symBinAddr: 0x10001B464, symSize: 0x0 }
  - { offsetInCU: 0x8112, offset: 0x8112, size: 0x8, addend: 0x0, symName: __ZNSt3__17advanceB8ue170006INS_21__tree_const_iteratorINS_12__value_typeIiN5boost7variantIiJfbNS_12basic_stringIcNS_11char_traitsIcEENS_9allocatorIcEEEEEEEEEPNS_11__tree_nodeISC_PvEElEEllvEEvRT_T0_, symObjAddr: 0x89E4, symBinAddr: 0x10000BB48, symSize: 0x38 }
  - { offsetInCU: 0x81A3, offset: 0x81A3, size: 0x8, addend: 0x0, symName: __ZNSt3__124__put_character_sequenceB8ue170006IcNS_11char_traitsIcEEEERNS_13basic_ostreamIT_T0_EES7_PKS4_m, symObjAddr: 0xAD68, symBinAddr: 0x10000DECC, symSize: 0x1EC }
  - { offsetInCU: 0x900C, offset: 0x900C, size: 0x8, addend: 0x0, symName: __ZNSt3__124__put_character_sequenceB8ue170006IwNS_11char_traitsIwEEEERNS_13basic_ostreamIT_T0_EES7_PKS4_m, symObjAddr: 0xB7A8, symBinAddr: 0x10000E90C, symSize: 0x1DC }
  - { offsetInCU: 0xAF92, offset: 0xAF92, size: 0x8, addend: 0x0, symName: __ZNSt3__1lsB8ue170006IcNS_11char_traitsIcEENS_9allocatorIcEEEERNS_13basic_ostreamIT_T0_EES9_RKNS_12basic_stringIS6_S7_T1_EE, symObjAddr: 0x11A4, symBinAddr: 0x100004308, symSize: 0x4C }
  - { offsetInCU: 0xAFEA, offset: 0xAFEA, size: 0x8, addend: 0x0, symName: __ZNSt3__1lsB8ue170006INS_11char_traitsIcEEEERNS_13basic_ostreamIcT_EES6_PKc, symObjAddr: 0x11F0, symBinAddr: 0x100004354, symSize: 0x48 }
  - { offsetInCU: 0xB030, offset: 0xB030, size: 0x8, addend: 0x0, symName: __ZNSt3__14endlB8ue170006IcNS_11char_traitsIcEEEERNS_13basic_ostreamIT_T0_EES7_, symObjAddr: 0x1264, symBinAddr: 0x1000043C8, symSize: 0x58 }
  - { offsetInCU: 0xB070, offset: 0xB070, size: 0x8, addend: 0x0, symName: __ZNSt3__1lsB8ue170006IwNS_11char_traitsIwEENS_9allocatorIwEEEERNS_13basic_ostreamIT_T0_EES9_RKNS_12basic_stringIS6_S7_T1_EE, symObjAddr: 0x1304, symBinAddr: 0x100004468, symSize: 0x4C }
  - { offsetInCU: 0xB0C8, offset: 0xB0C8, size: 0x8, addend: 0x0, symName: __ZNSt3__1lsB8ue170006IwNS_11char_traitsIwEEEERNS_13basic_ostreamIT_T0_EES7_PKS4_, symObjAddr: 0x1350, symBinAddr: 0x1000044B4, symSize: 0x48 }
  - { offsetInCU: 0xB117, offset: 0xB117, size: 0x8, addend: 0x0, symName: __ZNSt3__14endlB8ue170006IwNS_11char_traitsIwEEEERNS_13basic_ostreamIT_T0_EES7_, symObjAddr: 0x13C4, symBinAddr: 0x100004528, symSize: 0x54 }
  - { offsetInCU: 0xB157, offset: 0xB157, size: 0x8, addend: 0x0, symName: __ZNSt3__112__to_addressB8ue170006IiEEPT_S2_, symObjAddr: 0x2588, symBinAddr: 0x1000056EC, symSize: 0x14 }
  - { offsetInCU: 0xB18C, offset: 0xB18C, size: 0x8, addend: 0x0, symName: __ZNSt3__119__libcpp_deallocateB8ue170006EPvmm, symObjAddr: 0x2660, symBinAddr: 0x1000057C4, symSize: 0x30 }
  - { offsetInCU: 0xB1D4, offset: 0xB1D4, size: 0x8, addend: 0x0, symName: __ZNSt3__127__do_deallocate_handle_sizeB8ue170006IJEEEvPvmDpT_, symObjAddr: 0x2690, symBinAddr: 0x1000057F4, symSize: 0x28 }
  - { offsetInCU: 0xB212, offset: 0xB212, size: 0x8, addend: 0x0, symName: __ZNSt3__124__libcpp_operator_deleteB8ue170006IJPvEEEvDpT_, symObjAddr: 0x26B8, symBinAddr: 0x10000581C, symSize: 0x24 }
  - { offsetInCU: 0xB247, offset: 0xB247, size: 0x8, addend: 0x0, symName: __ZNSt3__122__make_exception_guardB8ue170006INS_6vectorIiNS_9allocatorIiEEE16__destroy_vectorEEENS_28__exception_guard_exceptionsIT_EES7_, symObjAddr: 0x28D0, symBinAddr: 0x100005A34, symSize: 0x40 }
  - { offsetInCU: 0xB27C, offset: 0xB27C, size: 0x8, addend: 0x0, symName: __ZNSt3__119__allocate_at_leastB8ue170006INS_9allocatorIiEEEENS_19__allocation_resultINS_16allocator_traitsIT_E7pointerEEERS5_m, symObjAddr: 0x2C7C, symBinAddr: 0x100005DE0, symSize: 0x40 }
  - { offsetInCU: 0xB2BF, offset: 0xB2BF, size: 0x8, addend: 0x0, symName: __ZNSt3__13minB8ue170006ImEERKT_S3_S3_, symObjAddr: 0x2D90, symBinAddr: 0x100005EF4, symSize: 0x2C }
  - { offsetInCU: 0xB503, offset: 0xB503, size: 0x8, addend: 0x0, symName: __ZNSt3__13minB8ue170006ImNS_6__lessIvvEEEERKT_S5_S5_T0_, symObjAddr: 0x2E1C, symBinAddr: 0x100005F80, symSize: 0x54 }
  - { offsetInCU: 0xB5A2, offset: 0xB5A2, size: 0x8, addend: 0x0, symName: __ZNSt3__120__throw_length_errorB8ue170006EPKc, symObjAddr: 0x2EF8, symBinAddr: 0x10000605C, symSize: 0x64 }
  - { offsetInCU: 0xB5CC, offset: 0xB5CC, size: 0x8, addend: 0x0, symName: __ZNSt3__117__libcpp_allocateB8ue170006Emm, symObjAddr: 0x3068, symBinAddr: 0x1000061CC, symSize: 0x28 }
  - { offsetInCU: 0xB609, offset: 0xB609, size: 0x8, addend: 0x0, symName: __ZNSt3__121__libcpp_operator_newB8ue170006IJmEEEPvDpT_, symObjAddr: 0x3090, symBinAddr: 0x1000061F4, symSize: 0x24 }
  - { offsetInCU: 0xB642, offset: 0xB642, size: 0x8, addend: 0x0, symName: __ZNSt3__130__uninitialized_allocator_copyB8ue170006INS_9allocatorIiEEPKiS4_PiEET2_RT_T0_T1_S6_, symObjAddr: 0x3128, symBinAddr: 0x10000628C, symSize: 0x80 }
  - { offsetInCU: 0xB6DF, offset: 0xB6DF, size: 0x8, addend: 0x0, symName: __ZNSt3__114__unwrap_rangeB8ue170006IPKiS2_EENS_4pairIT0_S4_EET_S6_, symObjAddr: 0x3218, symBinAddr: 0x10000637C, symSize: 0x60 }
  - { offsetInCU: 0xB72B, offset: 0xB72B, size: 0x8, addend: 0x0, symName: __ZNSt3__135__uninitialized_allocator_copy_implB8ue170006INS_9allocatorIiEEKiiiLPv0EEEPT2_RT_PT0_SA_S6_, symObjAddr: 0x3278, symBinAddr: 0x1000063DC, symSize: 0x38 }
  - { offsetInCU: 0xB7AC, offset: 0xB7AC, size: 0x8, addend: 0x0, symName: __ZNSt3__113__unwrap_iterB8ue170006IPiNS_18__unwrap_iter_implIS1_Lb1EEELi0EEEDTclsrT0_8__unwrapclsr3stdE7declvalIT_EEEES5_, symObjAddr: 0x32B0, symBinAddr: 0x100006414, symSize: 0x24 }
  - { offsetInCU: 0xB7F0, offset: 0xB7F0, size: 0x8, addend: 0x0, symName: __ZNSt3__113__rewrap_iterB8ue170006IPiS1_NS_18__unwrap_iter_implIS1_Lb1EEEEET_S4_T0_, symObjAddr: 0x32D4, symBinAddr: 0x100006438, symSize: 0x3C }
  - { offsetInCU: 0xB845, offset: 0xB845, size: 0x8, addend: 0x0, symName: __ZNSt3__19make_pairB8ue170006IPKiS2_EENS_4pairINS_18__unwrap_ref_decayIT_E4typeENS4_IT0_E4typeEEEOS5_OS8_, symObjAddr: 0x3310, symBinAddr: 0x100006474, symSize: 0x38 }
  - { offsetInCU: 0xB894, offset: 0xB894, size: 0x8, addend: 0x0, symName: __ZNSt3__113__unwrap_iterB8ue170006IPKiNS_18__unwrap_iter_implIS2_Lb1EEELi0EEEDTclsrT0_8__unwrapclsr3stdE7declvalIT_EEEES6_, symObjAddr: 0x3348, symBinAddr: 0x1000064AC, symSize: 0x24 }
  - { offsetInCU: 0xB9FF, offset: 0xB9FF, size: 0x8, addend: 0x0, symName: __ZNSt3__112__to_addressB8ue170006IKiEEPT_S3_, symObjAddr: 0x3400, symBinAddr: 0x100006564, symSize: 0x14 }
  - { offsetInCU: 0xBA34, offset: 0xBA34, size: 0x8, addend: 0x0, symName: __ZNSt3__14copyB8ue170006IPKiPiEET0_T_S5_S4_, symObjAddr: 0x3414, symBinAddr: 0x100006578, symSize: 0x40 }
  - { offsetInCU: 0xBA8E, offset: 0xBA8E, size: 0x8, addend: 0x0, symName: __ZNSt3__16__copyB8ue170006INS_17_ClassicAlgPolicyEPKiS3_PiEENS_4pairIT0_T2_EES6_T1_S7_, symObjAddr: 0x3454, symBinAddr: 0x1000065B8, symSize: 0x44 }
  - { offsetInCU: 0xBAFA, offset: 0xBAFA, size: 0x8, addend: 0x0, symName: __ZNSt3__123__dispatch_copy_or_moveB8ue170006INS_17_ClassicAlgPolicyENS_11__copy_loopIS1_EENS_14__copy_trivialEPKiS6_PiEENS_4pairIT2_T4_EES9_T3_SA_, symObjAddr: 0x3498, symBinAddr: 0x1000065FC, symSize: 0x44 }
  - { offsetInCU: 0xBB78, offset: 0xBB78, size: 0x8, addend: 0x0, symName: __ZNSt3__121__unwrap_and_dispatchB8ue170006INS_10__overloadINS_11__copy_loopINS_17_ClassicAlgPolicyEEENS_14__copy_trivialEEEPKiS8_PiLi0EEENS_4pairIT0_T2_EESB_T1_SC_, symObjAddr: 0x34DC, symBinAddr: 0x100006640, symSize: 0xB4 }
  - { offsetInCU: 0xBD8B, offset: 0xBD8B, size: 0x8, addend: 0x0, symName: __ZNSt3__19make_pairB8ue170006IPKiPiEENS_4pairINS_18__unwrap_ref_decayIT_E4typeENS5_IT0_E4typeEEEOS6_OS9_, symObjAddr: 0x35D8, symBinAddr: 0x10000673C, symSize: 0x38 }
  - { offsetInCU: 0xBDDA, offset: 0xBDDA, size: 0x8, addend: 0x0, symName: __ZNSt3__114__rewrap_rangeB8ue170006IPKiS2_EET_S3_T0_, symObjAddr: 0x3610, symBinAddr: 0x100006774, symSize: 0x2C }
  - { offsetInCU: 0xBE26, offset: 0xBE26, size: 0x8, addend: 0x0, symName: __ZNSt3__119__copy_trivial_implB8ue170006IKiiEENS_4pairIPT_PT0_EES4_S4_S6_, symObjAddr: 0x363C, symBinAddr: 0x1000067A0, symSize: 0x80 }
  - { offsetInCU: 0xBE8E, offset: 0xBE8E, size: 0x8, addend: 0x0, symName: __ZNSt3__119__constexpr_memmoveB8ue170006IiKiLi0EEEPT_S3_PT0_NS_15__element_countE, symObjAddr: 0x36BC, symBinAddr: 0x100006820, symSize: 0x64 }
  - { offsetInCU: 0xBEFC, offset: 0xBEFC, size: 0x8, addend: 0x0, symName: __ZNSt3__19make_pairB8ue170006IRPKiPiEENS_4pairINS_18__unwrap_ref_decayIT_E4typeENS6_IT0_E4typeEEEOS7_OSA_, symObjAddr: 0x3720, symBinAddr: 0x100006884, symSize: 0x38 }
  - { offsetInCU: 0xBF4B, offset: 0xBF4B, size: 0x8, addend: 0x0, symName: __ZNSt3__113__rewrap_iterB8ue170006IPKiS2_NS_18__unwrap_iter_implIS2_Lb1EEEEET_S5_T0_, symObjAddr: 0x3838, symBinAddr: 0x10000699C, symSize: 0x3C }
  - { offsetInCU: 0xBFF3, offset: 0xBFF3, size: 0x8, addend: 0x0, symName: __ZNSt3__122__make_exception_guardB8ue170006INS_6vectorINS1_IiNS_9allocatorIiEEEENS2_IS4_EEE16__destroy_vectorEEENS_28__exception_guard_exceptionsIT_EES9_, symObjAddr: 0x3AFC, symBinAddr: 0x100006C60, symSize: 0x40 }
  - { offsetInCU: 0xC028, offset: 0xC028, size: 0x8, addend: 0x0, symName: __ZNSt3__119__allocate_at_leastB8ue170006INS_9allocatorINS_6vectorIiNS1_IiEEEEEEEENS_19__allocation_resultINS_16allocator_traitsIT_E7pointerEEERS8_m, symObjAddr: 0x3F0C, symBinAddr: 0x100007070, symSize: 0x40 }
  - { offsetInCU: 0xC06B, offset: 0xC06B, size: 0x8, addend: 0x0, symName: __ZNSt3__112__to_addressB8ue170006INS_6vectorIiNS_9allocatorIiEEEEEEPT_S6_, symObjAddr: 0x4254, symBinAddr: 0x1000073B8, symSize: 0x14 }
  - { offsetInCU: 0xC0A0, offset: 0xC0A0, size: 0x8, addend: 0x0, symName: __ZNSt3__130__uninitialized_allocator_copyB8ue170006INS_9allocatorINS_6vectorIiNS1_IiEEEEEEPKS4_S7_PS4_EET2_RT_T0_T1_S9_, symObjAddr: 0x4304, symBinAddr: 0x100007468, symSize: 0x80 }
  - { offsetInCU: 0xC13D, offset: 0xC13D, size: 0x8, addend: 0x0, symName: __ZNSt3__114__unwrap_rangeB8ue170006IPKNS_6vectorIiNS_9allocatorIiEEEES6_EENS_4pairIT0_S8_EET_SA_, symObjAddr: 0x43FC, symBinAddr: 0x100007560, symSize: 0x60 }
  - { offsetInCU: 0xC189, offset: 0xC189, size: 0x8, addend: 0x0, symName: __ZNSt3__135__uninitialized_allocator_copy_implB8ue170006INS_9allocatorINS_6vectorIiNS1_IiEEEEEEPKS4_S7_PS4_EET2_RT_T0_T1_S9_, symObjAddr: 0x445C, symBinAddr: 0x1000075C0, symSize: 0xF4 }
  - { offsetInCU: 0xC227, offset: 0xC227, size: 0x8, addend: 0x0, symName: __ZNSt3__113__unwrap_iterB8ue170006IPNS_6vectorIiNS_9allocatorIiEEEENS_18__unwrap_iter_implIS5_Lb1EEELi0EEEDTclsrT0_8__unwrapclsr3stdE7declvalIT_EEEES9_, symObjAddr: 0x4550, symBinAddr: 0x1000076B4, symSize: 0x24 }
  - { offsetInCU: 0xC26B, offset: 0xC26B, size: 0x8, addend: 0x0, symName: __ZNSt3__113__rewrap_iterB8ue170006IPNS_6vectorIiNS_9allocatorIiEEEES5_NS_18__unwrap_iter_implIS5_Lb1EEEEET_S8_T0_, symObjAddr: 0x4574, symBinAddr: 0x1000076D8, symSize: 0x3C }
  - { offsetInCU: 0xC2C0, offset: 0xC2C0, size: 0x8, addend: 0x0, symName: __ZNSt3__19make_pairB8ue170006IPKNS_6vectorIiNS_9allocatorIiEEEES6_EENS_4pairINS_18__unwrap_ref_decayIT_E4typeENS8_IT0_E4typeEEEOS9_OSC_, symObjAddr: 0x45B0, symBinAddr: 0x100007714, symSize: 0x38 }
  - { offsetInCU: 0xC30F, offset: 0xC30F, size: 0x8, addend: 0x0, symName: __ZNSt3__113__unwrap_iterB8ue170006IPKNS_6vectorIiNS_9allocatorIiEEEENS_18__unwrap_iter_implIS6_Lb1EEELi0EEEDTclsrT0_8__unwrapclsr3stdE7declvalIT_EEEESA_, symObjAddr: 0x45E8, symBinAddr: 0x10000774C, symSize: 0x24 }
  - { offsetInCU: 0xC47A, offset: 0xC47A, size: 0x8, addend: 0x0, symName: __ZNSt3__112__to_addressB8ue170006IKNS_6vectorIiNS_9allocatorIiEEEEEEPT_S7_, symObjAddr: 0x46A0, symBinAddr: 0x100007804, symSize: 0x14 }
  - { offsetInCU: 0xC4AF, offset: 0xC4AF, size: 0x8, addend: 0x0, symName: __ZNSt3__122__make_exception_guardB8ue170006INS_29_AllocatorDestroyRangeReverseINS_9allocatorINS_6vectorIiNS2_IiEEEEEEPS5_EEEENS_28__exception_guard_exceptionsIT_EESA_, symObjAddr: 0x46B4, symBinAddr: 0x100007818, symSize: 0x4C }
  - { offsetInCU: 0xC4E5, offset: 0xC4E5, size: 0x8, addend: 0x0, symName: __ZNSt3__130__uninitialized_allocator_copyB8ue170006INS_9allocatorIiEEPiS3_S3_EET2_RT_T0_T1_S4_, symObjAddr: 0x4B40, symBinAddr: 0x100007CA4, symSize: 0x80 }
  - { offsetInCU: 0xC582, offset: 0xC582, size: 0x8, addend: 0x0, symName: __ZNSt3__114__unwrap_rangeB8ue170006IPiS1_EENS_4pairIT0_S3_EET_S5_, symObjAddr: 0x4BC0, symBinAddr: 0x100007D24, symSize: 0x60 }
  - { offsetInCU: 0xC5CE, offset: 0xC5CE, size: 0x8, addend: 0x0, symName: __ZNSt3__135__uninitialized_allocator_copy_implB8ue170006INS_9allocatorIiEEiiiLPv0EEEPT2_RT_PT0_S9_S5_, symObjAddr: 0x4C20, symBinAddr: 0x100007D84, symSize: 0x38 }
  - { offsetInCU: 0xC64F, offset: 0xC64F, size: 0x8, addend: 0x0, symName: __ZNSt3__19make_pairB8ue170006IPiS1_EENS_4pairINS_18__unwrap_ref_decayIT_E4typeENS3_IT0_E4typeEEEOS4_OS7_, symObjAddr: 0x4C58, symBinAddr: 0x100007DBC, symSize: 0x38 }
  - { offsetInCU: 0xC7A1, offset: 0xC7A1, size: 0x8, addend: 0x0, symName: __ZNSt3__14copyB8ue170006IPiS1_EET0_T_S3_S2_, symObjAddr: 0x4D00, symBinAddr: 0x100007E64, symSize: 0x40 }
  - { offsetInCU: 0xC7FB, offset: 0xC7FB, size: 0x8, addend: 0x0, symName: __ZNSt3__16__copyB8ue170006INS_17_ClassicAlgPolicyEPiS2_S2_EENS_4pairIT0_T2_EES4_T1_S5_, symObjAddr: 0x4D40, symBinAddr: 0x100007EA4, symSize: 0x44 }
  - { offsetInCU: 0xC867, offset: 0xC867, size: 0x8, addend: 0x0, symName: __ZNSt3__123__dispatch_copy_or_moveB8ue170006INS_17_ClassicAlgPolicyENS_11__copy_loopIS1_EENS_14__copy_trivialEPiS5_S5_EENS_4pairIT2_T4_EES7_T3_S8_, symObjAddr: 0x4D84, symBinAddr: 0x100007EE8, symSize: 0x44 }
  - { offsetInCU: 0xC8E5, offset: 0xC8E5, size: 0x8, addend: 0x0, symName: __ZNSt3__121__unwrap_and_dispatchB8ue170006INS_10__overloadINS_11__copy_loopINS_17_ClassicAlgPolicyEEENS_14__copy_trivialEEEPiS7_S7_Li0EEENS_4pairIT0_T2_EES9_T1_SA_, symObjAddr: 0x4DC8, symBinAddr: 0x100007F2C, symSize: 0xB4 }
  - { offsetInCU: 0xC973, offset: 0xC973, size: 0x8, addend: 0x0, symName: __ZNSt3__114__rewrap_rangeB8ue170006IPiS1_EET_S2_T0_, symObjAddr: 0x4EC4, symBinAddr: 0x100008028, symSize: 0x2C }
  - { offsetInCU: 0xC9BF, offset: 0xC9BF, size: 0x8, addend: 0x0, symName: __ZNSt3__119__copy_trivial_implB8ue170006IiiEENS_4pairIPT_PT0_EES3_S3_S5_, symObjAddr: 0x4EF0, symBinAddr: 0x100008054, symSize: 0x80 }
  - { offsetInCU: 0xCA27, offset: 0xCA27, size: 0x8, addend: 0x0, symName: __ZNSt3__119__constexpr_memmoveB8ue170006IiiLi0EEEPT_S2_PT0_NS_15__element_countE, symObjAddr: 0x4F70, symBinAddr: 0x1000080D4, symSize: 0x64 }
  - { offsetInCU: 0xCA95, offset: 0xCA95, size: 0x8, addend: 0x0, symName: __ZNSt3__19make_pairB8ue170006IRPiS1_EENS_4pairINS_18__unwrap_ref_decayIT_E4typeENS4_IT0_E4typeEEEOS5_OS8_, symObjAddr: 0x4FD4, symBinAddr: 0x100008138, symSize: 0x38 }
  - { offsetInCU: 0xCAE4, offset: 0xCAE4, size: 0x8, addend: 0x0, symName: __ZNSt3__119__allocator_destroyB8ue170006INS_9allocatorINS_6vectorIiNS1_IiEEEEEENS_16reverse_iteratorIPS4_EES8_EEvRT_T0_T1_, symObjAddr: 0x5134, symBinAddr: 0x100008298, symSize: 0x70 }
  - { offsetInCU: 0xCB47, offset: 0xCB47, size: 0x8, addend: 0x0, symName: __ZNSt3__1neB8ue170006IPNS_6vectorIiNS_9allocatorIiEEEES5_EEbRKNS_16reverse_iteratorIT_EERKNS6_IT0_EE, symObjAddr: 0x51D8, symBinAddr: 0x10000833C, symSize: 0x48 }
  - { offsetInCU: 0xCB93, offset: 0xCB93, size: 0x8, addend: 0x0, symName: __ZNSt3__112__to_addressB8ue170006INS_16reverse_iteratorIPNS_6vectorIiNS_9allocatorIiEEEEEEvEEu7__decayIDTclsr19__to_address_helperIT_EE6__callclsr3stdE7declvalIRKS8_EEEEESA_, symObjAddr: 0x524C, symBinAddr: 0x1000083B0, symSize: 0x24 }
  - { offsetInCU: 0xCC45, offset: 0xCC45, size: 0x8, addend: 0x0, symName: __ZNSt3__118__constexpr_strlenB8ue170006EPKc, symObjAddr: 0x58BC, symBinAddr: 0x100008A20, symSize: 0x24 }
  - { offsetInCU: 0xCCC8, offset: 0xCCC8, size: 0x8, addend: 0x0, symName: __ZNSt3__1eqB8ue170006ERKNS_21__tree_const_iteratorINS_12__value_typeIiN5boost7variantIiJfbNS_12basic_stringIcNS_11char_traitsIcEENS_9allocatorIcEEEEEEEEEPNS_11__tree_nodeISB_PvEElEESI_, symObjAddr: 0x83B8, symBinAddr: 0x10000B51C, symSize: 0x30 }
  - { offsetInCU: 0xCD05, offset: 0xCD05, size: 0x8, addend: 0x0, symName: __ZNSt3__14nextB8ue170006INS_21__tree_const_iteratorINS_12__value_typeIiN5boost7variantIiJfbNS_12basic_stringIcNS_11char_traitsIcEENS_9allocatorIcEEEEEEEEEPNS_11__tree_nodeISC_PvEElEEEENS_9enable_ifIXsr29__has_input_iterator_categoryIT_EE5valueESJ_E4typeESJ_NS_15iterator_traitsISJ_E15difference_typeE, symObjAddr: 0x8728, symBinAddr: 0x10000B88C, symSize: 0x3C }
  - { offsetInCU: 0xCD48, offset: 0xCD48, size: 0x8, addend: 0x0, symName: __ZNSt3__116__tree_prev_iterB8ue170006IPNS_16__tree_node_baseIPvEEPNS_15__tree_end_nodeIS4_EEEET_T0_, symObjAddr: 0x8870, symBinAddr: 0x10000B9D4, symSize: 0xA4 }
  - { offsetInCU: 0xCD94, offset: 0xCD94, size: 0x8, addend: 0x0, symName: __ZNSt3__110__tree_maxB8ue170006IPNS_16__tree_node_baseIPvEEEET_S5_, symObjAddr: 0x8914, symBinAddr: 0x10000BA78, symSize: 0x40 }
  - { offsetInCU: 0xCDC9, offset: 0xCDC9, size: 0x8, addend: 0x0, symName: __ZNSt3__120__tree_is_left_childB8ue170006IPNS_16__tree_node_baseIPvEEEEbT_, symObjAddr: 0x8954, symBinAddr: 0x10000BAB8, symSize: 0x2C }
  - { offsetInCU: 0xCDFE, offset: 0xCDFE, size: 0x8, addend: 0x0, symName: __ZNSt3__121__convert_to_integralB8ue170006El, symObjAddr: 0x8A1C, symBinAddr: 0x10000BB80, symSize: 0x14 }
  - { offsetInCU: 0xCE2A, offset: 0xCE2A, size: 0x8, addend: 0x0, symName: __ZNSt3__19__advanceB8ue170006INS_21__tree_const_iteratorINS_12__value_typeIiN5boost7variantIiJfbNS_12basic_stringIcNS_11char_traitsIcEENS_9allocatorIcEEEEEEEEEPNS_11__tree_nodeISC_PvEElEEEEvRT_NS_15iterator_traitsISI_E15difference_typeENS_26bidirectional_iterator_tagE, symObjAddr: 0x8A30, symBinAddr: 0x10000BB94, symSize: 0xA4 }
  - { offsetInCU: 0xCE73, offset: 0xCE73, size: 0x8, addend: 0x0, symName: __ZNSt3__116__tree_next_iterB8ue170006IPNS_15__tree_end_nodeIPNS_16__tree_node_baseIPvEEEES5_EET_T0_, symObjAddr: 0x8B0C, symBinAddr: 0x10000BC70, symSize: 0x80 }
  - { offsetInCU: 0xCEB1, offset: 0xCEB1, size: 0x8, addend: 0x0, symName: __ZNSt3__110__tree_minB8ue170006IPNS_16__tree_node_baseIPvEEEET_S5_, symObjAddr: 0x8B8C, symBinAddr: 0x10000BCF0, symSize: 0x40 }
  - { offsetInCU: 0xCF04, offset: 0xCF04, size: 0x8, addend: 0x0, symName: __ZNSt3__127__tree_balance_after_insertB8ue170006IPNS_16__tree_node_baseIPvEEEEvT_S5_, symObjAddr: 0x90A0, symBinAddr: 0x10000C204, symSize: 0x27C }
  - { offsetInCU: 0xCF80, offset: 0xCF80, size: 0x8, addend: 0x0, symName: __ZNSt3__118__tree_left_rotateB8ue170006IPNS_16__tree_node_baseIPvEEEEvT_, symObjAddr: 0x9344, symBinAddr: 0x10000C4A8, symSize: 0xD8 }
  - { offsetInCU: 0xCFC2, offset: 0xCFC2, size: 0x8, addend: 0x0, symName: __ZNSt3__119__tree_right_rotateB8ue170006IPNS_16__tree_node_baseIPvEEEEvT_, symObjAddr: 0x941C, symBinAddr: 0x10000C580, symSize: 0xCC }
  - { offsetInCU: 0xD004, offset: 0xD004, size: 0x8, addend: 0x0, symName: __ZNSt3__116__pad_and_outputB8ue170006IcNS_11char_traitsIcEEEENS_19ostreambuf_iteratorIT_T0_EES6_PKS4_S8_S8_RNS_8ios_baseES4_, symObjAddr: 0xAF70, symBinAddr: 0x10000E0D4, symSize: 0x240 }
  - { offsetInCU: 0xD0D3, offset: 0xD0D3, size: 0x8, addend: 0x0, symName: __ZNSt3__112__to_addressB8ue170006IKcEEPT_S3_, symObjAddr: 0xB3E0, symBinAddr: 0x10000E544, symSize: 0x14 }
  - { offsetInCU: 0xD13B, offset: 0xD13B, size: 0x8, addend: 0x0, symName: __ZNSt3__19use_facetB8ue170006INS_5ctypeIcEEEERKT_RKNS_6localeE, symObjAddr: 0xB660, symBinAddr: 0x10000E7C4, symSize: 0x2C }
  - { offsetInCU: 0xD608, offset: 0xD608, size: 0x8, addend: 0x0, symName: __ZNSt3__116__pad_and_outputB8ue170006IwNS_11char_traitsIwEEEENS_19ostreambuf_iteratorIT_T0_EES6_PKS4_S8_S8_RNS_8ios_baseES4_, symObjAddr: 0xB9D4, symBinAddr: 0x10000EB38, symSize: 0x258 }
  - { offsetInCU: 0xF807, offset: 0xF807, size: 0x8, addend: 0x0, symName: __ZNSt3__112__to_addressB8ue170006IKwEEPT_S3_, symObjAddr: 0xBEF0, symBinAddr: 0x10000F054, symSize: 0x14 }
  - { offsetInCU: 0xF86F, offset: 0xF86F, size: 0x8, addend: 0x0, symName: __ZNSt3__19use_facetB8ue170006INS_5ctypeIwEEEERKT_RKNS_6localeE, symObjAddr: 0xC154, symBinAddr: 0x10000F2B8, symSize: 0x2C }
  - { offsetInCU: 0xFCA5, offset: 0xFCA5, size: 0x8, addend: 0x0, symName: __ZNSt3__118__constexpr_wcslenB8ue170006EPKw, symObjAddr: 0xC1B4, symBinAddr: 0x10000F318, symSize: 0x24 }
  - { offsetInCU: 0xFD08, offset: 0xFD08, size: 0x8, addend: 0x0, symName: __ZNSt3__116forward_as_tupleB8ue170006IJRKiEEENS_5tupleIJDpOT_EEES6_, symObjAddr: 0xE6C8, symBinAddr: 0x10001182C, symSize: 0x2C }
  - { offsetInCU: 0xFD41, offset: 0xFD41, size: 0x8, addend: 0x0, symName: __ZNSt3__116forward_as_tupleB8ue170006IJEEENS_5tupleIJDpOT_EEES4_, symObjAddr: 0xE6F4, symBinAddr: 0x100011858, symSize: 0x4 }
  - { offsetInCU: 0xFD70, offset: 0xFD70, size: 0x8, addend: 0x0, symName: __ZNSt3__13getB8ue170006ILm0EJRKiEEERNS_13tuple_elementIXT_ENS_5tupleIJDpT0_EEEE4typeERS7_, symObjAddr: 0xE998, symBinAddr: 0x100011AFC, symSize: 0x24 }
  - { offsetInCU: 0xFE3D, offset: 0xFE3D, size: 0x8, addend: 0x0, symName: __ZNSt3__1eqB8ue170006INS_9allocatorIcEEEEbRKNS_12basic_stringIcNS_11char_traitsIcEET_EES9_, symObjAddr: 0x12B20, symBinAddr: 0x100015C84, symSize: 0x148 }
  - { offsetInCU: 0x104F5, offset: 0x104F5, size: 0x8, addend: 0x0, symName: __ZSt28__throw_bad_array_new_lengthB8ue170006v, symObjAddr: 0x3034, symBinAddr: 0x100006198, symSize: 0x34 }
  - { offsetInCU: 0x10804, offset: 0x10804, size: 0x8, addend: 0x0, symName: _constantMap, symObjAddr: 0xCDB40, symBinAddr: 0x100020028, symSize: 0x0 }
  - { offsetInCU: 0x137FF, offset: 0x137FF, size: 0x8, addend: 0x0, symName: __ZN5boost6detail7variant22visitation_impl_invokeINS1_9destroyerEPviNS_7variantIiJfbEE18has_fallback_type_EEENT_11result_typeEiRS8_T0_PT1_T2_i, symObjAddr: 0x5F48, symBinAddr: 0x1000090AC, symSize: 0x40 }
  - { offsetInCU: 0x1388D, offset: 0x1388D, size: 0x8, addend: 0x0, symName: __ZN5boost6detail7variant22visitation_impl_invokeINS1_9destroyerEPvfNS_7variantIiJfbEE18has_fallback_type_EEENT_11result_typeEiRS8_T0_PT1_T2_i, symObjAddr: 0x5F88, symBinAddr: 0x1000090EC, symSize: 0x40 }
  - { offsetInCU: 0x1391B, offset: 0x1391B, size: 0x8, addend: 0x0, symName: __ZN5boost6detail7variant22visitation_impl_invokeINS1_9destroyerEPvbNS_7variantIiJfbEE18has_fallback_type_EEENT_11result_typeEiRS8_T0_PT1_T2_i, symObjAddr: 0x5FC8, symBinAddr: 0x10000912C, symSize: 0x40 }
  - { offsetInCU: 0x139A9, offset: 0x139A9, size: 0x8, addend: 0x0, symName: __ZN5boost6detail7variant22visitation_impl_invokeINS1_9destroyerEPvNS_7variantIiJfbEE18has_fallback_type_EEENT_11result_typeEiRS8_T0_PNS1_22apply_visitor_unrolledET1_l, symObjAddr: 0x6008, symBinAddr: 0x10000916C, symSize: 0x24 }
  - { offsetInCU: 0x13A1E, offset: 0x13A1E, size: 0x8, addend: 0x0, symName: __ZN5boost6detail7variant15visitation_implIN4mpl_4int_ILi20EEENS1_20visitation_impl_stepINS_3mpl6l_iterINS7_5l_endEEESA_EENS1_9destroyerEPvNS_7variantIiJfbEE18has_fallback_type_EEENT1_11result_typeEiiRSH_T2_NS3_5bool_ILb1EEET3_PT_PT0_, symObjAddr: 0x602C, symBinAddr: 0x100009190, symSize: 0x28 }
  - { offsetInCU: 0x13AB9, offset: 0x13AB9, size: 0x8, addend: 0x0, symName: __ZN5boost6detail7variant27visitation_impl_invoke_implINS1_9destroyerEPviEENT_11result_typeEiRS5_T0_PT1_N4mpl_5bool_ILb1EEE, symObjAddr: 0x6070, symBinAddr: 0x1000091D4, symSize: 0x48 }
  - { offsetInCU: 0x13B2C, offset: 0x13B2C, size: 0x8, addend: 0x0, symName: __ZN5boost6detail7variant12cast_storageIiEERT_Pv, symObjAddr: 0x60D0, symBinAddr: 0x100009234, symSize: 0x14 }
  - { offsetInCU: 0x13B61, offset: 0x13B61, size: 0x8, addend: 0x0, symName: __ZN5boost6detail7variant27visitation_impl_invoke_implINS1_9destroyerEPvfEENT_11result_typeEiRS5_T0_PT1_N4mpl_5bool_ILb1EEE, symObjAddr: 0x60E4, symBinAddr: 0x100009248, symSize: 0x48 }
  - { offsetInCU: 0x13BD4, offset: 0x13BD4, size: 0x8, addend: 0x0, symName: __ZN5boost6detail7variant12cast_storageIfEERT_Pv, symObjAddr: 0x6144, symBinAddr: 0x1000092A8, symSize: 0x14 }
  - { offsetInCU: 0x13C09, offset: 0x13C09, size: 0x8, addend: 0x0, symName: __ZN5boost6detail7variant27visitation_impl_invoke_implINS1_9destroyerEPvbEENT_11result_typeEiRS5_T0_PT1_N4mpl_5bool_ILb1EEE, symObjAddr: 0x6158, symBinAddr: 0x1000092BC, symSize: 0x48 }
  - { offsetInCU: 0x13C7C, offset: 0x13C7C, size: 0x8, addend: 0x0, symName: __ZN5boost6detail7variant12cast_storageIbEERT_Pv, symObjAddr: 0x61B8, symBinAddr: 0x10000931C, symSize: 0x14 }
  - { offsetInCU: 0x13CB2, offset: 0x13CB2, size: 0x8, addend: 0x0, symName: __ZN5boost6detail7variant13forced_returnIvEET_v, symObjAddr: 0x61CC, symBinAddr: 0x100009330, symSize: 0x2C }
  - { offsetInCU: 0x13D48, offset: 0x13D48, size: 0x8, addend: 0x0, symName: __ZN5boost6detail7variant22visitation_impl_invokeINS1_9destroyerEPviNS_7variantIiJfbNSt3__112basic_stringIcNS6_11char_traitsIcEENS6_9allocatorIcEEEEEE18has_fallback_type_EEENT_11result_typeEiRSF_T0_PT1_T2_i, symObjAddr: 0x670C, symBinAddr: 0x100009870, symSize: 0x40 }
  - { offsetInCU: 0x13DD6, offset: 0x13DD6, size: 0x8, addend: 0x0, symName: __ZN5boost6detail7variant22visitation_impl_invokeINS1_9destroyerEPvfNS_7variantIiJfbNSt3__112basic_stringIcNS6_11char_traitsIcEENS6_9allocatorIcEEEEEE18has_fallback_type_EEENT_11result_typeEiRSF_T0_PT1_T2_i, symObjAddr: 0x674C, symBinAddr: 0x1000098B0, symSize: 0x40 }
  - { offsetInCU: 0x13E64, offset: 0x13E64, size: 0x8, addend: 0x0, symName: __ZN5boost6detail7variant22visitation_impl_invokeINS1_9destroyerEPvbNS_7variantIiJfbNSt3__112basic_stringIcNS6_11char_traitsIcEENS6_9allocatorIcEEEEEE18has_fallback_type_EEENT_11result_typeEiRSF_T0_PT1_T2_i, symObjAddr: 0x678C, symBinAddr: 0x1000098F0, symSize: 0x40 }
  - { offsetInCU: 0x13EF2, offset: 0x13EF2, size: 0x8, addend: 0x0, symName: __ZN5boost6detail7variant22visitation_impl_invokeINS1_9destroyerEPvNSt3__112basic_stringIcNS5_11char_traitsIcEENS5_9allocatorIcEEEENS_7variantIiJfbSB_EE18has_fallback_type_EEENT_11result_typeEiRSF_T0_PT1_T2_i, symObjAddr: 0x67CC, symBinAddr: 0x100009930, symSize: 0x40 }
  - { offsetInCU: 0x13F80, offset: 0x13F80, size: 0x8, addend: 0x0, symName: __ZN5boost6detail7variant22visitation_impl_invokeINS1_9destroyerEPvNS_7variantIiJfbNSt3__112basic_stringIcNS6_11char_traitsIcEENS6_9allocatorIcEEEEEE18has_fallback_type_EEENT_11result_typeEiRSF_T0_PNS1_22apply_visitor_unrolledET1_l, symObjAddr: 0x680C, symBinAddr: 0x100009970, symSize: 0x24 }
  - { offsetInCU: 0x13FF5, offset: 0x13FF5, size: 0x8, addend: 0x0, symName: __ZN5boost6detail7variant15visitation_implIN4mpl_4int_ILi20EEENS1_20visitation_impl_stepINS_3mpl6l_iterINS7_5l_endEEESA_EENS1_9destroyerEPvNS_7variantIiJfbNSt3__112basic_stringIcNSF_11char_traitsIcEENSF_9allocatorIcEEEEEE18has_fallback_type_EEENT1_11result_typeEiiRSO_T2_NS3_5bool_ILb1EEET3_PT_PT0_, symObjAddr: 0x6830, symBinAddr: 0x100009994, symSize: 0x28 }
  - { offsetInCU: 0x14090, offset: 0x14090, size: 0x8, addend: 0x0, symName: __ZN5boost6detail7variant27visitation_impl_invoke_implINS1_9destroyerEPvNSt3__112basic_stringIcNS5_11char_traitsIcEENS5_9allocatorIcEEEEEENT_11result_typeEiRSC_T0_PT1_N4mpl_5bool_ILb1EEE, symObjAddr: 0x6858, symBinAddr: 0x1000099BC, symSize: 0x48 }
  - { offsetInCU: 0x14103, offset: 0x14103, size: 0x8, addend: 0x0, symName: __ZN5boost6detail7variant12cast_storageINSt3__112basic_stringIcNS3_11char_traitsIcEENS3_9allocatorIcEEEEEERT_Pv, symObjAddr: 0x68CC, symBinAddr: 0x100009A30, symSize: 0x14 }
  - { offsetInCU: 0x141B0, offset: 0x141B0, size: 0x8, addend: 0x0, symName: __ZN5boost6detail7variant22visitation_impl_invokeINS_7variantIiJfbNSt3__112basic_stringIcNS4_11char_traitsIcEENS4_9allocatorIcEEEEEE17convert_move_intoEPviNS3_IiJfbEE18has_fallback_type_EEENT_11result_typeEiRSG_T0_PT1_T2_i, symObjAddr: 0x6F88, symBinAddr: 0x10000A0EC, symSize: 0x40 }
  - { offsetInCU: 0x1423E, offset: 0x1423E, size: 0x8, addend: 0x0, symName: __ZN5boost6detail7variant22visitation_impl_invokeINS_7variantIiJfbNSt3__112basic_stringIcNS4_11char_traitsIcEENS4_9allocatorIcEEEEEE17convert_move_intoEPvfNS3_IiJfbEE18has_fallback_type_EEENT_11result_typeEiRSG_T0_PT1_T2_i, symObjAddr: 0x6FC8, symBinAddr: 0x10000A12C, symSize: 0x40 }
  - { offsetInCU: 0x142CC, offset: 0x142CC, size: 0x8, addend: 0x0, symName: __ZN5boost6detail7variant22visitation_impl_invokeINS_7variantIiJfbNSt3__112basic_stringIcNS4_11char_traitsIcEENS4_9allocatorIcEEEEEE17convert_move_intoEPvbNS3_IiJfbEE18has_fallback_type_EEENT_11result_typeEiRSG_T0_PT1_T2_i, symObjAddr: 0x7008, symBinAddr: 0x10000A16C, symSize: 0x40 }
  - { offsetInCU: 0x1435A, offset: 0x1435A, size: 0x8, addend: 0x0, symName: __ZN5boost6detail7variant22visitation_impl_invokeINS_7variantIiJfbNSt3__112basic_stringIcNS4_11char_traitsIcEENS4_9allocatorIcEEEEEE17convert_move_intoEPvNS3_IiJfbEE18has_fallback_type_EEENT_11result_typeEiRSG_T0_PNS1_22apply_visitor_unrolledET1_l, symObjAddr: 0x7048, symBinAddr: 0x10000A1AC, symSize: 0x24 }
  - { offsetInCU: 0x143CF, offset: 0x143CF, size: 0x8, addend: 0x0, symName: __ZN5boost6detail7variant15visitation_implIN4mpl_4int_ILi20EEENS1_20visitation_impl_stepINS_3mpl6l_iterINS7_5l_endEEESA_EENS_7variantIiJfbNSt3__112basic_stringIcNSD_11char_traitsIcEENSD_9allocatorIcEEEEEE17convert_move_intoEPvNSC_IiJfbEE18has_fallback_type_EEENT1_11result_typeEiiRSP_T2_NS3_5bool_ILb1EEET3_PT_PT0_, symObjAddr: 0x706C, symBinAddr: 0x10000A1D0, symSize: 0x28 }
  - { offsetInCU: 0x1446A, offset: 0x1446A, size: 0x8, addend: 0x0, symName: __ZN5boost6detail7variant27visitation_impl_invoke_implINS_7variantIiJfbNSt3__112basic_stringIcNS4_11char_traitsIcEENS4_9allocatorIcEEEEEE17convert_move_intoEPviEENT_11result_typeEiRSE_T0_PT1_N4mpl_5bool_ILb1EEE, symObjAddr: 0x7094, symBinAddr: 0x10000A1F8, symSize: 0x48 }
  - { offsetInCU: 0x144DD, offset: 0x144DD, size: 0x8, addend: 0x0, symName: __ZN5boost6detail7variant27visitation_impl_invoke_implINS_7variantIiJfbNSt3__112basic_stringIcNS4_11char_traitsIcEENS4_9allocatorIcEEEEEE17convert_move_intoEPvfEENT_11result_typeEiRSE_T0_PT1_N4mpl_5bool_ILb1EEE, symObjAddr: 0x7138, symBinAddr: 0x10000A29C, symSize: 0x48 }
  - { offsetInCU: 0x14550, offset: 0x14550, size: 0x8, addend: 0x0, symName: __ZN5boost6detail7variant27visitation_impl_invoke_implINS_7variantIiJfbNSt3__112basic_stringIcNS4_11char_traitsIcEENS4_9allocatorIcEEEEEE17convert_move_intoEPvbEENT_11result_typeEiRSE_T0_PT1_N4mpl_5bool_ILb1EEE, symObjAddr: 0x71DC, symBinAddr: 0x10000A340, symSize: 0x48 }
  - { offsetInCU: 0x145C4, offset: 0x145C4, size: 0x8, addend: 0x0, symName: __ZN5boost6detail7variant13forced_returnIiEET_v, symObjAddr: 0x7284, symBinAddr: 0x10000A3E8, symSize: 0x2C }
  - { offsetInCU: 0x14662, offset: 0x14662, size: 0x8, addend: 0x0, symName: __ZN5boost6detail7variant22visitation_impl_invokeINS1_14invoke_visitorINS1_11get_visitorIKiEELb0EEEPKviNS_7variantIiJfbNSt3__112basic_stringIcNSB_11char_traitsIcEENSB_9allocatorIcEEEEEE18has_fallback_type_EEENT_11result_typeEiRSK_T0_PT1_T2_i, symObjAddr: 0x9E04, symBinAddr: 0x10000CF68, symSize: 0x40 }
  - { offsetInCU: 0x146F0, offset: 0x146F0, size: 0x8, addend: 0x0, symName: __ZN5boost6detail7variant22visitation_impl_invokeINS1_14invoke_visitorINS1_11get_visitorIKiEELb0EEEPKvfNS_7variantIiJfbNSt3__112basic_stringIcNSB_11char_traitsIcEENSB_9allocatorIcEEEEEE18has_fallback_type_EEENT_11result_typeEiRSK_T0_PT1_T2_i, symObjAddr: 0x9E44, symBinAddr: 0x10000CFA8, symSize: 0x40 }
  - { offsetInCU: 0x1477E, offset: 0x1477E, size: 0x8, addend: 0x0, symName: __ZN5boost6detail7variant22visitation_impl_invokeINS1_14invoke_visitorINS1_11get_visitorIKiEELb0EEEPKvbNS_7variantIiJfbNSt3__112basic_stringIcNSB_11char_traitsIcEENSB_9allocatorIcEEEEEE18has_fallback_type_EEENT_11result_typeEiRSK_T0_PT1_T2_i, symObjAddr: 0x9E84, symBinAddr: 0x10000CFE8, symSize: 0x40 }
  - { offsetInCU: 0x1480C, offset: 0x1480C, size: 0x8, addend: 0x0, symName: __ZN5boost6detail7variant22visitation_impl_invokeINS1_14invoke_visitorINS1_11get_visitorIKiEELb0EEEPKvNSt3__112basic_stringIcNSA_11char_traitsIcEENSA_9allocatorIcEEEENS_7variantIiJfbSG_EE18has_fallback_type_EEENT_11result_typeEiRSK_T0_PT1_T2_i, symObjAddr: 0x9EC4, symBinAddr: 0x10000D028, symSize: 0x40 }
  - { offsetInCU: 0x1489A, offset: 0x1489A, size: 0x8, addend: 0x0, symName: __ZN5boost6detail7variant22visitation_impl_invokeINS1_14invoke_visitorINS1_11get_visitorIKiEELb0EEEPKvNS_7variantIiJfbNSt3__112basic_stringIcNSB_11char_traitsIcEENSB_9allocatorIcEEEEEE18has_fallback_type_EEENT_11result_typeEiRSK_T0_PNS1_22apply_visitor_unrolledET1_l, symObjAddr: 0x9F04, symBinAddr: 0x10000D068, symSize: 0x24 }
  - { offsetInCU: 0x1490F, offset: 0x1490F, size: 0x8, addend: 0x0, symName: __ZN5boost6detail7variant15visitation_implIN4mpl_4int_ILi20EEENS1_20visitation_impl_stepINS_3mpl6l_iterINS7_5l_endEEESA_EENS1_14invoke_visitorINS1_11get_visitorIKiEELb0EEEPKvNS_7variantIiJfbNSt3__112basic_stringIcNSK_11char_traitsIcEENSK_9allocatorIcEEEEEE18has_fallback_type_EEENT1_11result_typeEiiRST_T2_NS3_5bool_ILb1EEET3_PT_PT0_, symObjAddr: 0x9F28, symBinAddr: 0x10000D08C, symSize: 0x28 }
  - { offsetInCU: 0x149AA, offset: 0x149AA, size: 0x8, addend: 0x0, symName: __ZN5boost6detail7variant27visitation_impl_invoke_implINS1_14invoke_visitorINS1_11get_visitorIKiEELb0EEEPKviEENT_11result_typeEiRSA_T0_PT1_N4mpl_5bool_ILb1EEE, symObjAddr: 0x9F50, symBinAddr: 0x10000D0B4, symSize: 0x48 }
  - { offsetInCU: 0x14A1D, offset: 0x14A1D, size: 0x8, addend: 0x0, symName: __ZN5boost6detail7variant12cast_storageIiEERKT_PKv, symObjAddr: 0x9FCC, symBinAddr: 0x10000D130, symSize: 0x14 }
  - { offsetInCU: 0x14A52, offset: 0x14A52, size: 0x8, addend: 0x0, symName: __ZN5boost6detail7variant27visitation_impl_invoke_implINS1_14invoke_visitorINS1_11get_visitorIKiEELb0EEEPKvfEENT_11result_typeEiRSA_T0_PT1_N4mpl_5bool_ILb1EEE, symObjAddr: 0xA01C, symBinAddr: 0x10000D180, symSize: 0x48 }
  - { offsetInCU: 0x14AC5, offset: 0x14AC5, size: 0x8, addend: 0x0, symName: __ZN5boost6detail7variant12cast_storageIfEERKT_PKv, symObjAddr: 0xA098, symBinAddr: 0x10000D1FC, symSize: 0x14 }
  - { offsetInCU: 0x14AFA, offset: 0x14AFA, size: 0x8, addend: 0x0, symName: __ZN5boost6detail7variant27visitation_impl_invoke_implINS1_14invoke_visitorINS1_11get_visitorIKiEELb0EEEPKvbEENT_11result_typeEiRSA_T0_PT1_N4mpl_5bool_ILb1EEE, symObjAddr: 0xA0C4, symBinAddr: 0x10000D228, symSize: 0x48 }
  - { offsetInCU: 0x14B6D, offset: 0x14B6D, size: 0x8, addend: 0x0, symName: __ZN5boost6detail7variant12cast_storageIbEERKT_PKv, symObjAddr: 0xA140, symBinAddr: 0x10000D2A4, symSize: 0x14 }
  - { offsetInCU: 0x14BA2, offset: 0x14BA2, size: 0x8, addend: 0x0, symName: __ZN5boost6detail7variant27visitation_impl_invoke_implINS1_14invoke_visitorINS1_11get_visitorIKiEELb0EEEPKvNSt3__112basic_stringIcNSA_11char_traitsIcEENSA_9allocatorIcEEEEEENT_11result_typeEiRSH_T0_PT1_N4mpl_5bool_ILb1EEE, symObjAddr: 0xA16C, symBinAddr: 0x10000D2D0, symSize: 0x48 }
  - { offsetInCU: 0x14C15, offset: 0x14C15, size: 0x8, addend: 0x0, symName: __ZN5boost6detail7variant12cast_storageINSt3__112basic_stringIcNS3_11char_traitsIcEENS3_9allocatorIcEEEEEERKT_PKv, symObjAddr: 0xA1E8, symBinAddr: 0x10000D34C, symSize: 0x14 }
  - { offsetInCU: 0x14C4B, offset: 0x14C4B, size: 0x8, addend: 0x0, symName: __ZN5boost6detail7variant13forced_returnIPKiEET_v, symObjAddr: 0xA214, symBinAddr: 0x10000D378, symSize: 0x2C }
  - { offsetInCU: 0x14CE9, offset: 0x14CE9, size: 0x8, addend: 0x0, symName: __ZN5boost6detail7variant22visitation_impl_invokeINS1_14invoke_visitorINS1_11get_visitorIKfEELb0EEEPKviNS_7variantIiJfbNSt3__112basic_stringIcNSB_11char_traitsIcEENSB_9allocatorIcEEEEEE18has_fallback_type_EEENT_11result_typeEiRSK_T0_PT1_T2_i, symObjAddr: 0xA7EC, symBinAddr: 0x10000D950, symSize: 0x40 }
  - { offsetInCU: 0x14D77, offset: 0x14D77, size: 0x8, addend: 0x0, symName: __ZN5boost6detail7variant22visitation_impl_invokeINS1_14invoke_visitorINS1_11get_visitorIKfEELb0EEEPKvfNS_7variantIiJfbNSt3__112basic_stringIcNSB_11char_traitsIcEENSB_9allocatorIcEEEEEE18has_fallback_type_EEENT_11result_typeEiRSK_T0_PT1_T2_i, symObjAddr: 0xA82C, symBinAddr: 0x10000D990, symSize: 0x40 }
  - { offsetInCU: 0x14E05, offset: 0x14E05, size: 0x8, addend: 0x0, symName: __ZN5boost6detail7variant22visitation_impl_invokeINS1_14invoke_visitorINS1_11get_visitorIKfEELb0EEEPKvbNS_7variantIiJfbNSt3__112basic_stringIcNSB_11char_traitsIcEENSB_9allocatorIcEEEEEE18has_fallback_type_EEENT_11result_typeEiRSK_T0_PT1_T2_i, symObjAddr: 0xA86C, symBinAddr: 0x10000D9D0, symSize: 0x40 }
  - { offsetInCU: 0x14E93, offset: 0x14E93, size: 0x8, addend: 0x0, symName: __ZN5boost6detail7variant22visitation_impl_invokeINS1_14invoke_visitorINS1_11get_visitorIKfEELb0EEEPKvNSt3__112basic_stringIcNSA_11char_traitsIcEENSA_9allocatorIcEEEENS_7variantIiJfbSG_EE18has_fallback_type_EEENT_11result_typeEiRSK_T0_PT1_T2_i, symObjAddr: 0xA8AC, symBinAddr: 0x10000DA10, symSize: 0x40 }
  - { offsetInCU: 0x14F21, offset: 0x14F21, size: 0x8, addend: 0x0, symName: __ZN5boost6detail7variant22visitation_impl_invokeINS1_14invoke_visitorINS1_11get_visitorIKfEELb0EEEPKvNS_7variantIiJfbNSt3__112basic_stringIcNSB_11char_traitsIcEENSB_9allocatorIcEEEEEE18has_fallback_type_EEENT_11result_typeEiRSK_T0_PNS1_22apply_visitor_unrolledET1_l, symObjAddr: 0xA8EC, symBinAddr: 0x10000DA50, symSize: 0x24 }
  - { offsetInCU: 0x14F96, offset: 0x14F96, size: 0x8, addend: 0x0, symName: __ZN5boost6detail7variant15visitation_implIN4mpl_4int_ILi20EEENS1_20visitation_impl_stepINS_3mpl6l_iterINS7_5l_endEEESA_EENS1_14invoke_visitorINS1_11get_visitorIKfEELb0EEEPKvNS_7variantIiJfbNSt3__112basic_stringIcNSK_11char_traitsIcEENSK_9allocatorIcEEEEEE18has_fallback_type_EEENT1_11result_typeEiiRST_T2_NS3_5bool_ILb1EEET3_PT_PT0_, symObjAddr: 0xA910, symBinAddr: 0x10000DA74, symSize: 0x28 }
  - { offsetInCU: 0x15031, offset: 0x15031, size: 0x8, addend: 0x0, symName: __ZN5boost6detail7variant27visitation_impl_invoke_implINS1_14invoke_visitorINS1_11get_visitorIKfEELb0EEEPKviEENT_11result_typeEiRSA_T0_PT1_N4mpl_5bool_ILb1EEE, symObjAddr: 0xA938, symBinAddr: 0x10000DA9C, symSize: 0x48 }
  - { offsetInCU: 0x150A4, offset: 0x150A4, size: 0x8, addend: 0x0, symName: __ZN5boost6detail7variant27visitation_impl_invoke_implINS1_14invoke_visitorINS1_11get_visitorIKfEELb0EEEPKvfEENT_11result_typeEiRSA_T0_PT1_N4mpl_5bool_ILb1EEE, symObjAddr: 0xA9CC, symBinAddr: 0x10000DB30, symSize: 0x48 }
  - { offsetInCU: 0x15117, offset: 0x15117, size: 0x8, addend: 0x0, symName: __ZN5boost6detail7variant27visitation_impl_invoke_implINS1_14invoke_visitorINS1_11get_visitorIKfEELb0EEEPKvbEENT_11result_typeEiRSA_T0_PT1_N4mpl_5bool_ILb1EEE, symObjAddr: 0xAA84, symBinAddr: 0x10000DBE8, symSize: 0x48 }
  - { offsetInCU: 0x1518A, offset: 0x1518A, size: 0x8, addend: 0x0, symName: __ZN5boost6detail7variant27visitation_impl_invoke_implINS1_14invoke_visitorINS1_11get_visitorIKfEELb0EEEPKvNSt3__112basic_stringIcNSA_11char_traitsIcEENSA_9allocatorIcEEEEEENT_11result_typeEiRSH_T0_PT1_N4mpl_5bool_ILb1EEE, symObjAddr: 0xAB18, symBinAddr: 0x10000DC7C, symSize: 0x48 }
  - { offsetInCU: 0x151FE, offset: 0x151FE, size: 0x8, addend: 0x0, symName: __ZN5boost6detail7variant13forced_returnIPKfEET_v, symObjAddr: 0xABAC, symBinAddr: 0x10000DD10, symSize: 0x2C }
  - { offsetInCU: 0x1529C, offset: 0x1529C, size: 0x8, addend: 0x0, symName: __ZN5boost6detail7variant22visitation_impl_invokeINS1_14invoke_visitorINS1_11get_visitorINSt3__112basic_stringIcNS5_11char_traitsIcEENS5_9allocatorIcEEEEEELb0EEEPviNS_7variantIiJfbSB_EE18has_fallback_type_EEENT_11result_typeEiRSI_T0_PT1_T2_i, symObjAddr: 0xC76C, symBinAddr: 0x10000F8D0, symSize: 0x40 }
  - { offsetInCU: 0x1532A, offset: 0x1532A, size: 0x8, addend: 0x0, symName: __ZN5boost6detail7variant22visitation_impl_invokeINS1_14invoke_visitorINS1_11get_visitorINSt3__112basic_stringIcNS5_11char_traitsIcEENS5_9allocatorIcEEEEEELb0EEEPvfNS_7variantIiJfbSB_EE18has_fallback_type_EEENT_11result_typeEiRSI_T0_PT1_T2_i, symObjAddr: 0xC7AC, symBinAddr: 0x10000F910, symSize: 0x40 }
  - { offsetInCU: 0x153B8, offset: 0x153B8, size: 0x8, addend: 0x0, symName: __ZN5boost6detail7variant22visitation_impl_invokeINS1_14invoke_visitorINS1_11get_visitorINSt3__112basic_stringIcNS5_11char_traitsIcEENS5_9allocatorIcEEEEEELb0EEEPvbNS_7variantIiJfbSB_EE18has_fallback_type_EEENT_11result_typeEiRSI_T0_PT1_T2_i, symObjAddr: 0xC7EC, symBinAddr: 0x10000F950, symSize: 0x40 }
  - { offsetInCU: 0x15446, offset: 0x15446, size: 0x8, addend: 0x0, symName: __ZN5boost6detail7variant22visitation_impl_invokeINS1_14invoke_visitorINS1_11get_visitorINSt3__112basic_stringIcNS5_11char_traitsIcEENS5_9allocatorIcEEEEEELb0EEEPvSB_NS_7variantIiJfbSB_EE18has_fallback_type_EEENT_11result_typeEiRSI_T0_PT1_T2_i, symObjAddr: 0xC82C, symBinAddr: 0x10000F990, symSize: 0x40 }
  - { offsetInCU: 0x154D4, offset: 0x154D4, size: 0x8, addend: 0x0, symName: __ZN5boost6detail7variant22visitation_impl_invokeINS1_14invoke_visitorINS1_11get_visitorINSt3__112basic_stringIcNS5_11char_traitsIcEENS5_9allocatorIcEEEEEELb0EEEPvNS_7variantIiJfbSB_EE18has_fallback_type_EEENT_11result_typeEiRSI_T0_PNS1_22apply_visitor_unrolledET1_l, symObjAddr: 0xC86C, symBinAddr: 0x10000F9D0, symSize: 0x24 }
  - { offsetInCU: 0x15549, offset: 0x15549, size: 0x8, addend: 0x0, symName: __ZN5boost6detail7variant15visitation_implIN4mpl_4int_ILi20EEENS1_20visitation_impl_stepINS_3mpl6l_iterINS7_5l_endEEESA_EENS1_14invoke_visitorINS1_11get_visitorINSt3__112basic_stringIcNSE_11char_traitsIcEENSE_9allocatorIcEEEEEELb0EEEPvNS_7variantIiJfbSK_EE18has_fallback_type_EEENT1_11result_typeEiiRSR_T2_NS3_5bool_ILb1EEET3_PT_PT0_, symObjAddr: 0xC890, symBinAddr: 0x10000F9F4, symSize: 0x28 }
  - { offsetInCU: 0x155E4, offset: 0x155E4, size: 0x8, addend: 0x0, symName: __ZN5boost6detail7variant27visitation_impl_invoke_implINS1_14invoke_visitorINS1_11get_visitorINSt3__112basic_stringIcNS5_11char_traitsIcEENS5_9allocatorIcEEEEEELb0EEEPviEENT_11result_typeEiRSF_T0_PT1_N4mpl_5bool_ILb1EEE, symObjAddr: 0xC8B8, symBinAddr: 0x10000FA1C, symSize: 0x48 }
  - { offsetInCU: 0x15657, offset: 0x15657, size: 0x8, addend: 0x0, symName: __ZN5boost6detail7variant27visitation_impl_invoke_implINS1_14invoke_visitorINS1_11get_visitorINSt3__112basic_stringIcNS5_11char_traitsIcEENS5_9allocatorIcEEEEEELb0EEEPvfEENT_11result_typeEiRSF_T0_PT1_N4mpl_5bool_ILb1EEE, symObjAddr: 0xC94C, symBinAddr: 0x10000FAB0, symSize: 0x48 }
  - { offsetInCU: 0x156CA, offset: 0x156CA, size: 0x8, addend: 0x0, symName: __ZN5boost6detail7variant27visitation_impl_invoke_implINS1_14invoke_visitorINS1_11get_visitorINSt3__112basic_stringIcNS5_11char_traitsIcEENS5_9allocatorIcEEEEEELb0EEEPvbEENT_11result_typeEiRSF_T0_PT1_N4mpl_5bool_ILb1EEE, symObjAddr: 0xC9E0, symBinAddr: 0x10000FB44, symSize: 0x48 }
  - { offsetInCU: 0x1573D, offset: 0x1573D, size: 0x8, addend: 0x0, symName: __ZN5boost6detail7variant27visitation_impl_invoke_implINS1_14invoke_visitorINS1_11get_visitorINSt3__112basic_stringIcNS5_11char_traitsIcEENS5_9allocatorIcEEEEEELb0EEEPvSB_EENT_11result_typeEiRSF_T0_PT1_N4mpl_5bool_ILb1EEE, symObjAddr: 0xCA74, symBinAddr: 0x10000FBD8, symSize: 0x48 }
  - { offsetInCU: 0x157B1, offset: 0x157B1, size: 0x8, addend: 0x0, symName: __ZN5boost6detail7variant13forced_returnIPNSt3__112basic_stringIcNS3_11char_traitsIcEENS3_9allocatorIcEEEEEET_v, symObjAddr: 0xCB2C, symBinAddr: 0x10000FC90, symSize: 0x2C }
  - { offsetInCU: 0x1584F, offset: 0x1584F, size: 0x8, addend: 0x0, symName: __ZN5boost6detail7variant22visitation_impl_invokeINS1_14invoke_visitorINS1_11get_visitorIiEELb0EEEPviNS_7variantIiJfbNSt3__112basic_stringIcNS9_11char_traitsIcEENS9_9allocatorIcEEEEEE18has_fallback_type_EEENT_11result_typeEiRSI_T0_PT1_T2_i, symObjAddr: 0xD03C, symBinAddr: 0x1000101A0, symSize: 0x40 }
  - { offsetInCU: 0x158DD, offset: 0x158DD, size: 0x8, addend: 0x0, symName: __ZN5boost6detail7variant22visitation_impl_invokeINS1_14invoke_visitorINS1_11get_visitorIiEELb0EEEPvfNS_7variantIiJfbNSt3__112basic_stringIcNS9_11char_traitsIcEENS9_9allocatorIcEEEEEE18has_fallback_type_EEENT_11result_typeEiRSI_T0_PT1_T2_i, symObjAddr: 0xD07C, symBinAddr: 0x1000101E0, symSize: 0x40 }
  - { offsetInCU: 0x1596B, offset: 0x1596B, size: 0x8, addend: 0x0, symName: __ZN5boost6detail7variant22visitation_impl_invokeINS1_14invoke_visitorINS1_11get_visitorIiEELb0EEEPvbNS_7variantIiJfbNSt3__112basic_stringIcNS9_11char_traitsIcEENS9_9allocatorIcEEEEEE18has_fallback_type_EEENT_11result_typeEiRSI_T0_PT1_T2_i, symObjAddr: 0xD0BC, symBinAddr: 0x100010220, symSize: 0x40 }
  - { offsetInCU: 0x159F9, offset: 0x159F9, size: 0x8, addend: 0x0, symName: __ZN5boost6detail7variant22visitation_impl_invokeINS1_14invoke_visitorINS1_11get_visitorIiEELb0EEEPvNSt3__112basic_stringIcNS8_11char_traitsIcEENS8_9allocatorIcEEEENS_7variantIiJfbSE_EE18has_fallback_type_EEENT_11result_typeEiRSI_T0_PT1_T2_i, symObjAddr: 0xD0FC, symBinAddr: 0x100010260, symSize: 0x40 }
  - { offsetInCU: 0x15A87, offset: 0x15A87, size: 0x8, addend: 0x0, symName: __ZN5boost6detail7variant22visitation_impl_invokeINS1_14invoke_visitorINS1_11get_visitorIiEELb0EEEPvNS_7variantIiJfbNSt3__112basic_stringIcNS9_11char_traitsIcEENS9_9allocatorIcEEEEEE18has_fallback_type_EEENT_11result_typeEiRSI_T0_PNS1_22apply_visitor_unrolledET1_l, symObjAddr: 0xD13C, symBinAddr: 0x1000102A0, symSize: 0x24 }
  - { offsetInCU: 0x15AFC, offset: 0x15AFC, size: 0x8, addend: 0x0, symName: __ZN5boost6detail7variant15visitation_implIN4mpl_4int_ILi20EEENS1_20visitation_impl_stepINS_3mpl6l_iterINS7_5l_endEEESA_EENS1_14invoke_visitorINS1_11get_visitorIiEELb0EEEPvNS_7variantIiJfbNSt3__112basic_stringIcNSI_11char_traitsIcEENSI_9allocatorIcEEEEEE18has_fallback_type_EEENT1_11result_typeEiiRSR_T2_NS3_5bool_ILb1EEET3_PT_PT0_, symObjAddr: 0xD160, symBinAddr: 0x1000102C4, symSize: 0x28 }
  - { offsetInCU: 0x15B97, offset: 0x15B97, size: 0x8, addend: 0x0, symName: __ZN5boost6detail7variant27visitation_impl_invoke_implINS1_14invoke_visitorINS1_11get_visitorIiEELb0EEEPviEENT_11result_typeEiRS8_T0_PT1_N4mpl_5bool_ILb1EEE, symObjAddr: 0xD188, symBinAddr: 0x1000102EC, symSize: 0x48 }
  - { offsetInCU: 0x15C0A, offset: 0x15C0A, size: 0x8, addend: 0x0, symName: __ZN5boost6detail7variant27visitation_impl_invoke_implINS1_14invoke_visitorINS1_11get_visitorIiEELb0EEEPvfEENT_11result_typeEiRS8_T0_PT1_N4mpl_5bool_ILb1EEE, symObjAddr: 0xD240, symBinAddr: 0x1000103A4, symSize: 0x48 }
  - { offsetInCU: 0x15C7D, offset: 0x15C7D, size: 0x8, addend: 0x0, symName: __ZN5boost6detail7variant27visitation_impl_invoke_implINS1_14invoke_visitorINS1_11get_visitorIiEELb0EEEPvbEENT_11result_typeEiRS8_T0_PT1_N4mpl_5bool_ILb1EEE, symObjAddr: 0xD2D4, symBinAddr: 0x100010438, symSize: 0x48 }
  - { offsetInCU: 0x15CF0, offset: 0x15CF0, size: 0x8, addend: 0x0, symName: __ZN5boost6detail7variant27visitation_impl_invoke_implINS1_14invoke_visitorINS1_11get_visitorIiEELb0EEEPvNSt3__112basic_stringIcNS8_11char_traitsIcEENS8_9allocatorIcEEEEEENT_11result_typeEiRSF_T0_PT1_N4mpl_5bool_ILb1EEE, symObjAddr: 0xD368, symBinAddr: 0x1000104CC, symSize: 0x48 }
  - { offsetInCU: 0x15D64, offset: 0x15D64, size: 0x8, addend: 0x0, symName: __ZN5boost6detail7variant13forced_returnIPiEET_v, symObjAddr: 0xD3FC, symBinAddr: 0x100010560, symSize: 0x2C }
  - { offsetInCU: 0x15E02, offset: 0x15E02, size: 0x8, addend: 0x0, symName: __ZN5boost6detail7variant22visitation_impl_invokeINS1_14invoke_visitorINS1_11get_visitorIfEELb0EEEPviNS_7variantIiJfbNSt3__112basic_stringIcNS9_11char_traitsIcEENS9_9allocatorIcEEEEEE18has_fallback_type_EEENT_11result_typeEiRSI_T0_PT1_T2_i, symObjAddr: 0xD90C, symBinAddr: 0x100010A70, symSize: 0x40 }
  - { offsetInCU: 0x15E90, offset: 0x15E90, size: 0x8, addend: 0x0, symName: __ZN5boost6detail7variant22visitation_impl_invokeINS1_14invoke_visitorINS1_11get_visitorIfEELb0EEEPvfNS_7variantIiJfbNSt3__112basic_stringIcNS9_11char_traitsIcEENS9_9allocatorIcEEEEEE18has_fallback_type_EEENT_11result_typeEiRSI_T0_PT1_T2_i, symObjAddr: 0xD94C, symBinAddr: 0x100010AB0, symSize: 0x40 }
  - { offsetInCU: 0x15F1E, offset: 0x15F1E, size: 0x8, addend: 0x0, symName: __ZN5boost6detail7variant22visitation_impl_invokeINS1_14invoke_visitorINS1_11get_visitorIfEELb0EEEPvbNS_7variantIiJfbNSt3__112basic_stringIcNS9_11char_traitsIcEENS9_9allocatorIcEEEEEE18has_fallback_type_EEENT_11result_typeEiRSI_T0_PT1_T2_i, symObjAddr: 0xD98C, symBinAddr: 0x100010AF0, symSize: 0x40 }
  - { offsetInCU: 0x15FAC, offset: 0x15FAC, size: 0x8, addend: 0x0, symName: __ZN5boost6detail7variant22visitation_impl_invokeINS1_14invoke_visitorINS1_11get_visitorIfEELb0EEEPvNSt3__112basic_stringIcNS8_11char_traitsIcEENS8_9allocatorIcEEEENS_7variantIiJfbSE_EE18has_fallback_type_EEENT_11result_typeEiRSI_T0_PT1_T2_i, symObjAddr: 0xD9CC, symBinAddr: 0x100010B30, symSize: 0x40 }
  - { offsetInCU: 0x1603A, offset: 0x1603A, size: 0x8, addend: 0x0, symName: __ZN5boost6detail7variant22visitation_impl_invokeINS1_14invoke_visitorINS1_11get_visitorIfEELb0EEEPvNS_7variantIiJfbNSt3__112basic_stringIcNS9_11char_traitsIcEENS9_9allocatorIcEEEEEE18has_fallback_type_EEENT_11result_typeEiRSI_T0_PNS1_22apply_visitor_unrolledET1_l, symObjAddr: 0xDA0C, symBinAddr: 0x100010B70, symSize: 0x24 }
  - { offsetInCU: 0x160AF, offset: 0x160AF, size: 0x8, addend: 0x0, symName: __ZN5boost6detail7variant15visitation_implIN4mpl_4int_ILi20EEENS1_20visitation_impl_stepINS_3mpl6l_iterINS7_5l_endEEESA_EENS1_14invoke_visitorINS1_11get_visitorIfEELb0EEEPvNS_7variantIiJfbNSt3__112basic_stringIcNSI_11char_traitsIcEENSI_9allocatorIcEEEEEE18has_fallback_type_EEENT1_11result_typeEiiRSR_T2_NS3_5bool_ILb1EEET3_PT_PT0_, symObjAddr: 0xDA30, symBinAddr: 0x100010B94, symSize: 0x28 }
  - { offsetInCU: 0x1614A, offset: 0x1614A, size: 0x8, addend: 0x0, symName: __ZN5boost6detail7variant27visitation_impl_invoke_implINS1_14invoke_visitorINS1_11get_visitorIfEELb0EEEPviEENT_11result_typeEiRS8_T0_PT1_N4mpl_5bool_ILb1EEE, symObjAddr: 0xDA58, symBinAddr: 0x100010BBC, symSize: 0x48 }
  - { offsetInCU: 0x161BD, offset: 0x161BD, size: 0x8, addend: 0x0, symName: __ZN5boost6detail7variant27visitation_impl_invoke_implINS1_14invoke_visitorINS1_11get_visitorIfEELb0EEEPvfEENT_11result_typeEiRS8_T0_PT1_N4mpl_5bool_ILb1EEE, symObjAddr: 0xDAEC, symBinAddr: 0x100010C50, symSize: 0x48 }
  - { offsetInCU: 0x16230, offset: 0x16230, size: 0x8, addend: 0x0, symName: __ZN5boost6detail7variant27visitation_impl_invoke_implINS1_14invoke_visitorINS1_11get_visitorIfEELb0EEEPvbEENT_11result_typeEiRS8_T0_PT1_N4mpl_5bool_ILb1EEE, symObjAddr: 0xDBA4, symBinAddr: 0x100010D08, symSize: 0x48 }
  - { offsetInCU: 0x162A3, offset: 0x162A3, size: 0x8, addend: 0x0, symName: __ZN5boost6detail7variant27visitation_impl_invoke_implINS1_14invoke_visitorINS1_11get_visitorIfEELb0EEEPvNSt3__112basic_stringIcNS8_11char_traitsIcEENS8_9allocatorIcEEEEEENT_11result_typeEiRSF_T0_PT1_N4mpl_5bool_ILb1EEE, symObjAddr: 0xDC38, symBinAddr: 0x100010D9C, symSize: 0x48 }
  - { offsetInCU: 0x16317, offset: 0x16317, size: 0x8, addend: 0x0, symName: __ZN5boost6detail7variant13forced_returnIPfEET_v, symObjAddr: 0xDCCC, symBinAddr: 0x100010E30, symSize: 0x2C }
  - { offsetInCU: 0x163B5, offset: 0x163B5, size: 0x8, addend: 0x0, symName: __ZN5boost6detail7variant22visitation_impl_invokeINS1_14invoke_visitorINS1_11get_visitorIbEELb0EEEPviNS_7variantIiJfbNSt3__112basic_stringIcNS9_11char_traitsIcEENS9_9allocatorIcEEEEEE18has_fallback_type_EEENT_11result_typeEiRSI_T0_PT1_T2_i, symObjAddr: 0xE1DC, symBinAddr: 0x100011340, symSize: 0x40 }
  - { offsetInCU: 0x16443, offset: 0x16443, size: 0x8, addend: 0x0, symName: __ZN5boost6detail7variant22visitation_impl_invokeINS1_14invoke_visitorINS1_11get_visitorIbEELb0EEEPvfNS_7variantIiJfbNSt3__112basic_stringIcNS9_11char_traitsIcEENS9_9allocatorIcEEEEEE18has_fallback_type_EEENT_11result_typeEiRSI_T0_PT1_T2_i, symObjAddr: 0xE21C, symBinAddr: 0x100011380, symSize: 0x40 }
  - { offsetInCU: 0x164D1, offset: 0x164D1, size: 0x8, addend: 0x0, symName: __ZN5boost6detail7variant22visitation_impl_invokeINS1_14invoke_visitorINS1_11get_visitorIbEELb0EEEPvbNS_7variantIiJfbNSt3__112basic_stringIcNS9_11char_traitsIcEENS9_9allocatorIcEEEEEE18has_fallback_type_EEENT_11result_typeEiRSI_T0_PT1_T2_i, symObjAddr: 0xE25C, symBinAddr: 0x1000113C0, symSize: 0x40 }
  - { offsetInCU: 0x1655F, offset: 0x1655F, size: 0x8, addend: 0x0, symName: __ZN5boost6detail7variant22visitation_impl_invokeINS1_14invoke_visitorINS1_11get_visitorIbEELb0EEEPvNSt3__112basic_stringIcNS8_11char_traitsIcEENS8_9allocatorIcEEEENS_7variantIiJfbSE_EE18has_fallback_type_EEENT_11result_typeEiRSI_T0_PT1_T2_i, symObjAddr: 0xE29C, symBinAddr: 0x100011400, symSize: 0x40 }
  - { offsetInCU: 0x165ED, offset: 0x165ED, size: 0x8, addend: 0x0, symName: __ZN5boost6detail7variant22visitation_impl_invokeINS1_14invoke_visitorINS1_11get_visitorIbEELb0EEEPvNS_7variantIiJfbNSt3__112basic_stringIcNS9_11char_traitsIcEENS9_9allocatorIcEEEEEE18has_fallback_type_EEENT_11result_typeEiRSI_T0_PNS1_22apply_visitor_unrolledET1_l, symObjAddr: 0xE2DC, symBinAddr: 0x100011440, symSize: 0x24 }
  - { offsetInCU: 0x16662, offset: 0x16662, size: 0x8, addend: 0x0, symName: __ZN5boost6detail7variant15visitation_implIN4mpl_4int_ILi20EEENS1_20visitation_impl_stepINS_3mpl6l_iterINS7_5l_endEEESA_EENS1_14invoke_visitorINS1_11get_visitorIbEELb0EEEPvNS_7variantIiJfbNSt3__112basic_stringIcNSI_11char_traitsIcEENSI_9allocatorIcEEEEEE18has_fallback_type_EEENT1_11result_typeEiiRSR_T2_NS3_5bool_ILb1EEET3_PT_PT0_, symObjAddr: 0xE300, symBinAddr: 0x100011464, symSize: 0x28 }
  - { offsetInCU: 0x166FD, offset: 0x166FD, size: 0x8, addend: 0x0, symName: __ZN5boost6detail7variant27visitation_impl_invoke_implINS1_14invoke_visitorINS1_11get_visitorIbEELb0EEEPviEENT_11result_typeEiRS8_T0_PT1_N4mpl_5bool_ILb1EEE, symObjAddr: 0xE328, symBinAddr: 0x10001148C, symSize: 0x48 }
  - { offsetInCU: 0x16770, offset: 0x16770, size: 0x8, addend: 0x0, symName: __ZN5boost6detail7variant27visitation_impl_invoke_implINS1_14invoke_visitorINS1_11get_visitorIbEELb0EEEPvfEENT_11result_typeEiRS8_T0_PT1_N4mpl_5bool_ILb1EEE, symObjAddr: 0xE3BC, symBinAddr: 0x100011520, symSize: 0x48 }
  - { offsetInCU: 0x167E3, offset: 0x167E3, size: 0x8, addend: 0x0, symName: __ZN5boost6detail7variant27visitation_impl_invoke_implINS1_14invoke_visitorINS1_11get_visitorIbEELb0EEEPvbEENT_11result_typeEiRS8_T0_PT1_N4mpl_5bool_ILb1EEE, symObjAddr: 0xE450, symBinAddr: 0x1000115B4, symSize: 0x48 }
  - { offsetInCU: 0x16856, offset: 0x16856, size: 0x8, addend: 0x0, symName: __ZN5boost6detail7variant27visitation_impl_invoke_implINS1_14invoke_visitorINS1_11get_visitorIbEELb0EEEPvNSt3__112basic_stringIcNS8_11char_traitsIcEENS8_9allocatorIcEEEEEENT_11result_typeEiRSF_T0_PT1_N4mpl_5bool_ILb1EEE, symObjAddr: 0xE508, symBinAddr: 0x10001166C, symSize: 0x48 }
  - { offsetInCU: 0x168CA, offset: 0x168CA, size: 0x8, addend: 0x0, symName: __ZN5boost6detail7variant13forced_returnIPbEET_v, symObjAddr: 0xE59C, symBinAddr: 0x100011700, symSize: 0x2C }
  - { offsetInCU: 0x169E0, offset: 0x169E0, size: 0x8, addend: 0x0, symName: __ZN5boost6detail7variant22visitation_impl_invokeINS1_12move_storageEPviNS_7variantIiJfbNSt3__112basic_stringIcNS6_11char_traitsIcEENS6_9allocatorIcEEEEEE18has_fallback_type_EEENT_11result_typeEiRSF_T0_PT1_T2_i, symObjAddr: 0xF390, symBinAddr: 0x1000124F4, symSize: 0x40 }
  - { offsetInCU: 0x16A6E, offset: 0x16A6E, size: 0x8, addend: 0x0, symName: __ZN5boost6detail7variant22visitation_impl_invokeINS1_12move_storageEPvfNS_7variantIiJfbNSt3__112basic_stringIcNS6_11char_traitsIcEENS6_9allocatorIcEEEEEE18has_fallback_type_EEENT_11result_typeEiRSF_T0_PT1_T2_i, symObjAddr: 0xF3D0, symBinAddr: 0x100012534, symSize: 0x40 }
  - { offsetInCU: 0x16AFC, offset: 0x16AFC, size: 0x8, addend: 0x0, symName: __ZN5boost6detail7variant22visitation_impl_invokeINS1_12move_storageEPvbNS_7variantIiJfbNSt3__112basic_stringIcNS6_11char_traitsIcEENS6_9allocatorIcEEEEEE18has_fallback_type_EEENT_11result_typeEiRSF_T0_PT1_T2_i, symObjAddr: 0xF410, symBinAddr: 0x100012574, symSize: 0x40 }
  - { offsetInCU: 0x16B8A, offset: 0x16B8A, size: 0x8, addend: 0x0, symName: __ZN5boost6detail7variant22visitation_impl_invokeINS1_12move_storageEPvNSt3__112basic_stringIcNS5_11char_traitsIcEENS5_9allocatorIcEEEENS_7variantIiJfbSB_EE18has_fallback_type_EEENT_11result_typeEiRSF_T0_PT1_T2_i, symObjAddr: 0xF450, symBinAddr: 0x1000125B4, symSize: 0x40 }
  - { offsetInCU: 0x16C18, offset: 0x16C18, size: 0x8, addend: 0x0, symName: __ZN5boost6detail7variant22visitation_impl_invokeINS1_12move_storageEPvNS_7variantIiJfbNSt3__112basic_stringIcNS6_11char_traitsIcEENS6_9allocatorIcEEEEEE18has_fallback_type_EEENT_11result_typeEiRSF_T0_PNS1_22apply_visitor_unrolledET1_l, symObjAddr: 0xF490, symBinAddr: 0x1000125F4, symSize: 0x24 }
  - { offsetInCU: 0x16C8D, offset: 0x16C8D, size: 0x8, addend: 0x0, symName: __ZN5boost6detail7variant15visitation_implIN4mpl_4int_ILi20EEENS1_20visitation_impl_stepINS_3mpl6l_iterINS7_5l_endEEESA_EENS1_12move_storageEPvNS_7variantIiJfbNSt3__112basic_stringIcNSF_11char_traitsIcEENSF_9allocatorIcEEEEEE18has_fallback_type_EEENT1_11result_typeEiiRSO_T2_NS3_5bool_ILb1EEET3_PT_PT0_, symObjAddr: 0xF4B4, symBinAddr: 0x100012618, symSize: 0x28 }
  - { offsetInCU: 0x16D28, offset: 0x16D28, size: 0x8, addend: 0x0, symName: __ZN5boost6detail7variant27visitation_impl_invoke_implINS1_12move_storageEPviEENT_11result_typeEiRS5_T0_PT1_N4mpl_5bool_ILb1EEE, symObjAddr: 0xF4DC, symBinAddr: 0x100012640, symSize: 0x48 }
  - { offsetInCU: 0x16D9B, offset: 0x16D9B, size: 0x8, addend: 0x0, symName: __ZN5boost6detail7variant27visitation_impl_invoke_implINS1_12move_storageEPvfEENT_11result_typeEiRS5_T0_PT1_N4mpl_5bool_ILb1EEE, symObjAddr: 0xF550, symBinAddr: 0x1000126B4, symSize: 0x48 }
  - { offsetInCU: 0x16E0E, offset: 0x16E0E, size: 0x8, addend: 0x0, symName: __ZN5boost6detail7variant27visitation_impl_invoke_implINS1_12move_storageEPvbEENT_11result_typeEiRS5_T0_PT1_N4mpl_5bool_ILb1EEE, symObjAddr: 0xF5C4, symBinAddr: 0x100012728, symSize: 0x48 }
  - { offsetInCU: 0x16E81, offset: 0x16E81, size: 0x8, addend: 0x0, symName: __ZN5boost6detail7variant27visitation_impl_invoke_implINS1_12move_storageEPvNSt3__112basic_stringIcNS5_11char_traitsIcEENS5_9allocatorIcEEEEEENT_11result_typeEiRSC_T0_PT1_N4mpl_5bool_ILb1EEE, symObjAddr: 0xF63C, symBinAddr: 0x1000127A0, symSize: 0x48 }
  - { offsetInCU: 0x16EF4, offset: 0x16EF4, size: 0x8, addend: 0x0, symName: __ZN5boost6detail7variant22visitation_impl_invokeINS_7variantIiJfbNSt3__112basic_stringIcNS4_11char_traitsIcEENS4_9allocatorIcEEEEEE13move_assignerEPviNSB_18has_fallback_type_EEENT_11result_typeEiRSF_T0_PT1_T2_i, symObjAddr: 0xFA80, symBinAddr: 0x100012BE4, symSize: 0x40 }
  - { offsetInCU: 0x16F82, offset: 0x16F82, size: 0x8, addend: 0x0, symName: __ZN5boost6detail7variant22visitation_impl_invokeINS_7variantIiJfbNSt3__112basic_stringIcNS4_11char_traitsIcEENS4_9allocatorIcEEEEEE13move_assignerEPvfNSB_18has_fallback_type_EEENT_11result_typeEiRSF_T0_PT1_T2_i, symObjAddr: 0xFAC0, symBinAddr: 0x100012C24, symSize: 0x40 }
  - { offsetInCU: 0x17010, offset: 0x17010, size: 0x8, addend: 0x0, symName: __ZN5boost6detail7variant22visitation_impl_invokeINS_7variantIiJfbNSt3__112basic_stringIcNS4_11char_traitsIcEENS4_9allocatorIcEEEEEE13move_assignerEPvbNSB_18has_fallback_type_EEENT_11result_typeEiRSF_T0_PT1_T2_i, symObjAddr: 0xFB00, symBinAddr: 0x100012C64, symSize: 0x40 }
  - { offsetInCU: 0x1709E, offset: 0x1709E, size: 0x8, addend: 0x0, symName: __ZN5boost6detail7variant22visitation_impl_invokeINS_7variantIiJfbNSt3__112basic_stringIcNS4_11char_traitsIcEENS4_9allocatorIcEEEEEE13move_assignerEPvSA_NSB_18has_fallback_type_EEENT_11result_typeEiRSF_T0_PT1_T2_i, symObjAddr: 0xFB40, symBinAddr: 0x100012CA4, symSize: 0x40 }
  - { offsetInCU: 0x1712C, offset: 0x1712C, size: 0x8, addend: 0x0, symName: __ZN5boost6detail7variant22visitation_impl_invokeINS_7variantIiJfbNSt3__112basic_stringIcNS4_11char_traitsIcEENS4_9allocatorIcEEEEEE13move_assignerEPvNSB_18has_fallback_type_EEENT_11result_typeEiRSF_T0_PNS1_22apply_visitor_unrolledET1_l, symObjAddr: 0xFB80, symBinAddr: 0x100012CE4, symSize: 0x24 }
  - { offsetInCU: 0x171A1, offset: 0x171A1, size: 0x8, addend: 0x0, symName: __ZN5boost6detail7variant15visitation_implIN4mpl_4int_ILi20EEENS1_20visitation_impl_stepINS_3mpl6l_iterINS7_5l_endEEESA_EENS_7variantIiJfbNSt3__112basic_stringIcNSD_11char_traitsIcEENSD_9allocatorIcEEEEEE13move_assignerEPvNSK_18has_fallback_type_EEENT1_11result_typeEiiRSO_T2_NS3_5bool_ILb1EEET3_PT_PT0_, symObjAddr: 0xFBA4, symBinAddr: 0x100012D08, symSize: 0x28 }
  - { offsetInCU: 0x1723C, offset: 0x1723C, size: 0x8, addend: 0x0, symName: __ZN5boost6detail7variant27visitation_impl_invoke_implINS_7variantIiJfbNSt3__112basic_stringIcNS4_11char_traitsIcEENS4_9allocatorIcEEEEEE13move_assignerEPviEENT_11result_typeEiRSE_T0_PT1_N4mpl_5bool_ILb1EEE, symObjAddr: 0xFBCC, symBinAddr: 0x100012D30, symSize: 0x48 }
  - { offsetInCU: 0x172AF, offset: 0x172AF, size: 0x8, addend: 0x0, symName: __ZN5boost6detail7variant27visitation_impl_invoke_implINS_7variantIiJfbNSt3__112basic_stringIcNS4_11char_traitsIcEENS4_9allocatorIcEEEEEE13move_assignerEPvfEENT_11result_typeEiRSE_T0_PT1_N4mpl_5bool_ILb1EEE, symObjAddr: 0xFCC8, symBinAddr: 0x100012E2C, symSize: 0x48 }
  - { offsetInCU: 0x17322, offset: 0x17322, size: 0x8, addend: 0x0, symName: __ZN5boost6detail7variant27visitation_impl_invoke_implINS_7variantIiJfbNSt3__112basic_stringIcNS4_11char_traitsIcEENS4_9allocatorIcEEEEEE13move_assignerEPvbEENT_11result_typeEiRSE_T0_PT1_N4mpl_5bool_ILb1EEE, symObjAddr: 0xFDC4, symBinAddr: 0x100012F28, symSize: 0x48 }
  - { offsetInCU: 0x17395, offset: 0x17395, size: 0x8, addend: 0x0, symName: __ZN5boost6detail7variant27visitation_impl_invoke_implINS_7variantIiJfbNSt3__112basic_stringIcNS4_11char_traitsIcEENS4_9allocatorIcEEEEEE13move_assignerEPvSA_EENT_11result_typeEiRSE_T0_PT1_N4mpl_5bool_ILb1EEE, symObjAddr: 0xFEC4, symBinAddr: 0x100013028, symSize: 0x48 }
  - { offsetInCU: 0x17480, offset: 0x17480, size: 0x8, addend: 0x0, symName: __ZN5boost6detail7variant22visitation_impl_invokeINS1_14invoke_visitorINS1_8comparerINS_7variantIiJfbNSt3__112basic_stringIcNS6_11char_traitsIcEENS6_9allocatorIcEEEEEEENS1_10equal_compEEELb0EEEPKviNSD_18has_fallback_type_EEENT_11result_typeEiRSK_T0_PT1_T2_i, symObjAddr: 0x1051C, symBinAddr: 0x100013680, symSize: 0x44 }
  - { offsetInCU: 0x1750E, offset: 0x1750E, size: 0x8, addend: 0x0, symName: __ZN5boost6detail7variant22visitation_impl_invokeINS1_14invoke_visitorINS1_8comparerINS_7variantIiJfbNSt3__112basic_stringIcNS6_11char_traitsIcEENS6_9allocatorIcEEEEEEENS1_10equal_compEEELb0EEEPKvfNSD_18has_fallback_type_EEENT_11result_typeEiRSK_T0_PT1_T2_i, symObjAddr: 0x10560, symBinAddr: 0x1000136C4, symSize: 0x44 }
  - { offsetInCU: 0x1759C, offset: 0x1759C, size: 0x8, addend: 0x0, symName: __ZN5boost6detail7variant22visitation_impl_invokeINS1_14invoke_visitorINS1_8comparerINS_7variantIiJfbNSt3__112basic_stringIcNS6_11char_traitsIcEENS6_9allocatorIcEEEEEEENS1_10equal_compEEELb0EEEPKvbNSD_18has_fallback_type_EEENT_11result_typeEiRSK_T0_PT1_T2_i, symObjAddr: 0x105A4, symBinAddr: 0x100013708, symSize: 0x44 }
  - { offsetInCU: 0x1762A, offset: 0x1762A, size: 0x8, addend: 0x0, symName: __ZN5boost6detail7variant22visitation_impl_invokeINS1_14invoke_visitorINS1_8comparerINS_7variantIiJfbNSt3__112basic_stringIcNS6_11char_traitsIcEENS6_9allocatorIcEEEEEEENS1_10equal_compEEELb0EEEPKvSC_NSD_18has_fallback_type_EEENT_11result_typeEiRSK_T0_PT1_T2_i, symObjAddr: 0x105E8, symBinAddr: 0x10001374C, symSize: 0x44 }
  - { offsetInCU: 0x176B8, offset: 0x176B8, size: 0x8, addend: 0x0, symName: __ZN5boost6detail7variant22visitation_impl_invokeINS1_14invoke_visitorINS1_8comparerINS_7variantIiJfbNSt3__112basic_stringIcNS6_11char_traitsIcEENS6_9allocatorIcEEEEEEENS1_10equal_compEEELb0EEEPKvNSD_18has_fallback_type_EEENT_11result_typeEiRSK_T0_PNS1_22apply_visitor_unrolledET1_l, symObjAddr: 0x1062C, symBinAddr: 0x100013790, symSize: 0x24 }
  - { offsetInCU: 0x1772D, offset: 0x1772D, size: 0x8, addend: 0x0, symName: __ZN5boost6detail7variant15visitation_implIN4mpl_4int_ILi20EEENS1_20visitation_impl_stepINS_3mpl6l_iterINS7_5l_endEEESA_EENS1_14invoke_visitorINS1_8comparerINS_7variantIiJfbNSt3__112basic_stringIcNSF_11char_traitsIcEENSF_9allocatorIcEEEEEEENS1_10equal_compEEELb0EEEPKvNSM_18has_fallback_type_EEENT1_11result_typeEiiRST_T2_NS3_5bool_ILb1EEET3_PT_PT0_, symObjAddr: 0x10650, symBinAddr: 0x1000137B4, symSize: 0x28 }
  - { offsetInCU: 0x177C8, offset: 0x177C8, size: 0x8, addend: 0x0, symName: __ZN5boost6detail7variant27visitation_impl_invoke_implINS1_14invoke_visitorINS1_8comparerINS_7variantIiJfbNSt3__112basic_stringIcNS6_11char_traitsIcEENS6_9allocatorIcEEEEEEENS1_10equal_compEEELb0EEEPKviEENT_11result_typeEiRSJ_T0_PT1_N4mpl_5bool_ILb1EEE, symObjAddr: 0x10678, symBinAddr: 0x1000137DC, symSize: 0x4C }
  - { offsetInCU: 0x178B3, offset: 0x178B3, size: 0x8, addend: 0x0, symName: __ZN5boost6detail7variant22visitation_impl_invokeINS1_14invoke_visitorINS1_9known_getIKiEELb0EEEPKviNS_7variantIiJfbNSt3__112basic_stringIcNSB_11char_traitsIcEENSB_9allocatorIcEEEEEE18has_fallback_type_EEENT_11result_typeEiRSK_T0_PT1_T2_i, symObjAddr: 0x10BD8, symBinAddr: 0x100013D3C, symSize: 0x40 }
  - { offsetInCU: 0x17941, offset: 0x17941, size: 0x8, addend: 0x0, symName: __ZN5boost6detail7variant22visitation_impl_invokeINS1_14invoke_visitorINS1_9known_getIKiEELb0EEEPKvfNS_7variantIiJfbNSt3__112basic_stringIcNSB_11char_traitsIcEENSB_9allocatorIcEEEEEE18has_fallback_type_EEENT_11result_typeEiRSK_T0_PT1_T2_i, symObjAddr: 0x10C18, symBinAddr: 0x100013D7C, symSize: 0x40 }
  - { offsetInCU: 0x179CF, offset: 0x179CF, size: 0x8, addend: 0x0, symName: __ZN5boost6detail7variant22visitation_impl_invokeINS1_14invoke_visitorINS1_9known_getIKiEELb0EEEPKvbNS_7variantIiJfbNSt3__112basic_stringIcNSB_11char_traitsIcEENSB_9allocatorIcEEEEEE18has_fallback_type_EEENT_11result_typeEiRSK_T0_PT1_T2_i, symObjAddr: 0x10C58, symBinAddr: 0x100013DBC, symSize: 0x40 }
  - { offsetInCU: 0x17A5D, offset: 0x17A5D, size: 0x8, addend: 0x0, symName: __ZN5boost6detail7variant22visitation_impl_invokeINS1_14invoke_visitorINS1_9known_getIKiEELb0EEEPKvNSt3__112basic_stringIcNSA_11char_traitsIcEENSA_9allocatorIcEEEENS_7variantIiJfbSG_EE18has_fallback_type_EEENT_11result_typeEiRSK_T0_PT1_T2_i, symObjAddr: 0x10C98, symBinAddr: 0x100013DFC, symSize: 0x40 }
  - { offsetInCU: 0x17AEB, offset: 0x17AEB, size: 0x8, addend: 0x0, symName: __ZN5boost6detail7variant22visitation_impl_invokeINS1_14invoke_visitorINS1_9known_getIKiEELb0EEEPKvNS_7variantIiJfbNSt3__112basic_stringIcNSB_11char_traitsIcEENSB_9allocatorIcEEEEEE18has_fallback_type_EEENT_11result_typeEiRSK_T0_PNS1_22apply_visitor_unrolledET1_l, symObjAddr: 0x10CD8, symBinAddr: 0x100013E3C, symSize: 0x24 }
  - { offsetInCU: 0x17B60, offset: 0x17B60, size: 0x8, addend: 0x0, symName: __ZN5boost6detail7variant15visitation_implIN4mpl_4int_ILi20EEENS1_20visitation_impl_stepINS_3mpl6l_iterINS7_5l_endEEESA_EENS1_14invoke_visitorINS1_9known_getIKiEELb0EEEPKvNS_7variantIiJfbNSt3__112basic_stringIcNSK_11char_traitsIcEENSK_9allocatorIcEEEEEE18has_fallback_type_EEENT1_11result_typeEiiRST_T2_NS3_5bool_ILb1EEET3_PT_PT0_, symObjAddr: 0x10CFC, symBinAddr: 0x100013E60, symSize: 0x28 }
  - { offsetInCU: 0x17BFB, offset: 0x17BFB, size: 0x8, addend: 0x0, symName: __ZN5boost6detail7variant27visitation_impl_invoke_implINS1_14invoke_visitorINS1_9known_getIKiEELb0EEEPKviEENT_11result_typeEiRSA_T0_PT1_N4mpl_5bool_ILb1EEE, symObjAddr: 0x10D24, symBinAddr: 0x100013E88, symSize: 0x48 }
  - { offsetInCU: 0x17C6E, offset: 0x17C6E, size: 0x8, addend: 0x0, symName: __ZN5boost6detail7variant27visitation_impl_invoke_implINS1_14invoke_visitorINS1_9known_getIKiEELb0EEEPKvfEENT_11result_typeEiRSA_T0_PT1_N4mpl_5bool_ILb1EEE, symObjAddr: 0x10DB8, symBinAddr: 0x100013F1C, symSize: 0x48 }
  - { offsetInCU: 0x17CE2, offset: 0x17CE2, size: 0x8, addend: 0x0, symName: __ZN5boost6detail7variant13forced_returnIRKiEET_v, symObjAddr: 0x10E4C, symBinAddr: 0x100013FB0, symSize: 0x2C }
  - { offsetInCU: 0x17D08, offset: 0x17D08, size: 0x8, addend: 0x0, symName: __ZN5boost6detail7variant27visitation_impl_invoke_implINS1_14invoke_visitorINS1_9known_getIKiEELb0EEEPKvbEENT_11result_typeEiRSA_T0_PT1_N4mpl_5bool_ILb1EEE, symObjAddr: 0x10E78, symBinAddr: 0x100013FDC, symSize: 0x48 }
  - { offsetInCU: 0x17D7B, offset: 0x17D7B, size: 0x8, addend: 0x0, symName: __ZN5boost6detail7variant27visitation_impl_invoke_implINS1_14invoke_visitorINS1_9known_getIKiEELb0EEEPKvNSt3__112basic_stringIcNSA_11char_traitsIcEENSA_9allocatorIcEEEEEENT_11result_typeEiRSH_T0_PT1_N4mpl_5bool_ILb1EEE, symObjAddr: 0x10F0C, symBinAddr: 0x100014070, symSize: 0x48 }
  - { offsetInCU: 0x17DEE, offset: 0x17DEE, size: 0x8, addend: 0x0, symName: __ZN5boost6detail7variant27visitation_impl_invoke_implINS1_14invoke_visitorINS1_8comparerINS_7variantIiJfbNSt3__112basic_stringIcNS6_11char_traitsIcEENS6_9allocatorIcEEEEEEENS1_10equal_compEEELb0EEEPKvfEENT_11result_typeEiRSJ_T0_PT1_N4mpl_5bool_ILb1EEE, symObjAddr: 0x10FA0, symBinAddr: 0x100014104, symSize: 0x4C }
  - { offsetInCU: 0x17ED9, offset: 0x17ED9, size: 0x8, addend: 0x0, symName: __ZN5boost6detail7variant22visitation_impl_invokeINS1_14invoke_visitorINS1_9known_getIKfEELb0EEEPKviNS_7variantIiJfbNSt3__112basic_stringIcNSB_11char_traitsIcEENSB_9allocatorIcEEEEEE18has_fallback_type_EEENT_11result_typeEiRSK_T0_PT1_T2_i, symObjAddr: 0x11500, symBinAddr: 0x100014664, symSize: 0x40 }
  - { offsetInCU: 0x17F67, offset: 0x17F67, size: 0x8, addend: 0x0, symName: __ZN5boost6detail7variant22visitation_impl_invokeINS1_14invoke_visitorINS1_9known_getIKfEELb0EEEPKvfNS_7variantIiJfbNSt3__112basic_stringIcNSB_11char_traitsIcEENSB_9allocatorIcEEEEEE18has_fallback_type_EEENT_11result_typeEiRSK_T0_PT1_T2_i, symObjAddr: 0x11540, symBinAddr: 0x1000146A4, symSize: 0x40 }
  - { offsetInCU: 0x17FF5, offset: 0x17FF5, size: 0x8, addend: 0x0, symName: __ZN5boost6detail7variant22visitation_impl_invokeINS1_14invoke_visitorINS1_9known_getIKfEELb0EEEPKvbNS_7variantIiJfbNSt3__112basic_stringIcNSB_11char_traitsIcEENSB_9allocatorIcEEEEEE18has_fallback_type_EEENT_11result_typeEiRSK_T0_PT1_T2_i, symObjAddr: 0x11580, symBinAddr: 0x1000146E4, symSize: 0x40 }
  - { offsetInCU: 0x18083, offset: 0x18083, size: 0x8, addend: 0x0, symName: __ZN5boost6detail7variant22visitation_impl_invokeINS1_14invoke_visitorINS1_9known_getIKfEELb0EEEPKvNSt3__112basic_stringIcNSA_11char_traitsIcEENSA_9allocatorIcEEEENS_7variantIiJfbSG_EE18has_fallback_type_EEENT_11result_typeEiRSK_T0_PT1_T2_i, symObjAddr: 0x115C0, symBinAddr: 0x100014724, symSize: 0x40 }
  - { offsetInCU: 0x18111, offset: 0x18111, size: 0x8, addend: 0x0, symName: __ZN5boost6detail7variant22visitation_impl_invokeINS1_14invoke_visitorINS1_9known_getIKfEELb0EEEPKvNS_7variantIiJfbNSt3__112basic_stringIcNSB_11char_traitsIcEENSB_9allocatorIcEEEEEE18has_fallback_type_EEENT_11result_typeEiRSK_T0_PNS1_22apply_visitor_unrolledET1_l, symObjAddr: 0x11600, symBinAddr: 0x100014764, symSize: 0x24 }
  - { offsetInCU: 0x18186, offset: 0x18186, size: 0x8, addend: 0x0, symName: __ZN5boost6detail7variant15visitation_implIN4mpl_4int_ILi20EEENS1_20visitation_impl_stepINS_3mpl6l_iterINS7_5l_endEEESA_EENS1_14invoke_visitorINS1_9known_getIKfEELb0EEEPKvNS_7variantIiJfbNSt3__112basic_stringIcNSK_11char_traitsIcEENSK_9allocatorIcEEEEEE18has_fallback_type_EEENT1_11result_typeEiiRST_T2_NS3_5bool_ILb1EEET3_PT_PT0_, symObjAddr: 0x11624, symBinAddr: 0x100014788, symSize: 0x28 }
  - { offsetInCU: 0x18221, offset: 0x18221, size: 0x8, addend: 0x0, symName: __ZN5boost6detail7variant27visitation_impl_invoke_implINS1_14invoke_visitorINS1_9known_getIKfEELb0EEEPKviEENT_11result_typeEiRSA_T0_PT1_N4mpl_5bool_ILb1EEE, symObjAddr: 0x1164C, symBinAddr: 0x1000147B0, symSize: 0x48 }
  - { offsetInCU: 0x18295, offset: 0x18295, size: 0x8, addend: 0x0, symName: __ZN5boost6detail7variant13forced_returnIRKfEET_v, symObjAddr: 0x116E0, symBinAddr: 0x100014844, symSize: 0x2C }
  - { offsetInCU: 0x182BB, offset: 0x182BB, size: 0x8, addend: 0x0, symName: __ZN5boost6detail7variant27visitation_impl_invoke_implINS1_14invoke_visitorINS1_9known_getIKfEELb0EEEPKvfEENT_11result_typeEiRSA_T0_PT1_N4mpl_5bool_ILb1EEE, symObjAddr: 0x1170C, symBinAddr: 0x100014870, symSize: 0x48 }
  - { offsetInCU: 0x1832E, offset: 0x1832E, size: 0x8, addend: 0x0, symName: __ZN5boost6detail7variant27visitation_impl_invoke_implINS1_14invoke_visitorINS1_9known_getIKfEELb0EEEPKvbEENT_11result_typeEiRSA_T0_PT1_N4mpl_5bool_ILb1EEE, symObjAddr: 0x117A0, symBinAddr: 0x100014904, symSize: 0x48 }
  - { offsetInCU: 0x183A1, offset: 0x183A1, size: 0x8, addend: 0x0, symName: __ZN5boost6detail7variant27visitation_impl_invoke_implINS1_14invoke_visitorINS1_9known_getIKfEELb0EEEPKvNSt3__112basic_stringIcNSA_11char_traitsIcEENSA_9allocatorIcEEEEEENT_11result_typeEiRSH_T0_PT1_N4mpl_5bool_ILb1EEE, symObjAddr: 0x11834, symBinAddr: 0x100014998, symSize: 0x48 }
  - { offsetInCU: 0x18414, offset: 0x18414, size: 0x8, addend: 0x0, symName: __ZN5boost6detail7variant27visitation_impl_invoke_implINS1_14invoke_visitorINS1_8comparerINS_7variantIiJfbNSt3__112basic_stringIcNS6_11char_traitsIcEENS6_9allocatorIcEEEEEEENS1_10equal_compEEELb0EEEPKvbEENT_11result_typeEiRSJ_T0_PT1_N4mpl_5bool_ILb1EEE, symObjAddr: 0x118C8, symBinAddr: 0x100014A2C, symSize: 0x4C }
  - { offsetInCU: 0x184FF, offset: 0x184FF, size: 0x8, addend: 0x0, symName: __ZN5boost6detail7variant22visitation_impl_invokeINS1_14invoke_visitorINS1_9known_getIKbEELb0EEEPKviNS_7variantIiJfbNSt3__112basic_stringIcNSB_11char_traitsIcEENSB_9allocatorIcEEEEEE18has_fallback_type_EEENT_11result_typeEiRSK_T0_PT1_T2_i, symObjAddr: 0x11E30, symBinAddr: 0x100014F94, symSize: 0x40 }
  - { offsetInCU: 0x1858D, offset: 0x1858D, size: 0x8, addend: 0x0, symName: __ZN5boost6detail7variant22visitation_impl_invokeINS1_14invoke_visitorINS1_9known_getIKbEELb0EEEPKvfNS_7variantIiJfbNSt3__112basic_stringIcNSB_11char_traitsIcEENSB_9allocatorIcEEEEEE18has_fallback_type_EEENT_11result_typeEiRSK_T0_PT1_T2_i, symObjAddr: 0x11E70, symBinAddr: 0x100014FD4, symSize: 0x40 }
  - { offsetInCU: 0x1861B, offset: 0x1861B, size: 0x8, addend: 0x0, symName: __ZN5boost6detail7variant22visitation_impl_invokeINS1_14invoke_visitorINS1_9known_getIKbEELb0EEEPKvbNS_7variantIiJfbNSt3__112basic_stringIcNSB_11char_traitsIcEENSB_9allocatorIcEEEEEE18has_fallback_type_EEENT_11result_typeEiRSK_T0_PT1_T2_i, symObjAddr: 0x11EB0, symBinAddr: 0x100015014, symSize: 0x40 }
  - { offsetInCU: 0x186A9, offset: 0x186A9, size: 0x8, addend: 0x0, symName: __ZN5boost6detail7variant22visitation_impl_invokeINS1_14invoke_visitorINS1_9known_getIKbEELb0EEEPKvNSt3__112basic_stringIcNSA_11char_traitsIcEENSA_9allocatorIcEEEENS_7variantIiJfbSG_EE18has_fallback_type_EEENT_11result_typeEiRSK_T0_PT1_T2_i, symObjAddr: 0x11EF0, symBinAddr: 0x100015054, symSize: 0x40 }
  - { offsetInCU: 0x18737, offset: 0x18737, size: 0x8, addend: 0x0, symName: __ZN5boost6detail7variant22visitation_impl_invokeINS1_14invoke_visitorINS1_9known_getIKbEELb0EEEPKvNS_7variantIiJfbNSt3__112basic_stringIcNSB_11char_traitsIcEENSB_9allocatorIcEEEEEE18has_fallback_type_EEENT_11result_typeEiRSK_T0_PNS1_22apply_visitor_unrolledET1_l, symObjAddr: 0x11F30, symBinAddr: 0x100015094, symSize: 0x24 }
  - { offsetInCU: 0x187AC, offset: 0x187AC, size: 0x8, addend: 0x0, symName: __ZN5boost6detail7variant15visitation_implIN4mpl_4int_ILi20EEENS1_20visitation_impl_stepINS_3mpl6l_iterINS7_5l_endEEESA_EENS1_14invoke_visitorINS1_9known_getIKbEELb0EEEPKvNS_7variantIiJfbNSt3__112basic_stringIcNSK_11char_traitsIcEENSK_9allocatorIcEEEEEE18has_fallback_type_EEENT1_11result_typeEiiRST_T2_NS3_5bool_ILb1EEET3_PT_PT0_, symObjAddr: 0x11F54, symBinAddr: 0x1000150B8, symSize: 0x28 }
  - { offsetInCU: 0x18847, offset: 0x18847, size: 0x8, addend: 0x0, symName: __ZN5boost6detail7variant27visitation_impl_invoke_implINS1_14invoke_visitorINS1_9known_getIKbEELb0EEEPKviEENT_11result_typeEiRSA_T0_PT1_N4mpl_5bool_ILb1EEE, symObjAddr: 0x11F7C, symBinAddr: 0x1000150E0, symSize: 0x48 }
  - { offsetInCU: 0x188BB, offset: 0x188BB, size: 0x8, addend: 0x0, symName: __ZN5boost6detail7variant13forced_returnIRKbEET_v, symObjAddr: 0x12010, symBinAddr: 0x100015174, symSize: 0x2C }
  - { offsetInCU: 0x188E1, offset: 0x188E1, size: 0x8, addend: 0x0, symName: __ZN5boost6detail7variant27visitation_impl_invoke_implINS1_14invoke_visitorINS1_9known_getIKbEELb0EEEPKvfEENT_11result_typeEiRSA_T0_PT1_N4mpl_5bool_ILb1EEE, symObjAddr: 0x1203C, symBinAddr: 0x1000151A0, symSize: 0x48 }
  - { offsetInCU: 0x18954, offset: 0x18954, size: 0x8, addend: 0x0, symName: __ZN5boost6detail7variant27visitation_impl_invoke_implINS1_14invoke_visitorINS1_9known_getIKbEELb0EEEPKvbEENT_11result_typeEiRSA_T0_PT1_N4mpl_5bool_ILb1EEE, symObjAddr: 0x120D0, symBinAddr: 0x100015234, symSize: 0x48 }
  - { offsetInCU: 0x189C7, offset: 0x189C7, size: 0x8, addend: 0x0, symName: __ZN5boost6detail7variant27visitation_impl_invoke_implINS1_14invoke_visitorINS1_9known_getIKbEELb0EEEPKvNSt3__112basic_stringIcNSA_11char_traitsIcEENSA_9allocatorIcEEEEEENT_11result_typeEiRSH_T0_PT1_N4mpl_5bool_ILb1EEE, symObjAddr: 0x12164, symBinAddr: 0x1000152C8, symSize: 0x48 }
  - { offsetInCU: 0x18A3A, offset: 0x18A3A, size: 0x8, addend: 0x0, symName: __ZN5boost6detail7variant27visitation_impl_invoke_implINS1_14invoke_visitorINS1_8comparerINS_7variantIiJfbNSt3__112basic_stringIcNS6_11char_traitsIcEENS6_9allocatorIcEEEEEEENS1_10equal_compEEELb0EEEPKvSC_EENT_11result_typeEiRSJ_T0_PT1_N4mpl_5bool_ILb1EEE, symObjAddr: 0x121F8, symBinAddr: 0x10001535C, symSize: 0x4C }
  - { offsetInCU: 0x18B25, offset: 0x18B25, size: 0x8, addend: 0x0, symName: __ZN5boost6detail7variant22visitation_impl_invokeINS1_14invoke_visitorINS1_9known_getIKNSt3__112basic_stringIcNS5_11char_traitsIcEENS5_9allocatorIcEEEEEELb0EEEPKviNS_7variantIiJfbSB_EE18has_fallback_type_EEENT_11result_typeEiRSK_T0_PT1_T2_i, symObjAddr: 0x12758, symBinAddr: 0x1000158BC, symSize: 0x40 }
  - { offsetInCU: 0x18BB3, offset: 0x18BB3, size: 0x8, addend: 0x0, symName: __ZN5boost6detail7variant22visitation_impl_invokeINS1_14invoke_visitorINS1_9known_getIKNSt3__112basic_stringIcNS5_11char_traitsIcEENS5_9allocatorIcEEEEEELb0EEEPKvfNS_7variantIiJfbSB_EE18has_fallback_type_EEENT_11result_typeEiRSK_T0_PT1_T2_i, symObjAddr: 0x12798, symBinAddr: 0x1000158FC, symSize: 0x40 }
  - { offsetInCU: 0x18C41, offset: 0x18C41, size: 0x8, addend: 0x0, symName: __ZN5boost6detail7variant22visitation_impl_invokeINS1_14invoke_visitorINS1_9known_getIKNSt3__112basic_stringIcNS5_11char_traitsIcEENS5_9allocatorIcEEEEEELb0EEEPKvbNS_7variantIiJfbSB_EE18has_fallback_type_EEENT_11result_typeEiRSK_T0_PT1_T2_i, symObjAddr: 0x127D8, symBinAddr: 0x10001593C, symSize: 0x40 }
  - { offsetInCU: 0x18CCF, offset: 0x18CCF, size: 0x8, addend: 0x0, symName: __ZN5boost6detail7variant22visitation_impl_invokeINS1_14invoke_visitorINS1_9known_getIKNSt3__112basic_stringIcNS5_11char_traitsIcEENS5_9allocatorIcEEEEEELb0EEEPKvSB_NS_7variantIiJfbSB_EE18has_fallback_type_EEENT_11result_typeEiRSK_T0_PT1_T2_i, symObjAddr: 0x12818, symBinAddr: 0x10001597C, symSize: 0x40 }
  - { offsetInCU: 0x18D5D, offset: 0x18D5D, size: 0x8, addend: 0x0, symName: __ZN5boost6detail7variant22visitation_impl_invokeINS1_14invoke_visitorINS1_9known_getIKNSt3__112basic_stringIcNS5_11char_traitsIcEENS5_9allocatorIcEEEEEELb0EEEPKvNS_7variantIiJfbSB_EE18has_fallback_type_EEENT_11result_typeEiRSK_T0_PNS1_22apply_visitor_unrolledET1_l, symObjAddr: 0x12858, symBinAddr: 0x1000159BC, symSize: 0x24 }
  - { offsetInCU: 0x18DD2, offset: 0x18DD2, size: 0x8, addend: 0x0, symName: __ZN5boost6detail7variant15visitation_implIN4mpl_4int_ILi20EEENS1_20visitation_impl_stepINS_3mpl6l_iterINS7_5l_endEEESA_EENS1_14invoke_visitorINS1_9known_getIKNSt3__112basic_stringIcNSE_11char_traitsIcEENSE_9allocatorIcEEEEEELb0EEEPKvNS_7variantIiJfbSK_EE18has_fallback_type_EEENT1_11result_typeEiiRST_T2_NS3_5bool_ILb1EEET3_PT_PT0_, symObjAddr: 0x1287C, symBinAddr: 0x1000159E0, symSize: 0x28 }
  - { offsetInCU: 0x18E6D, offset: 0x18E6D, size: 0x8, addend: 0x0, symName: __ZN5boost6detail7variant27visitation_impl_invoke_implINS1_14invoke_visitorINS1_9known_getIKNSt3__112basic_stringIcNS5_11char_traitsIcEENS5_9allocatorIcEEEEEELb0EEEPKviEENT_11result_typeEiRSH_T0_PT1_N4mpl_5bool_ILb1EEE, symObjAddr: 0x128A4, symBinAddr: 0x100015A08, symSize: 0x48 }
  - { offsetInCU: 0x18EE1, offset: 0x18EE1, size: 0x8, addend: 0x0, symName: __ZN5boost6detail7variant13forced_returnIRKNSt3__112basic_stringIcNS3_11char_traitsIcEENS3_9allocatorIcEEEEEET_v, symObjAddr: 0x12938, symBinAddr: 0x100015A9C, symSize: 0x2C }
  - { offsetInCU: 0x18F07, offset: 0x18F07, size: 0x8, addend: 0x0, symName: __ZN5boost6detail7variant27visitation_impl_invoke_implINS1_14invoke_visitorINS1_9known_getIKNSt3__112basic_stringIcNS5_11char_traitsIcEENS5_9allocatorIcEEEEEELb0EEEPKvfEENT_11result_typeEiRSH_T0_PT1_N4mpl_5bool_ILb1EEE, symObjAddr: 0x12964, symBinAddr: 0x100015AC8, symSize: 0x48 }
  - { offsetInCU: 0x18F7A, offset: 0x18F7A, size: 0x8, addend: 0x0, symName: __ZN5boost6detail7variant27visitation_impl_invoke_implINS1_14invoke_visitorINS1_9known_getIKNSt3__112basic_stringIcNS5_11char_traitsIcEENS5_9allocatorIcEEEEEELb0EEEPKvbEENT_11result_typeEiRSH_T0_PT1_N4mpl_5bool_ILb1EEE, symObjAddr: 0x129F8, symBinAddr: 0x100015B5C, symSize: 0x48 }
  - { offsetInCU: 0x18FED, offset: 0x18FED, size: 0x8, addend: 0x0, symName: __ZN5boost6detail7variant27visitation_impl_invoke_implINS1_14invoke_visitorINS1_9known_getIKNSt3__112basic_stringIcNS5_11char_traitsIcEENS5_9allocatorIcEEEEEELb0EEEPKvSB_EENT_11result_typeEiRSH_T0_PT1_N4mpl_5bool_ILb1EEE, symObjAddr: 0x12A8C, symBinAddr: 0x100015BF0, symSize: 0x48 }
  - { offsetInCU: 0x19061, offset: 0x19061, size: 0x8, addend: 0x0, symName: __ZN5boost6detail7variant13forced_returnIbEET_v, symObjAddr: 0x12C9C, symBinAddr: 0x100015E00, symSize: 0x2C }
  - { offsetInCU: 0x190FF, offset: 0x190FF, size: 0x8, addend: 0x0, symName: __ZN5boost6detail7variant22visitation_impl_invokeINS1_14invoke_visitorINS1_12direct_moverIbEELb0EEEPviNS_7variantIiJfbNSt3__112basic_stringIcNS9_11char_traitsIcEENS9_9allocatorIcEEEEEE18has_fallback_type_EEENT_11result_typeEiRSI_T0_PT1_T2_i, symObjAddr: 0x13304, symBinAddr: 0x100016468, symSize: 0x44 }
  - { offsetInCU: 0x1918D, offset: 0x1918D, size: 0x8, addend: 0x0, symName: __ZN5boost6detail7variant22visitation_impl_invokeINS1_14invoke_visitorINS1_12direct_moverIbEELb0EEEPvfNS_7variantIiJfbNSt3__112basic_stringIcNS9_11char_traitsIcEENS9_9allocatorIcEEEEEE18has_fallback_type_EEENT_11result_typeEiRSI_T0_PT1_T2_i, symObjAddr: 0x13348, symBinAddr: 0x1000164AC, symSize: 0x44 }
  - { offsetInCU: 0x1921B, offset: 0x1921B, size: 0x8, addend: 0x0, symName: __ZN5boost6detail7variant22visitation_impl_invokeINS1_14invoke_visitorINS1_12direct_moverIbEELb0EEEPvbNS_7variantIiJfbNSt3__112basic_stringIcNS9_11char_traitsIcEENS9_9allocatorIcEEEEEE18has_fallback_type_EEENT_11result_typeEiRSI_T0_PT1_T2_i, symObjAddr: 0x1338C, symBinAddr: 0x1000164F0, symSize: 0x44 }
  - { offsetInCU: 0x192A9, offset: 0x192A9, size: 0x8, addend: 0x0, symName: __ZN5boost6detail7variant22visitation_impl_invokeINS1_14invoke_visitorINS1_12direct_moverIbEELb0EEEPvNSt3__112basic_stringIcNS8_11char_traitsIcEENS8_9allocatorIcEEEENS_7variantIiJfbSE_EE18has_fallback_type_EEENT_11result_typeEiRSI_T0_PT1_T2_i, symObjAddr: 0x133D0, symBinAddr: 0x100016534, symSize: 0x44 }
  - { offsetInCU: 0x19337, offset: 0x19337, size: 0x8, addend: 0x0, symName: __ZN5boost6detail7variant22visitation_impl_invokeINS1_14invoke_visitorINS1_12direct_moverIbEELb0EEEPvNS_7variantIiJfbNSt3__112basic_stringIcNS9_11char_traitsIcEENS9_9allocatorIcEEEEEE18has_fallback_type_EEENT_11result_typeEiRSI_T0_PNS1_22apply_visitor_unrolledET1_l, symObjAddr: 0x13414, symBinAddr: 0x100016578, symSize: 0x24 }
  - { offsetInCU: 0x193AC, offset: 0x193AC, size: 0x8, addend: 0x0, symName: __ZN5boost6detail7variant15visitation_implIN4mpl_4int_ILi20EEENS1_20visitation_impl_stepINS_3mpl6l_iterINS7_5l_endEEESA_EENS1_14invoke_visitorINS1_12direct_moverIbEELb0EEEPvNS_7variantIiJfbNSt3__112basic_stringIcNSI_11char_traitsIcEENSI_9allocatorIcEEEEEE18has_fallback_type_EEENT1_11result_typeEiiRSR_T2_NS3_5bool_ILb1EEET3_PT_PT0_, symObjAddr: 0x13438, symBinAddr: 0x10001659C, symSize: 0x28 }
  - { offsetInCU: 0x19447, offset: 0x19447, size: 0x8, addend: 0x0, symName: __ZN5boost6detail7variant27visitation_impl_invoke_implINS1_14invoke_visitorINS1_12direct_moverIbEELb0EEEPviEENT_11result_typeEiRS8_T0_PT1_N4mpl_5bool_ILb1EEE, symObjAddr: 0x13460, symBinAddr: 0x1000165C4, symSize: 0x4C }
  - { offsetInCU: 0x194BA, offset: 0x194BA, size: 0x8, addend: 0x0, symName: __ZN5boost6detail7variant27visitation_impl_invoke_implINS1_14invoke_visitorINS1_12direct_moverIbEELb0EEEPvfEENT_11result_typeEiRS8_T0_PT1_N4mpl_5bool_ILb1EEE, symObjAddr: 0x13500, symBinAddr: 0x100016664, symSize: 0x4C }
  - { offsetInCU: 0x1952D, offset: 0x1952D, size: 0x8, addend: 0x0, symName: __ZN5boost6detail7variant27visitation_impl_invoke_implINS1_14invoke_visitorINS1_12direct_moverIbEELb0EEEPvbEENT_11result_typeEiRS8_T0_PT1_N4mpl_5bool_ILb1EEE, symObjAddr: 0x135A0, symBinAddr: 0x100016704, symSize: 0x4C }
  - { offsetInCU: 0x195A0, offset: 0x195A0, size: 0x8, addend: 0x0, symName: __ZN5boost6detail7variant27visitation_impl_invoke_implINS1_14invoke_visitorINS1_12direct_moverIbEELb0EEEPvNSt3__112basic_stringIcNS8_11char_traitsIcEENS8_9allocatorIcEEEEEENT_11result_typeEiRSF_T0_PT1_N4mpl_5bool_ILb1EEE, symObjAddr: 0x13658, symBinAddr: 0x1000167BC, symSize: 0x4C }
  - { offsetInCU: 0x19703, offset: 0x19703, size: 0x8, addend: 0x0, symName: __ZN5boost6detail7variant22visitation_impl_invokeINS1_14assign_storageEPviNS_7variantIiJfbNSt3__112basic_stringIcNS6_11char_traitsIcEENS6_9allocatorIcEEEEEE18has_fallback_type_EEENT_11result_typeEiRSF_T0_PT1_T2_i, symObjAddr: 0x13F0C, symBinAddr: 0x100017070, symSize: 0x40 }
  - { offsetInCU: 0x19791, offset: 0x19791, size: 0x8, addend: 0x0, symName: __ZN5boost6detail7variant22visitation_impl_invokeINS1_14assign_storageEPvfNS_7variantIiJfbNSt3__112basic_stringIcNS6_11char_traitsIcEENS6_9allocatorIcEEEEEE18has_fallback_type_EEENT_11result_typeEiRSF_T0_PT1_T2_i, symObjAddr: 0x13F4C, symBinAddr: 0x1000170B0, symSize: 0x40 }
  - { offsetInCU: 0x1981F, offset: 0x1981F, size: 0x8, addend: 0x0, symName: __ZN5boost6detail7variant22visitation_impl_invokeINS1_14assign_storageEPvbNS_7variantIiJfbNSt3__112basic_stringIcNS6_11char_traitsIcEENS6_9allocatorIcEEEEEE18has_fallback_type_EEENT_11result_typeEiRSF_T0_PT1_T2_i, symObjAddr: 0x13F8C, symBinAddr: 0x1000170F0, symSize: 0x40 }
  - { offsetInCU: 0x198AD, offset: 0x198AD, size: 0x8, addend: 0x0, symName: __ZN5boost6detail7variant22visitation_impl_invokeINS1_14assign_storageEPvNSt3__112basic_stringIcNS5_11char_traitsIcEENS5_9allocatorIcEEEENS_7variantIiJfbSB_EE18has_fallback_type_EEENT_11result_typeEiRSF_T0_PT1_T2_i, symObjAddr: 0x13FCC, symBinAddr: 0x100017130, symSize: 0x40 }
  - { offsetInCU: 0x1993B, offset: 0x1993B, size: 0x8, addend: 0x0, symName: __ZN5boost6detail7variant22visitation_impl_invokeINS1_14assign_storageEPvNS_7variantIiJfbNSt3__112basic_stringIcNS6_11char_traitsIcEENS6_9allocatorIcEEEEEE18has_fallback_type_EEENT_11result_typeEiRSF_T0_PNS1_22apply_visitor_unrolledET1_l, symObjAddr: 0x1400C, symBinAddr: 0x100017170, symSize: 0x24 }
  - { offsetInCU: 0x199B0, offset: 0x199B0, size: 0x8, addend: 0x0, symName: __ZN5boost6detail7variant15visitation_implIN4mpl_4int_ILi20EEENS1_20visitation_impl_stepINS_3mpl6l_iterINS7_5l_endEEESA_EENS1_14assign_storageEPvNS_7variantIiJfbNSt3__112basic_stringIcNSF_11char_traitsIcEENSF_9allocatorIcEEEEEE18has_fallback_type_EEENT1_11result_typeEiiRSO_T2_NS3_5bool_ILb1EEET3_PT_PT0_, symObjAddr: 0x14030, symBinAddr: 0x100017194, symSize: 0x28 }
  - { offsetInCU: 0x19A4B, offset: 0x19A4B, size: 0x8, addend: 0x0, symName: __ZN5boost6detail7variant27visitation_impl_invoke_implINS1_14assign_storageEPviEENT_11result_typeEiRS5_T0_PT1_N4mpl_5bool_ILb1EEE, symObjAddr: 0x14058, symBinAddr: 0x1000171BC, symSize: 0x48 }
  - { offsetInCU: 0x19ABE, offset: 0x19ABE, size: 0x8, addend: 0x0, symName: __ZN5boost6detail7variant27visitation_impl_invoke_implINS1_14assign_storageEPvfEENT_11result_typeEiRS5_T0_PT1_N4mpl_5bool_ILb1EEE, symObjAddr: 0x140CC, symBinAddr: 0x100017230, symSize: 0x48 }
  - { offsetInCU: 0x19B31, offset: 0x19B31, size: 0x8, addend: 0x0, symName: __ZN5boost6detail7variant27visitation_impl_invoke_implINS1_14assign_storageEPvbEENT_11result_typeEiRS5_T0_PT1_N4mpl_5bool_ILb1EEE, symObjAddr: 0x14140, symBinAddr: 0x1000172A4, symSize: 0x48 }
  - { offsetInCU: 0x19BA4, offset: 0x19BA4, size: 0x8, addend: 0x0, symName: __ZN5boost6detail7variant27visitation_impl_invoke_implINS1_14assign_storageEPvNSt3__112basic_stringIcNS5_11char_traitsIcEENS5_9allocatorIcEEEEEENT_11result_typeEiRSC_T0_PT1_N4mpl_5bool_ILb1EEE, symObjAddr: 0x141B8, symBinAddr: 0x10001731C, symSize: 0x48 }
  - { offsetInCU: 0x19C17, offset: 0x19C17, size: 0x8, addend: 0x0, symName: __ZN5boost6detail7variant22visitation_impl_invokeINS_7variantIiJfbNSt3__112basic_stringIcNS4_11char_traitsIcEENS4_9allocatorIcEEEEEE8assignerEPKviNSB_18has_fallback_type_EEENT_11result_typeEiRSG_T0_PT1_T2_i, symObjAddr: 0x14234, symBinAddr: 0x100017398, symSize: 0x40 }
  - { offsetInCU: 0x19CA5, offset: 0x19CA5, size: 0x8, addend: 0x0, symName: __ZN5boost6detail7variant22visitation_impl_invokeINS_7variantIiJfbNSt3__112basic_stringIcNS4_11char_traitsIcEENS4_9allocatorIcEEEEEE8assignerEPKvfNSB_18has_fallback_type_EEENT_11result_typeEiRSG_T0_PT1_T2_i, symObjAddr: 0x14274, symBinAddr: 0x1000173D8, symSize: 0x40 }
  - { offsetInCU: 0x19D33, offset: 0x19D33, size: 0x8, addend: 0x0, symName: __ZN5boost6detail7variant22visitation_impl_invokeINS_7variantIiJfbNSt3__112basic_stringIcNS4_11char_traitsIcEENS4_9allocatorIcEEEEEE8assignerEPKvbNSB_18has_fallback_type_EEENT_11result_typeEiRSG_T0_PT1_T2_i, symObjAddr: 0x142B4, symBinAddr: 0x100017418, symSize: 0x40 }
  - { offsetInCU: 0x19DC1, offset: 0x19DC1, size: 0x8, addend: 0x0, symName: __ZN5boost6detail7variant22visitation_impl_invokeINS_7variantIiJfbNSt3__112basic_stringIcNS4_11char_traitsIcEENS4_9allocatorIcEEEEEE8assignerEPKvSA_NSB_18has_fallback_type_EEENT_11result_typeEiRSG_T0_PT1_T2_i, symObjAddr: 0x142F4, symBinAddr: 0x100017458, symSize: 0x40 }
  - { offsetInCU: 0x19E4F, offset: 0x19E4F, size: 0x8, addend: 0x0, symName: __ZN5boost6detail7variant22visitation_impl_invokeINS_7variantIiJfbNSt3__112basic_stringIcNS4_11char_traitsIcEENS4_9allocatorIcEEEEEE8assignerEPKvNSB_18has_fallback_type_EEENT_11result_typeEiRSG_T0_PNS1_22apply_visitor_unrolledET1_l, symObjAddr: 0x14334, symBinAddr: 0x100017498, symSize: 0x24 }
  - { offsetInCU: 0x19EC4, offset: 0x19EC4, size: 0x8, addend: 0x0, symName: __ZN5boost6detail7variant15visitation_implIN4mpl_4int_ILi20EEENS1_20visitation_impl_stepINS_3mpl6l_iterINS7_5l_endEEESA_EENS_7variantIiJfbNSt3__112basic_stringIcNSD_11char_traitsIcEENSD_9allocatorIcEEEEEE8assignerEPKvNSK_18has_fallback_type_EEENT1_11result_typeEiiRSP_T2_NS3_5bool_ILb1EEET3_PT_PT0_, symObjAddr: 0x14358, symBinAddr: 0x1000174BC, symSize: 0x28 }
  - { offsetInCU: 0x19F5F, offset: 0x19F5F, size: 0x8, addend: 0x0, symName: __ZN5boost6detail7variant27visitation_impl_invoke_implINS_7variantIiJfbNSt3__112basic_stringIcNS4_11char_traitsIcEENS4_9allocatorIcEEEEEE8assignerEPKviEENT_11result_typeEiRSF_T0_PT1_N4mpl_5bool_ILb1EEE, symObjAddr: 0x14380, symBinAddr: 0x1000174E4, symSize: 0x48 }
  - { offsetInCU: 0x19FD2, offset: 0x19FD2, size: 0x8, addend: 0x0, symName: __ZN5boost6detail7variant27visitation_impl_invoke_implINS_7variantIiJfbNSt3__112basic_stringIcNS4_11char_traitsIcEENS4_9allocatorIcEEEEEE8assignerEPKvfEENT_11result_typeEiRSF_T0_PT1_N4mpl_5bool_ILb1EEE, symObjAddr: 0x1447C, symBinAddr: 0x1000175E0, symSize: 0x48 }
  - { offsetInCU: 0x1A045, offset: 0x1A045, size: 0x8, addend: 0x0, symName: __ZN5boost6detail7variant27visitation_impl_invoke_implINS_7variantIiJfbNSt3__112basic_stringIcNS4_11char_traitsIcEENS4_9allocatorIcEEEEEE8assignerEPKvbEENT_11result_typeEiRSF_T0_PT1_N4mpl_5bool_ILb1EEE, symObjAddr: 0x14578, symBinAddr: 0x1000176DC, symSize: 0x48 }
  - { offsetInCU: 0x1A0B8, offset: 0x1A0B8, size: 0x8, addend: 0x0, symName: __ZN5boost6detail7variant27visitation_impl_invoke_implINS_7variantIiJfbNSt3__112basic_stringIcNS4_11char_traitsIcEENS4_9allocatorIcEEEEEE8assignerEPKvSA_EENT_11result_typeEiRSF_T0_PT1_N4mpl_5bool_ILb1EEE, symObjAddr: 0x14678, symBinAddr: 0x1000177DC, symSize: 0x48 }
  - { offsetInCU: 0x1A1A3, offset: 0x1A1A3, size: 0x8, addend: 0x0, symName: __ZN5boost6detail7variant22visitation_impl_invokeINS1_14invoke_visitorINS1_15direct_assignerIiEELb0EEEPviNS_7variantIiJfbNSt3__112basic_stringIcNS9_11char_traitsIcEENS9_9allocatorIcEEEEEE18has_fallback_type_EEENT_11result_typeEiRSI_T0_PT1_T2_i, symObjAddr: 0x14E48, symBinAddr: 0x100017FAC, symSize: 0x44 }
  - { offsetInCU: 0x1A231, offset: 0x1A231, size: 0x8, addend: 0x0, symName: __ZN5boost6detail7variant22visitation_impl_invokeINS1_14invoke_visitorINS1_15direct_assignerIiEELb0EEEPvfNS_7variantIiJfbNSt3__112basic_stringIcNS9_11char_traitsIcEENS9_9allocatorIcEEEEEE18has_fallback_type_EEENT_11result_typeEiRSI_T0_PT1_T2_i, symObjAddr: 0x14E8C, symBinAddr: 0x100017FF0, symSize: 0x44 }
  - { offsetInCU: 0x1A2BF, offset: 0x1A2BF, size: 0x8, addend: 0x0, symName: __ZN5boost6detail7variant22visitation_impl_invokeINS1_14invoke_visitorINS1_15direct_assignerIiEELb0EEEPvbNS_7variantIiJfbNSt3__112basic_stringIcNS9_11char_traitsIcEENS9_9allocatorIcEEEEEE18has_fallback_type_EEENT_11result_typeEiRSI_T0_PT1_T2_i, symObjAddr: 0x14ED0, symBinAddr: 0x100018034, symSize: 0x44 }
  - { offsetInCU: 0x1A34D, offset: 0x1A34D, size: 0x8, addend: 0x0, symName: __ZN5boost6detail7variant22visitation_impl_invokeINS1_14invoke_visitorINS1_15direct_assignerIiEELb0EEEPvNSt3__112basic_stringIcNS8_11char_traitsIcEENS8_9allocatorIcEEEENS_7variantIiJfbSE_EE18has_fallback_type_EEENT_11result_typeEiRSI_T0_PT1_T2_i, symObjAddr: 0x14F14, symBinAddr: 0x100018078, symSize: 0x44 }
  - { offsetInCU: 0x1A3DB, offset: 0x1A3DB, size: 0x8, addend: 0x0, symName: __ZN5boost6detail7variant22visitation_impl_invokeINS1_14invoke_visitorINS1_15direct_assignerIiEELb0EEEPvNS_7variantIiJfbNSt3__112basic_stringIcNS9_11char_traitsIcEENS9_9allocatorIcEEEEEE18has_fallback_type_EEENT_11result_typeEiRSI_T0_PNS1_22apply_visitor_unrolledET1_l, symObjAddr: 0x14F58, symBinAddr: 0x1000180BC, symSize: 0x24 }
  - { offsetInCU: 0x1A450, offset: 0x1A450, size: 0x8, addend: 0x0, symName: __ZN5boost6detail7variant15visitation_implIN4mpl_4int_ILi20EEENS1_20visitation_impl_stepINS_3mpl6l_iterINS7_5l_endEEESA_EENS1_14invoke_visitorINS1_15direct_assignerIiEELb0EEEPvNS_7variantIiJfbNSt3__112basic_stringIcNSI_11char_traitsIcEENSI_9allocatorIcEEEEEE18has_fallback_type_EEENT1_11result_typeEiiRSR_T2_NS3_5bool_ILb1EEET3_PT_PT0_, symObjAddr: 0x14F7C, symBinAddr: 0x1000180E0, symSize: 0x28 }
  - { offsetInCU: 0x1A4EB, offset: 0x1A4EB, size: 0x8, addend: 0x0, symName: __ZN5boost6detail7variant27visitation_impl_invoke_implINS1_14invoke_visitorINS1_15direct_assignerIiEELb0EEEPviEENT_11result_typeEiRS8_T0_PT1_N4mpl_5bool_ILb1EEE, symObjAddr: 0x14FA4, symBinAddr: 0x100018108, symSize: 0x4C }
  - { offsetInCU: 0x1A55E, offset: 0x1A55E, size: 0x8, addend: 0x0, symName: __ZN5boost6detail7variant27visitation_impl_invoke_implINS1_14invoke_visitorINS1_15direct_assignerIiEELb0EEEPvfEENT_11result_typeEiRS8_T0_PT1_N4mpl_5bool_ILb1EEE, symObjAddr: 0x15058, symBinAddr: 0x1000181BC, symSize: 0x4C }
  - { offsetInCU: 0x1A5D1, offset: 0x1A5D1, size: 0x8, addend: 0x0, symName: __ZN5boost6detail7variant27visitation_impl_invoke_implINS1_14invoke_visitorINS1_15direct_assignerIiEELb0EEEPvbEENT_11result_typeEiRS8_T0_PT1_N4mpl_5bool_ILb1EEE, symObjAddr: 0x150F8, symBinAddr: 0x10001825C, symSize: 0x4C }
  - { offsetInCU: 0x1A644, offset: 0x1A644, size: 0x8, addend: 0x0, symName: __ZN5boost6detail7variant27visitation_impl_invoke_implINS1_14invoke_visitorINS1_15direct_assignerIiEELb0EEEPvNSt3__112basic_stringIcNS8_11char_traitsIcEENS8_9allocatorIcEEEEEENT_11result_typeEiRSF_T0_PT1_N4mpl_5bool_ILb1EEE, symObjAddr: 0x15198, symBinAddr: 0x1000182FC, symSize: 0x4C }
  - { offsetInCU: 0x1A72F, offset: 0x1A72F, size: 0x8, addend: 0x0, symName: __ZN5boost6detail7variant22visitation_impl_invokeINS1_9copy_intoEPKviNS_7variantIiJfbNSt3__112basic_stringIcNS7_11char_traitsIcEENS7_9allocatorIcEEEEEE18has_fallback_type_EEENT_11result_typeEiRSG_T0_PT1_T2_i, symObjAddr: 0x157EC, symBinAddr: 0x100018950, symSize: 0x40 }
  - { offsetInCU: 0x1A7BD, offset: 0x1A7BD, size: 0x8, addend: 0x0, symName: __ZN5boost6detail7variant22visitation_impl_invokeINS1_9copy_intoEPKvfNS_7variantIiJfbNSt3__112basic_stringIcNS7_11char_traitsIcEENS7_9allocatorIcEEEEEE18has_fallback_type_EEENT_11result_typeEiRSG_T0_PT1_T2_i, symObjAddr: 0x1582C, symBinAddr: 0x100018990, symSize: 0x40 }
  - { offsetInCU: 0x1A84B, offset: 0x1A84B, size: 0x8, addend: 0x0, symName: __ZN5boost6detail7variant22visitation_impl_invokeINS1_9copy_intoEPKvbNS_7variantIiJfbNSt3__112basic_stringIcNS7_11char_traitsIcEENS7_9allocatorIcEEEEEE18has_fallback_type_EEENT_11result_typeEiRSG_T0_PT1_T2_i, symObjAddr: 0x1586C, symBinAddr: 0x1000189D0, symSize: 0x40 }
  - { offsetInCU: 0x1A8D9, offset: 0x1A8D9, size: 0x8, addend: 0x0, symName: __ZN5boost6detail7variant22visitation_impl_invokeINS1_9copy_intoEPKvNSt3__112basic_stringIcNS6_11char_traitsIcEENS6_9allocatorIcEEEENS_7variantIiJfbSC_EE18has_fallback_type_EEENT_11result_typeEiRSG_T0_PT1_T2_i, symObjAddr: 0x158AC, symBinAddr: 0x100018A10, symSize: 0x40 }
  - { offsetInCU: 0x1A967, offset: 0x1A967, size: 0x8, addend: 0x0, symName: __ZN5boost6detail7variant22visitation_impl_invokeINS1_9copy_intoEPKvNS_7variantIiJfbNSt3__112basic_stringIcNS7_11char_traitsIcEENS7_9allocatorIcEEEEEE18has_fallback_type_EEENT_11result_typeEiRSG_T0_PNS1_22apply_visitor_unrolledET1_l, symObjAddr: 0x158EC, symBinAddr: 0x100018A50, symSize: 0x24 }
  - { offsetInCU: 0x1A9DC, offset: 0x1A9DC, size: 0x8, addend: 0x0, symName: __ZN5boost6detail7variant15visitation_implIN4mpl_4int_ILi20EEENS1_20visitation_impl_stepINS_3mpl6l_iterINS7_5l_endEEESA_EENS1_9copy_intoEPKvNS_7variantIiJfbNSt3__112basic_stringIcNSG_11char_traitsIcEENSG_9allocatorIcEEEEEE18has_fallback_type_EEENT1_11result_typeEiiRSP_T2_NS3_5bool_ILb1EEET3_PT_PT0_, symObjAddr: 0x15910, symBinAddr: 0x100018A74, symSize: 0x28 }
  - { offsetInCU: 0x1AA77, offset: 0x1AA77, size: 0x8, addend: 0x0, symName: __ZN5boost6detail7variant27visitation_impl_invoke_implINS1_9copy_intoEPKviEENT_11result_typeEiRS6_T0_PT1_N4mpl_5bool_ILb1EEE, symObjAddr: 0x15938, symBinAddr: 0x100018A9C, symSize: 0x48 }
  - { offsetInCU: 0x1AAEA, offset: 0x1AAEA, size: 0x8, addend: 0x0, symName: __ZN5boost6detail7variant27visitation_impl_invoke_implINS1_9copy_intoEPKvfEENT_11result_typeEiRS6_T0_PT1_N4mpl_5bool_ILb1EEE, symObjAddr: 0x159AC, symBinAddr: 0x100018B10, symSize: 0x48 }
  - { offsetInCU: 0x1AB5D, offset: 0x1AB5D, size: 0x8, addend: 0x0, symName: __ZN5boost6detail7variant27visitation_impl_invoke_implINS1_9copy_intoEPKvbEENT_11result_typeEiRS6_T0_PT1_N4mpl_5bool_ILb1EEE, symObjAddr: 0x15A20, symBinAddr: 0x100018B84, symSize: 0x48 }
  - { offsetInCU: 0x1ABD0, offset: 0x1ABD0, size: 0x8, addend: 0x0, symName: __ZN5boost6detail7variant27visitation_impl_invoke_implINS1_9copy_intoEPKvNSt3__112basic_stringIcNS6_11char_traitsIcEENS6_9allocatorIcEEEEEENT_11result_typeEiRSD_T0_PT1_N4mpl_5bool_ILb1EEE, symObjAddr: 0x15A98, symBinAddr: 0x100018BFC, symSize: 0x48 }
  - { offsetInCU: 0x1BD8A, offset: 0x1BD8A, size: 0x8, addend: 0x0, symName: __ZN5boost11relaxed_getIiiJfbNSt3__112basic_stringIcNS1_11char_traitsIcEENS1_9allocatorIcEEEEEEENS_11add_pointerIKT_E4typeEPKNS_7variantIT0_JDpT1_EEE, symObjAddr: 0x9920, symBinAddr: 0x10000CA84, symSize: 0x60 }
  - { offsetInCU: 0x1BE5B, offset: 0x1BE5B, size: 0x8, addend: 0x0, symName: __ZN5boost11relaxed_getIfiJfbNSt3__112basic_stringIcNS1_11char_traitsIcEENS1_9allocatorIcEEEEEEENS_11add_pointerIKT_E4typeEPKNS_7variantIT0_JDpT1_EEE, symObjAddr: 0xA32C, symBinAddr: 0x10000D490, symSize: 0x60 }
  - { offsetInCU: 0x1BF2C, offset: 0x1BF2C, size: 0x8, addend: 0x0, symName: __ZN5boost11relaxed_getINSt3__112basic_stringIcNS1_11char_traitsIcEENS1_9allocatorIcEEEEiJfbS7_EEENS_11add_pointerIT_E4typeEPNS_7variantIT0_JDpT1_EEE, symObjAddr: 0xC2AC, symBinAddr: 0x10000F410, symSize: 0x60 }
  - { offsetInCU: 0x1BFFD, offset: 0x1BFFD, size: 0x8, addend: 0x0, symName: __ZN5boost11relaxed_getIiiJfbNSt3__112basic_stringIcNS1_11char_traitsIcEENS1_9allocatorIcEEEEEEENS_11add_pointerIT_E4typeEPNS_7variantIT0_JDpT1_EEE, symObjAddr: 0xCB7C, symBinAddr: 0x10000FCE0, symSize: 0x60 }
  - { offsetInCU: 0x1C0CE, offset: 0x1C0CE, size: 0x8, addend: 0x0, symName: __ZN5boost11relaxed_getIfiJfbNSt3__112basic_stringIcNS1_11char_traitsIcEENS1_9allocatorIcEEEEEEENS_11add_pointerIT_E4typeEPNS_7variantIT0_JDpT1_EEE, symObjAddr: 0xD44C, symBinAddr: 0x1000105B0, symSize: 0x60 }
  - { offsetInCU: 0x1C19F, offset: 0x1C19F, size: 0x8, addend: 0x0, symName: __ZN5boost11relaxed_getIbiJfbNSt3__112basic_stringIcNS1_11char_traitsIcEENS1_9allocatorIcEEEEEEENS_11add_pointerIT_E4typeEPNS_7variantIT0_JDpT1_EEE, symObjAddr: 0xDD1C, symBinAddr: 0x100010E80, symSize: 0x60 }
  - { offsetInCU: 0x1C462, offset: 0x1C462, size: 0x8, addend: 0x0, symName: __ZN5boost3getIiiJfbNSt3__112basic_stringIcNS1_11char_traitsIcEENS1_9allocatorIcEEEEEEENS_11add_pointerIKT_E4typeEPKNS_7variantIT0_JDpT1_EEE, symObjAddr: 0x4A0, symBinAddr: 0x100003604, symSize: 0x24 }
  - { offsetInCU: 0x1C4B7, offset: 0x1C4B7, size: 0x8, addend: 0x0, symName: __ZN5boost3getIfiJfbNSt3__112basic_stringIcNS1_11char_traitsIcEENS1_9allocatorIcEEEEEEENS_11add_pointerIKT_E4typeEPKNS_7variantIT0_JDpT1_EEE, symObjAddr: 0x50C, symBinAddr: 0x100003670, symSize: 0x24 }
  - { offsetInCU: 0x1C50C, offset: 0x1C50C, size: 0x8, addend: 0x0, symName: __ZN5boost3getINSt3__112basic_stringIcNS1_11char_traitsIcEENS1_9allocatorIcEEEEiJfbS7_EEENS_11add_pointerIT_E4typeEPNS_7variantIT0_JDpT1_EEE, symObjAddr: 0x16CC, symBinAddr: 0x100004830, symSize: 0x24 }
  - { offsetInCU: 0x1C561, offset: 0x1C561, size: 0x8, addend: 0x0, symName: __ZN5boost3getIiiJfbNSt3__112basic_stringIcNS1_11char_traitsIcEENS1_9allocatorIcEEEEEEENS_11add_pointerIT_E4typeEPNS_7variantIT0_JDpT1_EEE, symObjAddr: 0x16F0, symBinAddr: 0x100004854, symSize: 0x24 }
  - { offsetInCU: 0x1C5B6, offset: 0x1C5B6, size: 0x8, addend: 0x0, symName: __ZN5boost3getIfiJfbNSt3__112basic_stringIcNS1_11char_traitsIcEENS1_9allocatorIcEEEEEEENS_11add_pointerIT_E4typeEPNS_7variantIT0_JDpT1_EEE, symObjAddr: 0x1714, symBinAddr: 0x100004878, symSize: 0x24 }
  - { offsetInCU: 0x1C60B, offset: 0x1C60B, size: 0x8, addend: 0x0, symName: __ZN5boost3getIbiJfbNSt3__112basic_stringIcNS1_11char_traitsIcEENS1_9allocatorIcEEEEEEENS_11add_pointerIT_E4typeEPNS_7variantIT0_JDpT1_EEE, symObjAddr: 0x1738, symBinAddr: 0x10000489C, symSize: 0x24 }
  - { offsetInCU: 0x1C70D, offset: 0x1C70D, size: 0x8, addend: 0x0, symName: __ZN5boost10strict_getIiiJfbNSt3__112basic_stringIcNS1_11char_traitsIcEENS1_9allocatorIcEEEEEEENS_11add_pointerIKT_E4typeEPKNS_7variantIT0_JDpT1_EEE, symObjAddr: 0x98FC, symBinAddr: 0x10000CA60, symSize: 0x24 }
  - { offsetInCU: 0x1C788, offset: 0x1C788, size: 0x8, addend: 0x0, symName: __ZN5boost9addressofIKiEEPT_RS2_, symObjAddr: 0xA008, symBinAddr: 0x10000D16C, symSize: 0x14 }
  - { offsetInCU: 0x1C7BD, offset: 0x1C7BD, size: 0x8, addend: 0x0, symName: __ZN5boost10strict_getIfiJfbNSt3__112basic_stringIcNS1_11char_traitsIcEENS1_9allocatorIcEEEEEEENS_11add_pointerIKT_E4typeEPKNS_7variantIT0_JDpT1_EEE, symObjAddr: 0xA308, symBinAddr: 0x10000D46C, symSize: 0x24 }
  - { offsetInCU: 0x1C838, offset: 0x1C838, size: 0x8, addend: 0x0, symName: __ZN5boost9addressofIKfEEPT_RS2_, symObjAddr: 0xAA70, symBinAddr: 0x10000DBD4, symSize: 0x14 }
  - { offsetInCU: 0x1C86D, offset: 0x1C86D, size: 0x8, addend: 0x0, symName: __ZN5boost10strict_getINSt3__112basic_stringIcNS1_11char_traitsIcEENS1_9allocatorIcEEEEiJfbS7_EEENS_11add_pointerIT_E4typeEPNS_7variantIT0_JDpT1_EEE, symObjAddr: 0xC288, symBinAddr: 0x10000F3EC, symSize: 0x24 }
  - { offsetInCU: 0x1C8E8, offset: 0x1C8E8, size: 0x8, addend: 0x0, symName: __ZN5boost9addressofINSt3__112basic_stringIcNS1_11char_traitsIcEENS1_9allocatorIcEEEEEEPT_RS8_, symObjAddr: 0xCB18, symBinAddr: 0x10000FC7C, symSize: 0x14 }
  - { offsetInCU: 0x1C91D, offset: 0x1C91D, size: 0x8, addend: 0x0, symName: __ZN5boost10strict_getIiiJfbNSt3__112basic_stringIcNS1_11char_traitsIcEENS1_9allocatorIcEEEEEEENS_11add_pointerIT_E4typeEPNS_7variantIT0_JDpT1_EEE, symObjAddr: 0xCB58, symBinAddr: 0x10000FCBC, symSize: 0x24 }
  - { offsetInCU: 0x1C998, offset: 0x1C998, size: 0x8, addend: 0x0, symName: __ZN5boost9addressofIiEEPT_RS1_, symObjAddr: 0xD22C, symBinAddr: 0x100010390, symSize: 0x14 }
  - { offsetInCU: 0x1C9CD, offset: 0x1C9CD, size: 0x8, addend: 0x0, symName: __ZN5boost10strict_getIfiJfbNSt3__112basic_stringIcNS1_11char_traitsIcEENS1_9allocatorIcEEEEEEENS_11add_pointerIT_E4typeEPNS_7variantIT0_JDpT1_EEE, symObjAddr: 0xD428, symBinAddr: 0x10001058C, symSize: 0x24 }
  - { offsetInCU: 0x1CA48, offset: 0x1CA48, size: 0x8, addend: 0x0, symName: __ZN5boost9addressofIfEEPT_RS1_, symObjAddr: 0xDB90, symBinAddr: 0x100010CF4, symSize: 0x14 }
  - { offsetInCU: 0x1CA7D, offset: 0x1CA7D, size: 0x8, addend: 0x0, symName: __ZN5boost10strict_getIbiJfbNSt3__112basic_stringIcNS1_11char_traitsIcEENS1_9allocatorIcEEEEEEENS_11add_pointerIT_E4typeEPNS_7variantIT0_JDpT1_EEE, symObjAddr: 0xDCF8, symBinAddr: 0x100010E5C, symSize: 0x24 }
  - { offsetInCU: 0x1CAF8, offset: 0x1CAF8, size: 0x8, addend: 0x0, symName: __ZN5boost9addressofIbEEPT_RS1_, symObjAddr: 0xE4F4, symBinAddr: 0x100011658, symSize: 0x14 }
  - { offsetInCU: 0x1D658, offset: 0x1D658, size: 0x8, addend: 0x0, symName: __ZNK5boost17integral_constantIbLb1EEcvRKN4mpl_5bool_ILb1EEEEv, symObjAddr: 0x6054, symBinAddr: 0x1000091B8, symSize: 0x1C }
  - { offsetInCU: 0x1D67B, offset: 0x1D67B, size: 0x8, addend: 0x0, symName: __ZZNK5boost17integral_constantIbLb1EEcvRKN4mpl_5bool_ILb1EEEEvE4data, symObjAddr: 0x16B0C, symBinAddr: 0x10001B45C, symSize: 0x0 }
  - { offsetInCU: 0x1D690, offset: 0x1D690, size: 0x8, addend: 0x0, symName: __ZZNK5boost17integral_constantIbLb1EEcvRKN4mpl_5bool_ILb1EEEEvE5pdata, symObjAddr: 0x16B20, symBinAddr: 0x100020000, symSize: 0x0 }
  - { offsetInCU: 0x1D6B2, offset: 0x1D6B2, size: 0x8, addend: 0x0, symName: __ZNK5boost17integral_constantIbLb0EEcvRKN4mpl_5bool_ILb0EEEEv, symObjAddr: 0x147A8, symBinAddr: 0x10001790C, symSize: 0x1C }
  - { offsetInCU: 0x1D6D5, offset: 0x1D6D5, size: 0x8, addend: 0x0, symName: __ZZNK5boost17integral_constantIbLb0EEcvRKN4mpl_5bool_ILb0EEEEvE4data, symObjAddr: 0x16B15, symBinAddr: 0x10001B465, symSize: 0x0 }
  - { offsetInCU: 0x1D6EA, offset: 0x1D6EA, size: 0x8, addend: 0x0, symName: __ZZNK5boost17integral_constantIbLb0EEcvRKN4mpl_5bool_ILb0EEEEvE5pdata, symObjAddr: 0x16B28, symBinAddr: 0x100020008, symSize: 0x0 }
  - { offsetInCU: 0x20087, offset: 0x20087, size: 0x8, addend: 0x0, symName: __ZNSt3__16vectorIiNS_9allocatorIiEEEC1B8ue170006ESt16initializer_listIiE, symObjAddr: 0x0, symBinAddr: 0x100003164, symSize: 0x3C }
  - { offsetInCU: 0x200C2, offset: 0x200C2, size: 0x8, addend: 0x0, symName: __ZNSt3__16vectorIiNS_9allocatorIiEEED1B8ue170006Ev, symObjAddr: 0x3C, symBinAddr: 0x1000031A0, symSize: 0x2C }
  - { offsetInCU: 0x200EC, offset: 0x200EC, size: 0x8, addend: 0x0, symName: __ZNSt3__16vectorINS0_IiNS_9allocatorIiEEEENS1_IS3_EEEC1B8ue170006ESt16initializer_listIS3_E, symObjAddr: 0x68, symBinAddr: 0x1000031CC, symSize: 0x3C }
  - { offsetInCU: 0x20127, offset: 0x20127, size: 0x8, addend: 0x0, symName: __ZNSt3__16vectorINS0_IiNS_9allocatorIiEEEENS1_IS3_EEED1B8ue170006Ev, symObjAddr: 0xA4, symBinAddr: 0x100003208, symSize: 0x2C }
  - { offsetInCU: 0x20156, offset: 0x20156, size: 0x8, addend: 0x0, symName: __ZN5boost7variantIiJfbEEC1IiEEOT_NS_9enable_ifINS_3mpl3or_INS6_4and_INS_19is_rvalue_referenceIS4_EENS6_4not_INS_8is_constIS3_EEEENSB_INS_7is_sameIS3_S1_EEEENS_6detail7variant29is_variant_constructible_fromIS4_NS6_6l_itemIN4mpl_5long_ILl3EEEiNSL_INSN_ILl2EEEfNSL_INSN_ILl1EEEbNS6_5l_endEEEEEEEEENSM_5bool_ILb1EEEEENSF_IS3_NS_18recursive_variant_EEENSW_ILb0EEES11_S11_EEbE4typeE, symObjAddr: 0xD0, symBinAddr: 0x100003234, symSize: 0x48 }
  - { offsetInCU: 0x201A3, offset: 0x201A3, size: 0x8, addend: 0x0, symName: __ZNSt3__14pairIKiN5boost7variantIiJfbNS_12basic_stringIcNS_11char_traitsIcEENS_9allocatorIcEEEEEEEEC1B8ue170006IiNS3_IiJfbEEELPv0EEEOT_OT0_, symObjAddr: 0x118, symBinAddr: 0x10000327C, symSize: 0x3C }
  - { offsetInCU: 0x20206, offset: 0x20206, size: 0x8, addend: 0x0, symName: __ZNSt3__112basic_stringIcNS_11char_traitsIcEENS_9allocatorIcEEEC1B8ue170006ILi0EEEPKc, symObjAddr: 0x154, symBinAddr: 0x1000032B8, symSize: 0x34 }
  - { offsetInCU: 0x2024A, offset: 0x2024A, size: 0x8, addend: 0x0, symName: __ZNSt3__14pairIKiN5boost7variantIiJfbNS_12basic_stringIcNS_11char_traitsIcEENS_9allocatorIcEEEEEEEEC1B8ue170006IiS9_LPv0EEEOT_OT0_, symObjAddr: 0x188, symBinAddr: 0x1000032EC, symSize: 0x3C }
  - { offsetInCU: 0x202A8, offset: 0x202A8, size: 0x8, addend: 0x0, symName: __ZNSt3__13mapIiN5boost7variantIiJfbNS_12basic_stringIcNS_11char_traitsIcEENS_9allocatorIcEEEEEEENS_4lessIiEENS6_INS_4pairIKiS9_EEEEEC1B8ue170006ESt16initializer_listISE_ERKSB_, symObjAddr: 0x1C4, symBinAddr: 0x100003328, symSize: 0x44 }
  - { offsetInCU: 0x202F0, offset: 0x202F0, size: 0x8, addend: 0x0, symName: __ZNSt3__14pairIKiN5boost7variantIiJfbNS_12basic_stringIcNS_11char_traitsIcEENS_9allocatorIcEEEEEEEED1Ev, symObjAddr: 0x208, symBinAddr: 0x10000336C, symSize: 0x2C }
  - { offsetInCU: 0x2031C, offset: 0x2031C, size: 0x8, addend: 0x0, symName: __ZN5boost7variantIiJfbEED1Ev, symObjAddr: 0x234, symBinAddr: 0x100003398, symSize: 0x2C }
  - { offsetInCU: 0x20346, offset: 0x20346, size: 0x8, addend: 0x0, symName: __ZNSt3__13mapIiN5boost7variantIiJfbNS_12basic_stringIcNS_11char_traitsIcEENS_9allocatorIcEEEEEEENS_4lessIiEENS6_INS_4pairIKiS9_EEEEED1B8ue170006Ev, symObjAddr: 0x260, symBinAddr: 0x1000033C4, symSize: 0x2C }
  - { offsetInCU: 0x2036F, offset: 0x2036F, size: 0x8, addend: 0x0, symName: __Z3addRKN5boost7variantIiJfbNSt3__112basic_stringIcNS1_11char_traitsIcEENS1_9allocatorIcEEEEEEESA_, symObjAddr: 0x28C, symBinAddr: 0x1000033F0, symSize: 0x214 }
  - { offsetInCU: 0x20424, offset: 0x20424, size: 0x8, addend: 0x0, symName: __ZN5boost7variantIiJfbNSt3__112basic_stringIcNS1_11char_traitsIcEENS1_9allocatorIcEEEEEEC1IiEEOT_NS_9enable_ifINS_3mpl3or_INSD_4and_INS_19is_rvalue_referenceISB_EENSD_4not_INS_8is_constISA_EEEENSI_INS_7is_sameISA_S8_EEEENS_6detail7variant29is_variant_constructible_fromISB_NSD_6l_itemIN4mpl_5long_ILl4EEEiNSS_INSU_ILl3EEEfNSS_INSU_ILl2EEEbNSS_INSU_ILl1EEES7_NSD_5l_endEEEEEEEEEEENST_5bool_ILb1EEEEENSM_ISA_NS_18recursive_variant_EEENS15_ILb0EEES1A_S1A_EEbE4typeE, symObjAddr: 0x4C4, symBinAddr: 0x100003628, symSize: 0x48 }
  - { offsetInCU: 0x20476, offset: 0x20476, size: 0x8, addend: 0x0, symName: __ZN5boost7variantIiJfbNSt3__112basic_stringIcNS1_11char_traitsIcEENS1_9allocatorIcEEEEEEC1IfEEOT_NS_9enable_ifINS_3mpl3or_INSD_4and_INS_19is_rvalue_referenceISB_EENSD_4not_INS_8is_constISA_EEEENSI_INS_7is_sameISA_S8_EEEENS_6detail7variant29is_variant_constructible_fromISB_NSD_6l_itemIN4mpl_5long_ILl4EEEiNSS_INSU_ILl3EEEfNSS_INSU_ILl2EEEbNSS_INSU_ILl1EEES7_NSD_5l_endEEEEEEEEEEENST_5bool_ILb1EEEEENSM_ISA_NS_18recursive_variant_EEENS15_ILb0EEES1A_S1A_EEbE4typeE, symObjAddr: 0x530, symBinAddr: 0x100003694, symSize: 0x48 }
  - { offsetInCU: 0x204C2, offset: 0x204C2, size: 0x8, addend: 0x0, symName: __Z3subRKN5boost7variantIiJfbNSt3__112basic_stringIcNS1_11char_traitsIcEENS1_9allocatorIcEEEEEEESA_, symObjAddr: 0x578, symBinAddr: 0x1000036DC, symSize: 0x214 }
  - { offsetInCU: 0x20576, offset: 0x20576, size: 0x8, addend: 0x0, symName: __Z3mulRKN5boost7variantIiJfbNSt3__112basic_stringIcNS1_11char_traitsIcEENS1_9allocatorIcEEEEEEESA_, symObjAddr: 0x78C, symBinAddr: 0x1000038F0, symSize: 0x214 }
  - { offsetInCU: 0x2062A, offset: 0x2062A, size: 0x8, addend: 0x0, symName: __Z3divRKN5boost7variantIiJfbNSt3__112basic_stringIcNS1_11char_traitsIcEENS1_9allocatorIcEEEEEEESA_, symObjAddr: 0x9A0, symBinAddr: 0x100003B04, symSize: 0x3A4 }
  - { offsetInCU: 0x206DF, offset: 0x206DF, size: 0x8, addend: 0x0, symName: __Z8lessThanRKN5boost7variantIiJfbNSt3__112basic_stringIcNS1_11char_traitsIcEENS1_9allocatorIcEEEEEEESA_, symObjAddr: 0xD44, symBinAddr: 0x100003EA8, symSize: 0x1E8 }
  - { offsetInCU: 0x20797, offset: 0x20797, size: 0x8, addend: 0x0, symName: __ZN5boost7variantIiJfbNSt3__112basic_stringIcNS1_11char_traitsIcEENS1_9allocatorIcEEEEEEC1IbEEOT_NS_9enable_ifINS_3mpl3or_INSD_4and_INS_19is_rvalue_referenceISB_EENSD_4not_INS_8is_constISA_EEEENSI_INS_7is_sameISA_S8_EEEENS_6detail7variant29is_variant_constructible_fromISB_NSD_6l_itemIN4mpl_5long_ILl4EEEiNSS_INSU_ILl3EEEfNSS_INSU_ILl2EEEbNSS_INSU_ILl1EEES7_NSD_5l_endEEEEEEEEEEENST_5bool_ILb1EEEEENSM_ISA_NS_18recursive_variant_EEENS15_ILb0EEES1A_S1A_EEbE4typeE, symObjAddr: 0xF2C, symBinAddr: 0x100004090, symSize: 0x48 }
  - { offsetInCU: 0x207E3, offset: 0x207E3, size: 0x8, addend: 0x0, symName: __Z11greaterThanRKN5boost7variantIiJfbNSt3__112basic_stringIcNS1_11char_traitsIcEENS1_9allocatorIcEEEEEEESA_, symObjAddr: 0xF74, symBinAddr: 0x1000040D8, symSize: 0x1E8 }
  - { offsetInCU: 0x20895, offset: 0x20895, size: 0x8, addend: 0x0, symName: __Z5printNSt3__112basic_stringIcNS_11char_traitsIcEENS_9allocatorIcEEEE, symObjAddr: 0x115C, symBinAddr: 0x1000042C0, symSize: 0x48 }
  - { offsetInCU: 0x208BF, offset: 0x208BF, size: 0x8, addend: 0x0, symName: __ZNSt3__113basic_ostreamIcNS_11char_traitsIcEEElsB8ue170006EPFRS3_S4_E, symObjAddr: 0x1238, symBinAddr: 0x10000439C, symSize: 0x2C }
  - { offsetInCU: 0x208F2, offset: 0x208F2, size: 0x8, addend: 0x0, symName: __Z5printNSt3__112basic_stringIwNS_11char_traitsIwEENS_9allocatorIwEEEE, symObjAddr: 0x12BC, symBinAddr: 0x100004420, symSize: 0x48 }
  - { offsetInCU: 0x2091C, offset: 0x2091C, size: 0x8, addend: 0x0, symName: __ZNSt3__113basic_ostreamIwNS_11char_traitsIwEEElsB8ue170006EPFRS3_S4_E, symObjAddr: 0x1398, symBinAddr: 0x1000044FC, symSize: 0x2C }
  - { offsetInCU: 0x2094F, offset: 0x2094F, size: 0x8, addend: 0x0, symName: __Z5printPKc, symObjAddr: 0x1418, symBinAddr: 0x10000457C, symSize: 0x9C }
  - { offsetInCU: 0x20977, offset: 0x20977, size: 0x8, addend: 0x0, symName: __Z5printb, symObjAddr: 0x14B4, symBinAddr: 0x100004618, symSize: 0x68 }
  - { offsetInCU: 0x2099F, offset: 0x2099F, size: 0x8, addend: 0x0, symName: __Z5printi, symObjAddr: 0x151C, symBinAddr: 0x100004680, symSize: 0x44 }
  - { offsetInCU: 0x209C7, offset: 0x209C7, size: 0x8, addend: 0x0, symName: __Z5printf, symObjAddr: 0x1560, symBinAddr: 0x1000046C4, symSize: 0x44 }
  - { offsetInCU: 0x209EF, offset: 0x209EF, size: 0x8, addend: 0x0, symName: __Z5printN5boost7variantIiJfbNSt3__112basic_stringIcNS1_11char_traitsIcEENS1_9allocatorIcEEEEEEE, symObjAddr: 0x15A4, symBinAddr: 0x100004708, symSize: 0x128 }
  - { offsetInCU: 0x20A69, offset: 0x20A69, size: 0x8, addend: 0x0, symName: _main, symObjAddr: 0x175C, symBinAddr: 0x1000048C0, symSize: 0x744 }
  - { offsetInCU: 0x20AFF, offset: 0x20AFF, size: 0x8, addend: 0x0, symName: __ZNKSt3__16vectorINS0_IiNS_9allocatorIiEEEENS1_IS3_EEE4sizeB8ue170006Ev, symObjAddr: 0x1EF4, symBinAddr: 0x100005058, symSize: 0x28 }
  - { offsetInCU: 0x20B25, offset: 0x20B25, size: 0x8, addend: 0x0, symName: __ZNSt3__16vectorINS0_IiNS_9allocatorIiEEEENS1_IS3_EEEixB8ue170006Em, symObjAddr: 0x1F1C, symBinAddr: 0x100005080, symSize: 0x2C }
  - { offsetInCU: 0x20B5C, offset: 0x20B5C, size: 0x8, addend: 0x0, symName: __ZNSt3__16vectorIiNS_9allocatorIiEEEixB8ue170006Em, symObjAddr: 0x1F48, symBinAddr: 0x1000050AC, symSize: 0x24 }
  - { offsetInCU: 0x20B93, offset: 0x20B93, size: 0x8, addend: 0x0, symName: __ZNSt3__13mapIiN5boost7variantIiJfbNS_12basic_stringIcNS_11char_traitsIcEENS_9allocatorIcEEEEEEENS_4lessIiEENS6_INS_4pairIKiS9_EEEEEixERSD_, symObjAddr: 0x1F6C, symBinAddr: 0x1000050D0, symSize: 0x80 }
  - { offsetInCU: 0x20BCA, offset: 0x20BCA, size: 0x8, addend: 0x0, symName: __ZN5boost7variantIiJfbNSt3__112basic_stringIcNS1_11char_traitsIcEENS1_9allocatorIcEEEEEEaSEOS8_, symObjAddr: 0x1FEC, symBinAddr: 0x100005150, symSize: 0x3C }
  - { offsetInCU: 0x20BFF, offset: 0x20BFF, size: 0x8, addend: 0x0, symName: __ZN5boost7variantIiJfbNSt3__112basic_stringIcNS1_11char_traitsIcEENS1_9allocatorIcEEEEEED1Ev, symObjAddr: 0x2028, symBinAddr: 0x10000518C, symSize: 0x2C }
  - { offsetInCU: 0x20C29, offset: 0x20C29, size: 0x8, addend: 0x0, symName: __ZNK5boost7variantIiJfbNSt3__112basic_stringIcNS1_11char_traitsIcEENS1_9allocatorIcEEEEEEeqERKS8_, symObjAddr: 0x2054, symBinAddr: 0x1000051B8, symSize: 0x98 }
  - { offsetInCU: 0x20C6D, offset: 0x20C6D, size: 0x8, addend: 0x0, symName: __ZN5boost7variantIiJfbNSt3__112basic_stringIcNS1_11char_traitsIcEENS1_9allocatorIcEEEEEEaSIbEENS_9enable_ifINS_3mpl4and_INS_19is_rvalue_referenceIOT_EENSB_4not_INS_8is_constISE_EEEENS_6detail7variant29is_variant_constructible_fromISF_NSB_6l_itemIN4mpl_5long_ILl4EEEiNSO_INSQ_ILl3EEEfNSO_INSQ_ILl2EEEbNSO_INSQ_ILl1EEES7_NSB_5l_endEEEEEEEEEEENSP_5bool_ILb1EEES12_EERS8_E4typeESF_, symObjAddr: 0x20EC, symBinAddr: 0x100005250, symSize: 0x34 }
  - { offsetInCU: 0x20CAB, offset: 0x20CAB, size: 0x8, addend: 0x0, symName: __ZN5boost7variantIiJfbNSt3__112basic_stringIcNS1_11char_traitsIcEENS1_9allocatorIcEEEEEEaSERKS8_, symObjAddr: 0x2120, symBinAddr: 0x100005284, symSize: 0x34 }
  - { offsetInCU: 0x20CE0, offset: 0x20CE0, size: 0x8, addend: 0x0, symName: __ZN5boost7variantIiJfbNSt3__112basic_stringIcNS1_11char_traitsIcEENS1_9allocatorIcEEEEEEaSIiEENS_9enable_ifINS_3mpl3or_INS_7is_sameIT_S8_EENS_6detail7variant29is_variant_constructible_fromIRKSE_NSB_6l_itemIN4mpl_5long_ILl4EEEiNSL_INSN_ILl3EEEfNSL_INSN_ILl2EEEbNSL_INSN_ILl1EEES7_NSB_5l_endEEEEEEEEEEENSM_5bool_ILb0EEESZ_SZ_EERS8_E4typeESK_, symObjAddr: 0x2154, symBinAddr: 0x1000052B8, symSize: 0x34 }
  - { offsetInCU: 0x20D1E, offset: 0x20D1E, size: 0x8, addend: 0x0, symName: __ZN5boost7variantIiJfbNSt3__112basic_stringIcNS1_11char_traitsIcEENS1_9allocatorIcEEEEEEC1ERKS8_, symObjAddr: 0x2188, symBinAddr: 0x1000052EC, symSize: 0x34 }
  - { offsetInCU: 0x20D57, offset: 0x20D57, size: 0x8, addend: 0x0, symName: __ZNK5boost7variantIiJfbNSt3__112basic_stringIcNS1_11char_traitsIcEENS1_9allocatorIcEEEEEEneERKS8_, symObjAddr: 0x21BC, symBinAddr: 0x100005320, symSize: 0x34 }
  - { offsetInCU: 0x20D8C, offset: 0x20D8C, size: 0x8, addend: 0x0, symName: __ZNSt3__14pairIKiN5boost7variantIiJfbNS_12basic_stringIcNS_11char_traitsIcEENS_9allocatorIcEEEEEEEED2Ev, symObjAddr: 0x21F0, symBinAddr: 0x100005354, symSize: 0x30 }
  - { offsetInCU: 0x20DB8, offset: 0x20DB8, size: 0x8, addend: 0x0, symName: __ZNSt3__16vectorIiNS_9allocatorIiEEED2B8ue170006Ev, symObjAddr: 0x2220, symBinAddr: 0x100005384, symSize: 0x44 }
  - { offsetInCU: 0x20DE2, offset: 0x20DE2, size: 0x8, addend: 0x0, symName: __ZNSt3__16vectorIiNS_9allocatorIiEEE16__destroy_vectorC1B8ue170006ERS3_, symObjAddr: 0x2264, symBinAddr: 0x1000053C8, symSize: 0x34 }
  - { offsetInCU: 0x20E1B, offset: 0x20E1B, size: 0x8, addend: 0x0, symName: __ZNSt3__16vectorIiNS_9allocatorIiEEE16__destroy_vectorclB8ue170006Ev, symObjAddr: 0x22A4, symBinAddr: 0x100005408, symSize: 0x90 }
  - { offsetInCU: 0x20E41, offset: 0x20E41, size: 0x8, addend: 0x0, symName: __ZNSt3__16vectorIiNS_9allocatorIiEEE16__destroy_vectorC2B8ue170006ERS3_, symObjAddr: 0x2334, symBinAddr: 0x100005498, symSize: 0x20 }
  - { offsetInCU: 0x20E7A, offset: 0x20E7A, size: 0x8, addend: 0x0, symName: __ZNSt3__16vectorIiNS_9allocatorIiEEE7__clearB8ue170006Ev, symObjAddr: 0x2354, symBinAddr: 0x1000054B8, symSize: 0x28 }
  - { offsetInCU: 0x20EA0, offset: 0x20EA0, size: 0x8, addend: 0x0, symName: __ZNKSt3__16vectorIiNS_9allocatorIiEEE17__annotate_deleteB8ue170006Ev, symObjAddr: 0x237C, symBinAddr: 0x1000054E0, symSize: 0xB8 }
  - { offsetInCU: 0x20EC6, offset: 0x20EC6, size: 0x8, addend: 0x0, symName: __ZNSt3__116allocator_traitsINS_9allocatorIiEEE10deallocateB8ue170006ERS2_Pim, symObjAddr: 0x2434, symBinAddr: 0x100005598, symSize: 0x34 }
  - { offsetInCU: 0x20F08, offset: 0x20F08, size: 0x8, addend: 0x0, symName: __ZNSt3__16vectorIiNS_9allocatorIiEEE7__allocB8ue170006Ev, symObjAddr: 0x2468, symBinAddr: 0x1000055CC, symSize: 0x28 }
  - { offsetInCU: 0x20F2E, offset: 0x20F2E, size: 0x8, addend: 0x0, symName: __ZNKSt3__16vectorIiNS_9allocatorIiEEE8capacityB8ue170006Ev, symObjAddr: 0x2490, symBinAddr: 0x1000055F4, symSize: 0x40 }
  - { offsetInCU: 0x20F54, offset: 0x20F54, size: 0x8, addend: 0x0, symName: __ZNSt3__16vectorIiNS_9allocatorIiEEE22__base_destruct_at_endB8ue170006EPi, symObjAddr: 0x24D0, symBinAddr: 0x100005634, symSize: 0x8C }
  - { offsetInCU: 0x20F98, offset: 0x20F98, size: 0x8, addend: 0x0, symName: __ZNSt3__116allocator_traitsINS_9allocatorIiEEE7destroyB8ue170006IivEEvRS2_PT_, symObjAddr: 0x255C, symBinAddr: 0x1000056C0, symSize: 0x2C }
  - { offsetInCU: 0x20FD5, offset: 0x20FD5, size: 0x8, addend: 0x0, symName: __ZNSt3__19allocatorIiE7destroyB8ue170006EPi, symObjAddr: 0x259C, symBinAddr: 0x100005700, symSize: 0x14 }
  - { offsetInCU: 0x21009, offset: 0x21009, size: 0x8, addend: 0x0, symName: __ZNKSt3__16vectorIiNS_9allocatorIiEEE31__annotate_contiguous_containerB8ue170006EPKvS5_S5_S5_, symObjAddr: 0x25B0, symBinAddr: 0x100005714, symSize: 0x20 }
  - { offsetInCU: 0x2105B, offset: 0x2105B, size: 0x8, addend: 0x0, symName: __ZNKSt3__16vectorIiNS_9allocatorIiEEE4dataB8ue170006Ev, symObjAddr: 0x25D0, symBinAddr: 0x100005734, symSize: 0x28 }
  - { offsetInCU: 0x21081, offset: 0x21081, size: 0x8, addend: 0x0, symName: __ZNKSt3__16vectorIiNS_9allocatorIiEEE4sizeB8ue170006Ev, symObjAddr: 0x25F8, symBinAddr: 0x10000575C, symSize: 0x28 }
  - { offsetInCU: 0x210A7, offset: 0x210A7, size: 0x8, addend: 0x0, symName: __ZNSt3__19allocatorIiE10deallocateB8ue170006EPim, symObjAddr: 0x2620, symBinAddr: 0x100005784, symSize: 0x40 }
  - { offsetInCU: 0x210E9, offset: 0x210E9, size: 0x8, addend: 0x0, symName: __ZNSt3__117__compressed_pairIPiNS_9allocatorIiEEE6secondB8ue170006Ev, symObjAddr: 0x26DC, symBinAddr: 0x100005840, symSize: 0x24 }
  - { offsetInCU: 0x2110F, offset: 0x2110F, size: 0x8, addend: 0x0, symName: __ZNSt3__122__compressed_pair_elemINS_9allocatorIiEELi1ELb1EE5__getB8ue170006Ev, symObjAddr: 0x2700, symBinAddr: 0x100005864, symSize: 0x14 }
  - { offsetInCU: 0x21135, offset: 0x21135, size: 0x8, addend: 0x0, symName: __ZNKSt3__16vectorIiNS_9allocatorIiEEE9__end_capB8ue170006Ev, symObjAddr: 0x2714, symBinAddr: 0x100005878, symSize: 0x28 }
  - { offsetInCU: 0x2115B, offset: 0x2115B, size: 0x8, addend: 0x0, symName: __ZNKSt3__117__compressed_pairIPiNS_9allocatorIiEEE5firstB8ue170006Ev, symObjAddr: 0x273C, symBinAddr: 0x1000058A0, symSize: 0x24 }
  - { offsetInCU: 0x21181, offset: 0x21181, size: 0x8, addend: 0x0, symName: __ZNKSt3__122__compressed_pair_elemIPiLi0ELb0EE5__getB8ue170006Ev, symObjAddr: 0x2760, symBinAddr: 0x1000058C4, symSize: 0x14 }
  - { offsetInCU: 0x211A7, offset: 0x211A7, size: 0x8, addend: 0x0, symName: __ZNSt3__16vectorIiNS_9allocatorIiEEEC2B8ue170006ESt16initializer_listIiE, symObjAddr: 0x2774, symBinAddr: 0x1000058D8, symSize: 0x120 }
  - { offsetInCU: 0x21201, offset: 0x21201, size: 0x8, addend: 0x0, symName: __ZNSt3__117__compressed_pairIPiNS_9allocatorIiEEEC1B8ue170006IDnNS_18__default_init_tagEEEOT_OT0_, symObjAddr: 0x2894, symBinAddr: 0x1000059F8, symSize: 0x3C }
  - { offsetInCU: 0x21259, offset: 0x21259, size: 0x8, addend: 0x0, symName: __ZNKSt16initializer_listIiE4sizeB8ue170006Ev, symObjAddr: 0x2910, symBinAddr: 0x100005A74, symSize: 0x18 }
  - { offsetInCU: 0x2127F, offset: 0x2127F, size: 0x8, addend: 0x0, symName: __ZNSt3__16vectorIiNS_9allocatorIiEEE11__vallocateB8ue170006Em, symObjAddr: 0x2928, symBinAddr: 0x100005A8C, symSize: 0xAC }
  - { offsetInCU: 0x212C3, offset: 0x212C3, size: 0x8, addend: 0x0, symName: __ZNSt3__16vectorIiNS_9allocatorIiEEE18__construct_at_endIPKiS6_EEvT_T0_m, symObjAddr: 0x29D4, symBinAddr: 0x100005B38, symSize: 0x8C }
  - { offsetInCU: 0x21339, offset: 0x21339, size: 0x8, addend: 0x0, symName: __ZNKSt16initializer_listIiE5beginB8ue170006Ev, symObjAddr: 0x2A60, symBinAddr: 0x100005BC4, symSize: 0x18 }
  - { offsetInCU: 0x2135F, offset: 0x2135F, size: 0x8, addend: 0x0, symName: __ZNKSt16initializer_listIiE3endB8ue170006Ev, symObjAddr: 0x2A78, symBinAddr: 0x100005BDC, symSize: 0x20 }
  - { offsetInCU: 0x21385, offset: 0x21385, size: 0x8, addend: 0x0, symName: __ZNSt3__128__exception_guard_exceptionsINS_6vectorIiNS_9allocatorIiEEE16__destroy_vectorEE10__completeB8ue170006Ev, symObjAddr: 0x2A98, symBinAddr: 0x100005BFC, symSize: 0x1C }
  - { offsetInCU: 0x213AB, offset: 0x213AB, size: 0x8, addend: 0x0, symName: __ZNSt3__128__exception_guard_exceptionsINS_6vectorIiNS_9allocatorIiEEE16__destroy_vectorEED1B8ue170006Ev, symObjAddr: 0x2AB4, symBinAddr: 0x100005C18, symSize: 0x2C }
  - { offsetInCU: 0x213D5, offset: 0x213D5, size: 0x8, addend: 0x0, symName: __ZNSt3__117__compressed_pairIPiNS_9allocatorIiEEEC2B8ue170006IDnNS_18__default_init_tagEEEOT_OT0_, symObjAddr: 0x2AE0, symBinAddr: 0x100005C44, symSize: 0x40 }
  - { offsetInCU: 0x2142D, offset: 0x2142D, size: 0x8, addend: 0x0, symName: __ZNSt3__122__compressed_pair_elemIPiLi0ELb0EEC2B8ue170006IDnvEEOT_, symObjAddr: 0x2B20, symBinAddr: 0x100005C84, symSize: 0x1C }
  - { offsetInCU: 0x2146F, offset: 0x2146F, size: 0x8, addend: 0x0, symName: __ZNSt3__122__compressed_pair_elemINS_9allocatorIiEELi1ELb1EEC2B8ue170006ENS_18__default_init_tagE, symObjAddr: 0x2B3C, symBinAddr: 0x100005CA0, symSize: 0x2C }
  - { offsetInCU: 0x214A3, offset: 0x214A3, size: 0x8, addend: 0x0, symName: __ZNSt3__19allocatorIiEC2B8ue170006Ev, symObjAddr: 0x2B68, symBinAddr: 0x100005CCC, symSize: 0x2C }
  - { offsetInCU: 0x214CD, offset: 0x214CD, size: 0x8, addend: 0x0, symName: __ZNSt3__116__non_trivial_ifILb1ENS_9allocatorIiEEEC2B8ue170006Ev, symObjAddr: 0x2B94, symBinAddr: 0x100005CF8, symSize: 0x14 }
  - { offsetInCU: 0x214F7, offset: 0x214F7, size: 0x8, addend: 0x0, symName: __ZNSt3__128__exception_guard_exceptionsINS_6vectorIiNS_9allocatorIiEEE16__destroy_vectorEEC1B8ue170006ES5_, symObjAddr: 0x2BA8, symBinAddr: 0x100005D0C, symSize: 0x34 }
  - { offsetInCU: 0x2152F, offset: 0x2152F, size: 0x8, addend: 0x0, symName: __ZNSt3__128__exception_guard_exceptionsINS_6vectorIiNS_9allocatorIiEEE16__destroy_vectorEEC2B8ue170006ES5_, symObjAddr: 0x2BDC, symBinAddr: 0x100005D40, symSize: 0x24 }
  - { offsetInCU: 0x21567, offset: 0x21567, size: 0x8, addend: 0x0, symName: __ZNKSt3__16vectorIiNS_9allocatorIiEEE8max_sizeEv, symObjAddr: 0x2C00, symBinAddr: 0x100005D64, symSize: 0x60 }
  - { offsetInCU: 0x2158F, offset: 0x2158F, size: 0x8, addend: 0x0, symName: __ZNKSt3__16vectorIiNS_9allocatorIiEEE20__throw_length_errorB8ue170006Ev, symObjAddr: 0x2C60, symBinAddr: 0x100005DC4, symSize: 0x1C }
  - { offsetInCU: 0x215B5, offset: 0x215B5, size: 0x8, addend: 0x0, symName: __ZNSt3__16vectorIiNS_9allocatorIiEEE9__end_capB8ue170006Ev, symObjAddr: 0x2CBC, symBinAddr: 0x100005E20, symSize: 0x28 }
  - { offsetInCU: 0x215DB, offset: 0x215DB, size: 0x8, addend: 0x0, symName: __ZNKSt3__16vectorIiNS_9allocatorIiEEE14__annotate_newB8ue170006Em, symObjAddr: 0x2CE4, symBinAddr: 0x100005E48, symSize: 0xAC }
  - { offsetInCU: 0x2161A, offset: 0x2161A, size: 0x8, addend: 0x0, symName: __ZNSt3__116allocator_traitsINS_9allocatorIiEEE8max_sizeB8ue170006IS2_vEEmRKS2_, symObjAddr: 0x2DBC, symBinAddr: 0x100005F20, symSize: 0x24 }
  - { offsetInCU: 0x21648, offset: 0x21648, size: 0x8, addend: 0x0, symName: __ZNKSt3__16vectorIiNS_9allocatorIiEEE7__allocB8ue170006Ev, symObjAddr: 0x2DE0, symBinAddr: 0x100005F44, symSize: 0x28 }
  - { offsetInCU: 0x2166E, offset: 0x2166E, size: 0x8, addend: 0x0, symName: __ZNSt3__114numeric_limitsIlE3maxB8ue170006Ev, symObjAddr: 0x2E08, symBinAddr: 0x100005F6C, symSize: 0x14 }
  - { offsetInCU: 0x2168C, offset: 0x2168C, size: 0x8, addend: 0x0, symName: __ZNKSt3__16__lessIvvEclB8ue170006ImmEEbRKT_RKT0_, symObjAddr: 0x2E70, symBinAddr: 0x100005FD4, symSize: 0x34 }
  - { offsetInCU: 0x216E0, offset: 0x216E0, size: 0x8, addend: 0x0, symName: __ZNKSt3__19allocatorIiE8max_sizeB8ue170006Ev, symObjAddr: 0x2EA4, symBinAddr: 0x100006008, symSize: 0x14 }
  - { offsetInCU: 0x21706, offset: 0x21706, size: 0x8, addend: 0x0, symName: __ZNKSt3__117__compressed_pairIPiNS_9allocatorIiEEE6secondB8ue170006Ev, symObjAddr: 0x2EB8, symBinAddr: 0x10000601C, symSize: 0x24 }
  - { offsetInCU: 0x2172C, offset: 0x2172C, size: 0x8, addend: 0x0, symName: __ZNKSt3__122__compressed_pair_elemINS_9allocatorIiEELi1ELb1EE5__getB8ue170006Ev, symObjAddr: 0x2EDC, symBinAddr: 0x100006040, symSize: 0x14 }
  - { offsetInCU: 0x21752, offset: 0x21752, size: 0x8, addend: 0x0, symName: __ZNSt3__123__libcpp_numeric_limitsIlLb1EE3maxB8ue170006Ev, symObjAddr: 0x2EF0, symBinAddr: 0x100006054, symSize: 0x8 }
  - { offsetInCU: 0x21766, offset: 0x21766, size: 0x8, addend: 0x0, symName: __ZNSt12length_errorC1B8ue170006EPKc, symObjAddr: 0x2F5C, symBinAddr: 0x1000060C0, symSize: 0x34 }
  - { offsetInCU: 0x2179E, offset: 0x2179E, size: 0x8, addend: 0x0, symName: __ZNSt12length_errorC2B8ue170006EPKc, symObjAddr: 0x2F90, symBinAddr: 0x1000060F4, symSize: 0x4C }
  - { offsetInCU: 0x217D6, offset: 0x217D6, size: 0x8, addend: 0x0, symName: __ZNSt3__19allocatorIiE8allocateB8ue170006Em, symObjAddr: 0x2FDC, symBinAddr: 0x100006140, symSize: 0x58 }
  - { offsetInCU: 0x2180A, offset: 0x2180A, size: 0x8, addend: 0x0, symName: __ZNSt3__117__compressed_pairIPiNS_9allocatorIiEEE5firstB8ue170006Ev, symObjAddr: 0x30B4, symBinAddr: 0x100006218, symSize: 0x24 }
  - { offsetInCU: 0x21830, offset: 0x21830, size: 0x8, addend: 0x0, symName: __ZNSt3__122__compressed_pair_elemIPiLi0ELb0EE5__getB8ue170006Ev, symObjAddr: 0x30D8, symBinAddr: 0x10000623C, symSize: 0x14 }
  - { offsetInCU: 0x2186F, offset: 0x2186F, size: 0x8, addend: 0x0, symName: __ZNSt3__16vectorIiNS_9allocatorIiEEE21_ConstructTransactionC1B8ue170006ERS3_m, symObjAddr: 0x30EC, symBinAddr: 0x100006250, symSize: 0x3C }
  - { offsetInCU: 0x218B7, offset: 0x218B7, size: 0x8, addend: 0x0, symName: __ZNSt3__16vectorIiNS_9allocatorIiEEE21_ConstructTransactionD1B8ue170006Ev, symObjAddr: 0x31A8, symBinAddr: 0x10000630C, symSize: 0x2C }
  - { offsetInCU: 0x218E1, offset: 0x218E1, size: 0x8, addend: 0x0, symName: __ZNSt3__16vectorIiNS_9allocatorIiEEE21_ConstructTransactionC2B8ue170006ERS3_m, symObjAddr: 0x31D4, symBinAddr: 0x100006338, symSize: 0x44 }
  - { offsetInCU: 0x21947, offset: 0x21947, size: 0x8, addend: 0x0, symName: __ZNSt3__14pairIPKiS2_EC1B8ue170006IS2_S2_LPv0EEEOT_OT0_, symObjAddr: 0x336C, symBinAddr: 0x1000064D0, symSize: 0x3C }
  - { offsetInCU: 0x219A5, offset: 0x219A5, size: 0x8, addend: 0x0, symName: __ZNSt3__14pairIPKiS2_EC2B8ue170006IS2_S2_LPv0EEEOT_OT0_, symObjAddr: 0x33A8, symBinAddr: 0x10000650C, symSize: 0x34 }
  - { offsetInCU: 0x21A03, offset: 0x21A03, size: 0x8, addend: 0x0, symName: __ZNSt3__118__unwrap_iter_implIPKiLb1EE8__unwrapB8ue170006ES2_, symObjAddr: 0x33DC, symBinAddr: 0x100006540, symSize: 0x24 }
  - { offsetInCU: 0x21A49, offset: 0x21A49, size: 0x8, addend: 0x0, symName: __ZNKSt3__114__copy_trivialclB8ue170006IKiiLi0EEENS_4pairIPT_PT0_EES5_S5_S7_, symObjAddr: 0x3590, symBinAddr: 0x1000066F4, symSize: 0x48 }
  - { offsetInCU: 0x21ABB, offset: 0x21ABB, size: 0x8, addend: 0x0, symName: __ZNSt3__14pairIPKiPiEC1B8ue170006IRS2_S3_LPv0EEEOT_OT0_, symObjAddr: 0x3758, symBinAddr: 0x1000068BC, symSize: 0x3C }
  - { offsetInCU: 0x21B19, offset: 0x21B19, size: 0x8, addend: 0x0, symName: __ZNSt3__14pairIPKiPiEC2B8ue170006IRS2_S3_LPv0EEEOT_OT0_, symObjAddr: 0x3794, symBinAddr: 0x1000068F8, symSize: 0x34 }
  - { offsetInCU: 0x21B77, offset: 0x21B77, size: 0x8, addend: 0x0, symName: __ZNSt3__14pairIPKiPiEC1B8ue170006IS2_S3_LPv0EEEOT_OT0_, symObjAddr: 0x37C8, symBinAddr: 0x10000692C, symSize: 0x3C }
  - { offsetInCU: 0x21BD5, offset: 0x21BD5, size: 0x8, addend: 0x0, symName: __ZNSt3__14pairIPKiPiEC2B8ue170006IS2_S3_LPv0EEEOT_OT0_, symObjAddr: 0x3804, symBinAddr: 0x100006968, symSize: 0x34 }
  - { offsetInCU: 0x21C33, offset: 0x21C33, size: 0x8, addend: 0x0, symName: __ZNSt3__118__unwrap_iter_implIPKiLb1EE8__rewrapB8ue170006ES2_S2_, symObjAddr: 0x3874, symBinAddr: 0x1000069D8, symSize: 0x50 }
  - { offsetInCU: 0x21C64, offset: 0x21C64, size: 0x8, addend: 0x0, symName: __ZNSt3__118__unwrap_iter_implIPiLb1EE8__unwrapB8ue170006ES1_, symObjAddr: 0x38C4, symBinAddr: 0x100006A28, symSize: 0x24 }
  - { offsetInCU: 0x21C87, offset: 0x21C87, size: 0x8, addend: 0x0, symName: __ZNSt3__118__unwrap_iter_implIPiLb1EE8__rewrapB8ue170006ES1_S1_, symObjAddr: 0x38E8, symBinAddr: 0x100006A4C, symSize: 0x50 }
  - { offsetInCU: 0x21CB8, offset: 0x21CB8, size: 0x8, addend: 0x0, symName: __ZNSt3__16vectorIiNS_9allocatorIiEEE21_ConstructTransactionD2B8ue170006Ev, symObjAddr: 0x3938, symBinAddr: 0x100006A9C, symSize: 0x20 }
  - { offsetInCU: 0x21CE2, offset: 0x21CE2, size: 0x8, addend: 0x0, symName: __ZNSt3__128__exception_guard_exceptionsINS_6vectorIiNS_9allocatorIiEEE16__destroy_vectorEED2B8ue170006Ev, symObjAddr: 0x3958, symBinAddr: 0x100006ABC, symSize: 0x48 }
  - { offsetInCU: 0x21D0C, offset: 0x21D0C, size: 0x8, addend: 0x0, symName: __ZNSt3__16vectorINS0_IiNS_9allocatorIiEEEENS1_IS3_EEEC2B8ue170006ESt16initializer_listIS3_E, symObjAddr: 0x39A0, symBinAddr: 0x100006B04, symSize: 0x120 }
  - { offsetInCU: 0x21D5C, offset: 0x21D5C, size: 0x8, addend: 0x0, symName: __ZNSt3__117__compressed_pairIPNS_6vectorIiNS_9allocatorIiEEEENS2_IS4_EEEC1B8ue170006IDnNS_18__default_init_tagEEEOT_OT0_, symObjAddr: 0x3AC0, symBinAddr: 0x100006C24, symSize: 0x3C }
  - { offsetInCU: 0x21DB4, offset: 0x21DB4, size: 0x8, addend: 0x0, symName: __ZNSt3__16vectorINS0_IiNS_9allocatorIiEEEENS1_IS3_EEE16__destroy_vectorC1B8ue170006ERS5_, symObjAddr: 0x3B3C, symBinAddr: 0x100006CA0, symSize: 0x34 }
  - { offsetInCU: 0x21DED, offset: 0x21DED, size: 0x8, addend: 0x0, symName: __ZNKSt16initializer_listINSt3__16vectorIiNS0_9allocatorIiEEEEE4sizeB8ue170006Ev, symObjAddr: 0x3B70, symBinAddr: 0x100006CD4, symSize: 0x18 }
  - { offsetInCU: 0x21E13, offset: 0x21E13, size: 0x8, addend: 0x0, symName: __ZNSt3__16vectorINS0_IiNS_9allocatorIiEEEENS1_IS3_EEE11__vallocateB8ue170006Em, symObjAddr: 0x3B88, symBinAddr: 0x100006CEC, symSize: 0xB4 }
  - { offsetInCU: 0x21E57, offset: 0x21E57, size: 0x8, addend: 0x0, symName: __ZNSt3__16vectorINS0_IiNS_9allocatorIiEEEENS1_IS3_EEE18__construct_at_endIPKS3_S8_EEvT_T0_m, symObjAddr: 0x3C3C, symBinAddr: 0x100006DA0, symSize: 0x8C }
  - { offsetInCU: 0x21ECD, offset: 0x21ECD, size: 0x8, addend: 0x0, symName: __ZNKSt16initializer_listINSt3__16vectorIiNS0_9allocatorIiEEEEE5beginB8ue170006Ev, symObjAddr: 0x3CC8, symBinAddr: 0x100006E2C, symSize: 0x18 }
  - { offsetInCU: 0x21EF3, offset: 0x21EF3, size: 0x8, addend: 0x0, symName: __ZNKSt16initializer_listINSt3__16vectorIiNS0_9allocatorIiEEEEE3endB8ue170006Ev, symObjAddr: 0x3CE0, symBinAddr: 0x100006E44, symSize: 0x28 }
  - { offsetInCU: 0x21F19, offset: 0x21F19, size: 0x8, addend: 0x0, symName: __ZNSt3__128__exception_guard_exceptionsINS_6vectorINS1_IiNS_9allocatorIiEEEENS2_IS4_EEE16__destroy_vectorEE10__completeB8ue170006Ev, symObjAddr: 0x3D08, symBinAddr: 0x100006E6C, symSize: 0x1C }
  - { offsetInCU: 0x21F3F, offset: 0x21F3F, size: 0x8, addend: 0x0, symName: __ZNSt3__128__exception_guard_exceptionsINS_6vectorINS1_IiNS_9allocatorIiEEEENS2_IS4_EEE16__destroy_vectorEED1B8ue170006Ev, symObjAddr: 0x3D24, symBinAddr: 0x100006E88, symSize: 0x2C }
  - { offsetInCU: 0x21F69, offset: 0x21F69, size: 0x8, addend: 0x0, symName: __ZNSt3__117__compressed_pairIPNS_6vectorIiNS_9allocatorIiEEEENS2_IS4_EEEC2B8ue170006IDnNS_18__default_init_tagEEEOT_OT0_, symObjAddr: 0x3D50, symBinAddr: 0x100006EB4, symSize: 0x40 }
  - { offsetInCU: 0x21FC1, offset: 0x21FC1, size: 0x8, addend: 0x0, symName: __ZNSt3__122__compressed_pair_elemIPNS_6vectorIiNS_9allocatorIiEEEELi0ELb0EEC2B8ue170006IDnvEEOT_, symObjAddr: 0x3D90, symBinAddr: 0x100006EF4, symSize: 0x1C }
  - { offsetInCU: 0x22003, offset: 0x22003, size: 0x8, addend: 0x0, symName: __ZNSt3__122__compressed_pair_elemINS_9allocatorINS_6vectorIiNS1_IiEEEEEELi1ELb1EEC2B8ue170006ENS_18__default_init_tagE, symObjAddr: 0x3DAC, symBinAddr: 0x100006F10, symSize: 0x2C }
  - { offsetInCU: 0x22037, offset: 0x22037, size: 0x8, addend: 0x0, symName: __ZNSt3__19allocatorINS_6vectorIiNS0_IiEEEEEC2B8ue170006Ev, symObjAddr: 0x3DD8, symBinAddr: 0x100006F3C, symSize: 0x2C }
  - { offsetInCU: 0x22061, offset: 0x22061, size: 0x8, addend: 0x0, symName: __ZNSt3__116__non_trivial_ifILb1ENS_9allocatorINS_6vectorIiNS1_IiEEEEEEEC2B8ue170006Ev, symObjAddr: 0x3E04, symBinAddr: 0x100006F68, symSize: 0x14 }
  - { offsetInCU: 0x2208B, offset: 0x2208B, size: 0x8, addend: 0x0, symName: __ZNSt3__128__exception_guard_exceptionsINS_6vectorINS1_IiNS_9allocatorIiEEEENS2_IS4_EEE16__destroy_vectorEEC1B8ue170006ES7_, symObjAddr: 0x3E18, symBinAddr: 0x100006F7C, symSize: 0x34 }
  - { offsetInCU: 0x220C3, offset: 0x220C3, size: 0x8, addend: 0x0, symName: __ZNSt3__128__exception_guard_exceptionsINS_6vectorINS1_IiNS_9allocatorIiEEEENS2_IS4_EEE16__destroy_vectorEEC2B8ue170006ES7_, symObjAddr: 0x3E4C, symBinAddr: 0x100006FB0, symSize: 0x24 }
  - { offsetInCU: 0x220FB, offset: 0x220FB, size: 0x8, addend: 0x0, symName: __ZNSt3__16vectorINS0_IiNS_9allocatorIiEEEENS1_IS3_EEE16__destroy_vectorC2B8ue170006ERS5_, symObjAddr: 0x3E70, symBinAddr: 0x100006FD4, symSize: 0x20 }
  - { offsetInCU: 0x22134, offset: 0x22134, size: 0x8, addend: 0x0, symName: __ZNKSt3__16vectorINS0_IiNS_9allocatorIiEEEENS1_IS3_EEE8max_sizeEv, symObjAddr: 0x3E90, symBinAddr: 0x100006FF4, symSize: 0x60 }
  - { offsetInCU: 0x2215C, offset: 0x2215C, size: 0x8, addend: 0x0, symName: __ZNKSt3__16vectorINS0_IiNS_9allocatorIiEEEENS1_IS3_EEE20__throw_length_errorB8ue170006Ev, symObjAddr: 0x3EF0, symBinAddr: 0x100007054, symSize: 0x1C }
  - { offsetInCU: 0x22182, offset: 0x22182, size: 0x8, addend: 0x0, symName: __ZNSt3__16vectorINS0_IiNS_9allocatorIiEEEENS1_IS3_EEE7__allocB8ue170006Ev, symObjAddr: 0x3F4C, symBinAddr: 0x1000070B0, symSize: 0x28 }
  - { offsetInCU: 0x221A8, offset: 0x221A8, size: 0x8, addend: 0x0, symName: __ZNSt3__16vectorINS0_IiNS_9allocatorIiEEEENS1_IS3_EEE9__end_capB8ue170006Ev, symObjAddr: 0x3F74, symBinAddr: 0x1000070D8, symSize: 0x28 }
  - { offsetInCU: 0x221CE, offset: 0x221CE, size: 0x8, addend: 0x0, symName: __ZNKSt3__16vectorINS0_IiNS_9allocatorIiEEEENS1_IS3_EEE14__annotate_newB8ue170006Em, symObjAddr: 0x3F9C, symBinAddr: 0x100007100, symSize: 0xC8 }
  - { offsetInCU: 0x2220D, offset: 0x2220D, size: 0x8, addend: 0x0, symName: __ZNSt3__116allocator_traitsINS_9allocatorINS_6vectorIiNS1_IiEEEEEEE8max_sizeB8ue170006IS5_vEEmRKS5_, symObjAddr: 0x4064, symBinAddr: 0x1000071C8, symSize: 0x24 }
  - { offsetInCU: 0x2223B, offset: 0x2223B, size: 0x8, addend: 0x0, symName: __ZNKSt3__16vectorINS0_IiNS_9allocatorIiEEEENS1_IS3_EEE7__allocB8ue170006Ev, symObjAddr: 0x4088, symBinAddr: 0x1000071EC, symSize: 0x28 }
  - { offsetInCU: 0x22261, offset: 0x22261, size: 0x8, addend: 0x0, symName: __ZNKSt3__19allocatorINS_6vectorIiNS0_IiEEEEE8max_sizeB8ue170006Ev, symObjAddr: 0x40B0, symBinAddr: 0x100007214, symSize: 0x18 }
  - { offsetInCU: 0x22287, offset: 0x22287, size: 0x8, addend: 0x0, symName: __ZNKSt3__117__compressed_pairIPNS_6vectorIiNS_9allocatorIiEEEENS2_IS4_EEE6secondB8ue170006Ev, symObjAddr: 0x40C8, symBinAddr: 0x10000722C, symSize: 0x24 }
  - { offsetInCU: 0x222AD, offset: 0x222AD, size: 0x8, addend: 0x0, symName: __ZNKSt3__122__compressed_pair_elemINS_9allocatorINS_6vectorIiNS1_IiEEEEEELi1ELb1EE5__getB8ue170006Ev, symObjAddr: 0x40EC, symBinAddr: 0x100007250, symSize: 0x14 }
  - { offsetInCU: 0x222D3, offset: 0x222D3, size: 0x8, addend: 0x0, symName: __ZNSt3__19allocatorINS_6vectorIiNS0_IiEEEEE8allocateB8ue170006Em, symObjAddr: 0x4100, symBinAddr: 0x100007264, symSize: 0x5C }
  - { offsetInCU: 0x22307, offset: 0x22307, size: 0x8, addend: 0x0, symName: __ZNSt3__117__compressed_pairIPNS_6vectorIiNS_9allocatorIiEEEENS2_IS4_EEE6secondB8ue170006Ev, symObjAddr: 0x415C, symBinAddr: 0x1000072C0, symSize: 0x24 }
  - { offsetInCU: 0x2232D, offset: 0x2232D, size: 0x8, addend: 0x0, symName: __ZNSt3__122__compressed_pair_elemINS_9allocatorINS_6vectorIiNS1_IiEEEEEELi1ELb1EE5__getB8ue170006Ev, symObjAddr: 0x4180, symBinAddr: 0x1000072E4, symSize: 0x14 }
  - { offsetInCU: 0x22353, offset: 0x22353, size: 0x8, addend: 0x0, symName: __ZNSt3__117__compressed_pairIPNS_6vectorIiNS_9allocatorIiEEEENS2_IS4_EEE5firstB8ue170006Ev, symObjAddr: 0x4194, symBinAddr: 0x1000072F8, symSize: 0x24 }
  - { offsetInCU: 0x22379, offset: 0x22379, size: 0x8, addend: 0x0, symName: __ZNSt3__122__compressed_pair_elemIPNS_6vectorIiNS_9allocatorIiEEEELi0ELb0EE5__getB8ue170006Ev, symObjAddr: 0x41B8, symBinAddr: 0x10000731C, symSize: 0x14 }
  - { offsetInCU: 0x2239F, offset: 0x2239F, size: 0x8, addend: 0x0, symName: __ZNKSt3__16vectorINS0_IiNS_9allocatorIiEEEENS1_IS3_EEE31__annotate_contiguous_containerB8ue170006EPKvS7_S7_S7_, symObjAddr: 0x41CC, symBinAddr: 0x100007330, symSize: 0x20 }
  - { offsetInCU: 0x223F1, offset: 0x223F1, size: 0x8, addend: 0x0, symName: __ZNKSt3__16vectorINS0_IiNS_9allocatorIiEEEENS1_IS3_EEE4dataB8ue170006Ev, symObjAddr: 0x41EC, symBinAddr: 0x100007350, symSize: 0x28 }
  - { offsetInCU: 0x22417, offset: 0x22417, size: 0x8, addend: 0x0, symName: __ZNKSt3__16vectorINS0_IiNS_9allocatorIiEEEENS1_IS3_EEE8capacityB8ue170006Ev, symObjAddr: 0x4214, symBinAddr: 0x100007378, symSize: 0x40 }
  - { offsetInCU: 0x2243D, offset: 0x2243D, size: 0x8, addend: 0x0, symName: __ZNKSt3__16vectorINS0_IiNS_9allocatorIiEEEENS1_IS3_EEE9__end_capB8ue170006Ev, symObjAddr: 0x4268, symBinAddr: 0x1000073CC, symSize: 0x28 }
  - { offsetInCU: 0x22463, offset: 0x22463, size: 0x8, addend: 0x0, symName: __ZNKSt3__117__compressed_pairIPNS_6vectorIiNS_9allocatorIiEEEENS2_IS4_EEE5firstB8ue170006Ev, symObjAddr: 0x4290, symBinAddr: 0x1000073F4, symSize: 0x24 }
  - { offsetInCU: 0x22489, offset: 0x22489, size: 0x8, addend: 0x0, symName: __ZNKSt3__122__compressed_pair_elemIPNS_6vectorIiNS_9allocatorIiEEEELi0ELb0EE5__getB8ue170006Ev, symObjAddr: 0x42B4, symBinAddr: 0x100007418, symSize: 0x14 }
  - { offsetInCU: 0x224C8, offset: 0x224C8, size: 0x8, addend: 0x0, symName: __ZNSt3__16vectorINS0_IiNS_9allocatorIiEEEENS1_IS3_EEE21_ConstructTransactionC1B8ue170006ERS5_m, symObjAddr: 0x42C8, symBinAddr: 0x10000742C, symSize: 0x3C }
  - { offsetInCU: 0x22510, offset: 0x22510, size: 0x8, addend: 0x0, symName: __ZNSt3__16vectorINS0_IiNS_9allocatorIiEEEENS1_IS3_EEE21_ConstructTransactionD1B8ue170006Ev, symObjAddr: 0x4384, symBinAddr: 0x1000074E8, symSize: 0x2C }
  - { offsetInCU: 0x2253A, offset: 0x2253A, size: 0x8, addend: 0x0, symName: __ZNSt3__16vectorINS0_IiNS_9allocatorIiEEEENS1_IS3_EEE21_ConstructTransactionC2B8ue170006ERS5_m, symObjAddr: 0x43B0, symBinAddr: 0x100007514, symSize: 0x4C }
  - { offsetInCU: 0x225A0, offset: 0x225A0, size: 0x8, addend: 0x0, symName: __ZNSt3__14pairIPKNS_6vectorIiNS_9allocatorIiEEEES6_EC1B8ue170006IS6_S6_LPv0EEEOT_OT0_, symObjAddr: 0x460C, symBinAddr: 0x100007770, symSize: 0x3C }
  - { offsetInCU: 0x225FE, offset: 0x225FE, size: 0x8, addend: 0x0, symName: __ZNSt3__14pairIPKNS_6vectorIiNS_9allocatorIiEEEES6_EC2B8ue170006IS6_S6_LPv0EEEOT_OT0_, symObjAddr: 0x4648, symBinAddr: 0x1000077AC, symSize: 0x34 }
  - { offsetInCU: 0x2265C, offset: 0x2265C, size: 0x8, addend: 0x0, symName: __ZNSt3__118__unwrap_iter_implIPKNS_6vectorIiNS_9allocatorIiEEEELb1EE8__unwrapB8ue170006ES6_, symObjAddr: 0x467C, symBinAddr: 0x1000077E0, symSize: 0x24 }
  - { offsetInCU: 0x2267F, offset: 0x2267F, size: 0x8, addend: 0x0, symName: __ZNSt3__129_AllocatorDestroyRangeReverseINS_9allocatorINS_6vectorIiNS1_IiEEEEEEPS4_EC1B8ue170006ERS5_RS6_S9_, symObjAddr: 0x4700, symBinAddr: 0x100007864, symSize: 0x44 }
  - { offsetInCU: 0x226D6, offset: 0x226D6, size: 0x8, addend: 0x0, symName: __ZNSt3__116allocator_traitsINS_9allocatorINS_6vectorIiNS1_IiEEEEEEE9constructB8ue170006IS4_JRKS4_EvEEvRS5_PT_DpOT0_, symObjAddr: 0x4744, symBinAddr: 0x1000078A8, symSize: 0x34 }
  - { offsetInCU: 0x2272D, offset: 0x2272D, size: 0x8, addend: 0x0, symName: __ZNSt3__128__exception_guard_exceptionsINS_29_AllocatorDestroyRangeReverseINS_9allocatorINS_6vectorIiNS2_IiEEEEEEPS5_EEE10__completeB8ue170006Ev, symObjAddr: 0x4778, symBinAddr: 0x1000078DC, symSize: 0x1C }
  - { offsetInCU: 0x22753, offset: 0x22753, size: 0x8, addend: 0x0, symName: __ZNSt3__128__exception_guard_exceptionsINS_29_AllocatorDestroyRangeReverseINS_9allocatorINS_6vectorIiNS2_IiEEEEEEPS5_EEED1B8ue170006Ev, symObjAddr: 0x4794, symBinAddr: 0x1000078F8, symSize: 0x2C }
  - { offsetInCU: 0x2277D, offset: 0x2277D, size: 0x8, addend: 0x0, symName: __ZNSt3__128__exception_guard_exceptionsINS_29_AllocatorDestroyRangeReverseINS_9allocatorINS_6vectorIiNS2_IiEEEEEEPS5_EEEC1B8ue170006ES8_, symObjAddr: 0x47C0, symBinAddr: 0x100007924, symSize: 0x34 }
  - { offsetInCU: 0x227B6, offset: 0x227B6, size: 0x8, addend: 0x0, symName: __ZNSt3__128__exception_guard_exceptionsINS_29_AllocatorDestroyRangeReverseINS_9allocatorINS_6vectorIiNS2_IiEEEEEEPS5_EEEC2B8ue170006ES8_, symObjAddr: 0x47F4, symBinAddr: 0x100007958, symSize: 0x30 }
  - { offsetInCU: 0x227EF, offset: 0x227EF, size: 0x8, addend: 0x0, symName: __ZNSt3__129_AllocatorDestroyRangeReverseINS_9allocatorINS_6vectorIiNS1_IiEEEEEEPS4_EC2B8ue170006ERS5_RS6_S9_, symObjAddr: 0x4824, symBinAddr: 0x100007988, symSize: 0x38 }
  - { offsetInCU: 0x22846, offset: 0x22846, size: 0x8, addend: 0x0, symName: __ZNSt3__19allocatorINS_6vectorIiNS0_IiEEEEE9constructB8ue170006IS3_JRKS3_EEEvPT_DpOT0_, symObjAddr: 0x485C, symBinAddr: 0x1000079C0, symSize: 0x30 }
  - { offsetInCU: 0x2289C, offset: 0x2289C, size: 0x8, addend: 0x0, symName: __ZNSt3__16vectorIiNS_9allocatorIiEEEC1ERKS3_, symObjAddr: 0x488C, symBinAddr: 0x1000079F0, symSize: 0x34 }
  - { offsetInCU: 0x228D7, offset: 0x228D7, size: 0x8, addend: 0x0, symName: __ZNSt3__16vectorIiNS_9allocatorIiEEEC2ERKS3_, symObjAddr: 0x48C0, symBinAddr: 0x100007A24, symSize: 0x94 }
  - { offsetInCU: 0x22912, offset: 0x22912, size: 0x8, addend: 0x0, symName: __ZNSt3__116allocator_traitsINS_9allocatorIiEEE37select_on_container_copy_constructionB8ue170006IS2_vvEES2_RKS2_, symObjAddr: 0x4954, symBinAddr: 0x100007AB8, symSize: 0x10 }
  - { offsetInCU: 0x22946, offset: 0x22946, size: 0x8, addend: 0x0, symName: __ZNSt3__117__compressed_pairIPiNS_9allocatorIiEEEC1B8ue170006IDnS3_EEOT_OT0_, symObjAddr: 0x4964, symBinAddr: 0x100007AC8, symSize: 0x3C }
  - { offsetInCU: 0x2299E, offset: 0x2299E, size: 0x8, addend: 0x0, symName: __ZNSt3__16vectorIiNS_9allocatorIiEEE16__init_with_sizeB8ue170006IPiS5_EEvT_T0_m, symObjAddr: 0x49A0, symBinAddr: 0x100007B04, symSize: 0xB8 }
  - { offsetInCU: 0x22A12, offset: 0x22A12, size: 0x8, addend: 0x0, symName: __ZNSt3__117__compressed_pairIPiNS_9allocatorIiEEEC2B8ue170006IDnS3_EEOT_OT0_, symObjAddr: 0x4A58, symBinAddr: 0x100007BBC, symSize: 0x44 }
  - { offsetInCU: 0x22A6A, offset: 0x22A6A, size: 0x8, addend: 0x0, symName: __ZNSt3__122__compressed_pair_elemINS_9allocatorIiEELi1ELb1EEC2B8ue170006IS2_vEEOT_, symObjAddr: 0x4A9C, symBinAddr: 0x100007C00, symSize: 0x18 }
  - { offsetInCU: 0x22AAC, offset: 0x22AAC, size: 0x8, addend: 0x0, symName: __ZNSt3__16vectorIiNS_9allocatorIiEEE18__construct_at_endIPiS5_EEvT_T0_m, symObjAddr: 0x4AB4, symBinAddr: 0x100007C18, symSize: 0x8C }
  - { offsetInCU: 0x22B3B, offset: 0x22B3B, size: 0x8, addend: 0x0, symName: __ZNSt3__14pairIPiS1_EC1B8ue170006IS1_S1_LPv0EEEOT_OT0_, symObjAddr: 0x4C90, symBinAddr: 0x100007DF4, symSize: 0x3C }
  - { offsetInCU: 0x22B99, offset: 0x22B99, size: 0x8, addend: 0x0, symName: __ZNSt3__14pairIPiS1_EC2B8ue170006IS1_S1_LPv0EEEOT_OT0_, symObjAddr: 0x4CCC, symBinAddr: 0x100007E30, symSize: 0x34 }
  - { offsetInCU: 0x22BF7, offset: 0x22BF7, size: 0x8, addend: 0x0, symName: __ZNKSt3__114__copy_trivialclB8ue170006IiiLi0EEENS_4pairIPT_PT0_EES4_S4_S6_, symObjAddr: 0x4E7C, symBinAddr: 0x100007FE0, symSize: 0x48 }
  - { offsetInCU: 0x22C5F, offset: 0x22C5F, size: 0x8, addend: 0x0, symName: __ZNSt3__14pairIPiS1_EC1B8ue170006IRS1_S1_LPv0EEEOT_OT0_, symObjAddr: 0x500C, symBinAddr: 0x100008170, symSize: 0x3C }
  - { offsetInCU: 0x22CBD, offset: 0x22CBD, size: 0x8, addend: 0x0, symName: __ZNSt3__14pairIPiS1_EC2B8ue170006IRS1_S1_LPv0EEEOT_OT0_, symObjAddr: 0x5048, symBinAddr: 0x1000081AC, symSize: 0x34 }
  - { offsetInCU: 0x22D1B, offset: 0x22D1B, size: 0x8, addend: 0x0, symName: __ZNSt3__128__exception_guard_exceptionsINS_29_AllocatorDestroyRangeReverseINS_9allocatorINS_6vectorIiNS2_IiEEEEEEPS5_EEED2B8ue170006Ev, symObjAddr: 0x507C, symBinAddr: 0x1000081E0, symSize: 0x50 }
  - { offsetInCU: 0x22D45, offset: 0x22D45, size: 0x8, addend: 0x0, symName: __ZNKSt3__129_AllocatorDestroyRangeReverseINS_9allocatorINS_6vectorIiNS1_IiEEEEEEPS4_EclB8ue170006Ev, symObjAddr: 0x50CC, symBinAddr: 0x100008230, symSize: 0x68 }
  - { offsetInCU: 0x22D6B, offset: 0x22D6B, size: 0x8, addend: 0x0, symName: __ZNSt3__116reverse_iteratorIPNS_6vectorIiNS_9allocatorIiEEEEEC1B8ue170006ES5_, symObjAddr: 0x51A4, symBinAddr: 0x100008308, symSize: 0x34 }
  - { offsetInCU: 0x22DA3, offset: 0x22DA3, size: 0x8, addend: 0x0, symName: __ZNSt3__116allocator_traitsINS_9allocatorINS_6vectorIiNS1_IiEEEEEEE7destroyB8ue170006IS4_vEEvRS5_PT_, symObjAddr: 0x5220, symBinAddr: 0x100008384, symSize: 0x2C }
  - { offsetInCU: 0x22DE0, offset: 0x22DE0, size: 0x8, addend: 0x0, symName: __ZNSt3__116reverse_iteratorIPNS_6vectorIiNS_9allocatorIiEEEEEppB8ue170006Ev, symObjAddr: 0x5270, symBinAddr: 0x1000083D4, symSize: 0x20 }
  - { offsetInCU: 0x22E06, offset: 0x22E06, size: 0x8, addend: 0x0, symName: __ZNKSt3__116reverse_iteratorIPNS_6vectorIiNS_9allocatorIiEEEEE4baseB8ue170006Ev, symObjAddr: 0x5290, symBinAddr: 0x1000083F4, symSize: 0x18 }
  - { offsetInCU: 0x22E2C, offset: 0x22E2C, size: 0x8, addend: 0x0, symName: __ZNSt3__19allocatorINS_6vectorIiNS0_IiEEEEE7destroyB8ue170006EPS3_, symObjAddr: 0x52A8, symBinAddr: 0x10000840C, symSize: 0x28 }
  - { offsetInCU: 0x22E65, offset: 0x22E65, size: 0x8, addend: 0x0, symName: __ZNSt3__119__to_address_helperINS_16reverse_iteratorIPNS_6vectorIiNS_9allocatorIiEEEEEEvE6__callB8ue170006ERKS7_, symObjAddr: 0x52D0, symBinAddr: 0x100008434, symSize: 0x38 }
  - { offsetInCU: 0x22E88, offset: 0x22E88, size: 0x8, addend: 0x0, symName: __ZNKSt3__116reverse_iteratorIPNS_6vectorIiNS_9allocatorIiEEEEEptB8ue170006Ev, symObjAddr: 0x5308, symBinAddr: 0x10000846C, symSize: 0x24 }
  - { offsetInCU: 0x22EAE, offset: 0x22EAE, size: 0x8, addend: 0x0, symName: __ZNKSt3__116reverse_iteratorIPNS_6vectorIiNS_9allocatorIiEEEEEdeB8ue170006Ev, symObjAddr: 0x532C, symBinAddr: 0x100008490, symSize: 0x28 }
  - { offsetInCU: 0x22EE2, offset: 0x22EE2, size: 0x8, addend: 0x0, symName: __ZNSt3__116reverse_iteratorIPNS_6vectorIiNS_9allocatorIiEEEEEC2B8ue170006ES5_, symObjAddr: 0x5354, symBinAddr: 0x1000084B8, symSize: 0x28 }
  - { offsetInCU: 0x22F1A, offset: 0x22F1A, size: 0x8, addend: 0x0, symName: __ZNSt3__118__unwrap_iter_implIPNS_6vectorIiNS_9allocatorIiEEEELb1EE8__unwrapB8ue170006ES5_, symObjAddr: 0x537C, symBinAddr: 0x1000084E0, symSize: 0x24 }
  - { offsetInCU: 0x22F3D, offset: 0x22F3D, size: 0x8, addend: 0x0, symName: __ZNSt3__118__unwrap_iter_implIPNS_6vectorIiNS_9allocatorIiEEEELb1EE8__rewrapB8ue170006ES5_S5_, symObjAddr: 0x53A0, symBinAddr: 0x100008504, symSize: 0x58 }
  - { offsetInCU: 0x22F6E, offset: 0x22F6E, size: 0x8, addend: 0x0, symName: __ZNSt3__16vectorINS0_IiNS_9allocatorIiEEEENS1_IS3_EEE21_ConstructTransactionD2B8ue170006Ev, symObjAddr: 0x53F8, symBinAddr: 0x10000855C, symSize: 0x20 }
  - { offsetInCU: 0x22F98, offset: 0x22F98, size: 0x8, addend: 0x0, symName: __ZNSt3__128__exception_guard_exceptionsINS_6vectorINS1_IiNS_9allocatorIiEEEENS2_IS4_EEE16__destroy_vectorEED2B8ue170006Ev, symObjAddr: 0x5418, symBinAddr: 0x10000857C, symSize: 0x50 }
  - { offsetInCU: 0x22FC2, offset: 0x22FC2, size: 0x8, addend: 0x0, symName: __ZNSt3__16vectorINS0_IiNS_9allocatorIiEEEENS1_IS3_EEE16__destroy_vectorclB8ue170006Ev, symObjAddr: 0x5468, symBinAddr: 0x1000085CC, symSize: 0x90 }
  - { offsetInCU: 0x22FE8, offset: 0x22FE8, size: 0x8, addend: 0x0, symName: __ZNSt3__16vectorINS0_IiNS_9allocatorIiEEEENS1_IS3_EEE7__clearB8ue170006Ev, symObjAddr: 0x54F8, symBinAddr: 0x10000865C, symSize: 0x28 }
  - { offsetInCU: 0x2300E, offset: 0x2300E, size: 0x8, addend: 0x0, symName: __ZNKSt3__16vectorINS0_IiNS_9allocatorIiEEEENS1_IS3_EEE17__annotate_deleteB8ue170006Ev, symObjAddr: 0x5520, symBinAddr: 0x100008684, symSize: 0xD4 }
  - { offsetInCU: 0x23034, offset: 0x23034, size: 0x8, addend: 0x0, symName: __ZNSt3__116allocator_traitsINS_9allocatorINS_6vectorIiNS1_IiEEEEEEE10deallocateB8ue170006ERS5_PS4_m, symObjAddr: 0x55F4, symBinAddr: 0x100008758, symSize: 0x34 }
  - { offsetInCU: 0x23076, offset: 0x23076, size: 0x8, addend: 0x0, symName: __ZNSt3__16vectorINS0_IiNS_9allocatorIiEEEENS1_IS3_EEE22__base_destruct_at_endB8ue170006EPS3_, symObjAddr: 0x5628, symBinAddr: 0x10000878C, symSize: 0x8C }
  - { offsetInCU: 0x230BA, offset: 0x230BA, size: 0x8, addend: 0x0, symName: __ZNSt3__19allocatorINS_6vectorIiNS0_IiEEEEE10deallocateB8ue170006EPS3_m, symObjAddr: 0x56B4, symBinAddr: 0x100008818, symSize: 0x44 }
  - { offsetInCU: 0x230FC, offset: 0x230FC, size: 0x8, addend: 0x0, symName: __ZNSt3__16vectorINS0_IiNS_9allocatorIiEEEENS1_IS3_EEED2B8ue170006Ev, symObjAddr: 0x56F8, symBinAddr: 0x10000885C, symSize: 0x40 }
  - { offsetInCU: 0x23126, offset: 0x23126, size: 0x8, addend: 0x0, symName: __ZNSt3__112basic_stringIcNS_11char_traitsIcEENS_9allocatorIcEEEC2B8ue170006ILi0EEEPKc, symObjAddr: 0x5738, symBinAddr: 0x10000889C, symSize: 0x58 }
  - { offsetInCU: 0x23165, offset: 0x23165, size: 0x8, addend: 0x0, symName: __ZNSt3__117__compressed_pairINS_12basic_stringIcNS_11char_traitsIcEENS_9allocatorIcEEE5__repES5_EC1B8ue170006INS_18__default_init_tagESA_EEOT_OT0_, symObjAddr: 0x5790, symBinAddr: 0x1000088F4, symSize: 0x3C }
  - { offsetInCU: 0x231BD, offset: 0x231BD, size: 0x8, addend: 0x0, symName: __ZNSt3__111char_traitsIcE6lengthB8ue170006EPKc, symObjAddr: 0x57CC, symBinAddr: 0x100008930, symSize: 0x34 }
  - { offsetInCU: 0x231E0, offset: 0x231E0, size: 0x8, addend: 0x0, symName: __ZNSt3__117__compressed_pairINS_12basic_stringIcNS_11char_traitsIcEENS_9allocatorIcEEE5__repES5_EC2B8ue170006INS_18__default_init_tagESA_EEOT_OT0_, symObjAddr: 0x5800, symBinAddr: 0x100008964, symSize: 0x3C }
  - { offsetInCU: 0x23238, offset: 0x23238, size: 0x8, addend: 0x0, symName: __ZNSt3__122__compressed_pair_elemINS_12basic_stringIcNS_11char_traitsIcEENS_9allocatorIcEEE5__repELi0ELb0EEC2B8ue170006ENS_18__default_init_tagE, symObjAddr: 0x583C, symBinAddr: 0x1000089A0, symSize: 0x14 }
  - { offsetInCU: 0x2326C, offset: 0x2326C, size: 0x8, addend: 0x0, symName: __ZNSt3__122__compressed_pair_elemINS_9allocatorIcEELi1ELb1EEC2B8ue170006ENS_18__default_init_tagE, symObjAddr: 0x5850, symBinAddr: 0x1000089B4, symSize: 0x2C }
  - { offsetInCU: 0x232A0, offset: 0x232A0, size: 0x8, addend: 0x0, symName: __ZNSt3__19allocatorIcEC2B8ue170006Ev, symObjAddr: 0x587C, symBinAddr: 0x1000089E0, symSize: 0x2C }
  - { offsetInCU: 0x232CA, offset: 0x232CA, size: 0x8, addend: 0x0, symName: __ZNSt3__116__non_trivial_ifILb1ENS_9allocatorIcEEEC2B8ue170006Ev, symObjAddr: 0x58A8, symBinAddr: 0x100008A0C, symSize: 0x14 }
  - { offsetInCU: 0x232F4, offset: 0x232F4, size: 0x8, addend: 0x0, symName: __ZN5boost7variantIiJfbEEC2IiEEOT_NS_9enable_ifINS_3mpl3or_INS6_4and_INS_19is_rvalue_referenceIS4_EENS6_4not_INS_8is_constIS3_EEEENSB_INS_7is_sameIS3_S1_EEEENS_6detail7variant29is_variant_constructible_fromIS4_NS6_6l_itemIN4mpl_5long_ILl3EEEiNSL_INSN_ILl2EEEfNSL_INSN_ILl1EEEbNS6_5l_endEEEEEEEEENSM_5bool_ILb1EEEEENSF_IS3_NS_18recursive_variant_EEENSW_ILb0EEES11_S11_EEbE4typeE, symObjAddr: 0x58E0, symBinAddr: 0x100008A44, symSize: 0x80 }
  - { offsetInCU: 0x23341, offset: 0x23341, size: 0x8, addend: 0x0, symName: __ZN5boost15aligned_storageILm4ELm4EEC1Ev, symObjAddr: 0x5960, symBinAddr: 0x100008AC4, symSize: 0x2C }
  - { offsetInCU: 0x2336B, offset: 0x2336B, size: 0x8, addend: 0x0, symName: __ZN5boost7variantIiJfbEE17convert_constructIiEENS_9enable_ifINS_19is_rvalue_referenceIOT_EEvE4typeES6_iN4mpl_5bool_ILb0EEE, symObjAddr: 0x598C, symBinAddr: 0x100008AF0, symSize: 0x48 }
  - { offsetInCU: 0x233BF, offset: 0x233BF, size: 0x8, addend: 0x0, symName: __ZN5boost15aligned_storageILm4ELm4EED1Ev, symObjAddr: 0x59D4, symBinAddr: 0x100008B38, symSize: 0x2C }
  - { offsetInCU: 0x233E9, offset: 0x233E9, size: 0x8, addend: 0x0, symName: __ZN5boost15aligned_storageILm4ELm4EEC2Ev, symObjAddr: 0x5A00, symBinAddr: 0x100008B64, symSize: 0x14 }
  - { offsetInCU: 0x23413, offset: 0x23413, size: 0x8, addend: 0x0, symName: __ZN5boost7variantIiJfbEE14indicate_whichEi, symObjAddr: 0x5A14, symBinAddr: 0x100008B78, symSize: 0x20 }
  - { offsetInCU: 0x23448, offset: 0x23448, size: 0x8, addend: 0x0, symName: __ZN5boost6detail7variant21make_initializer_node5applyINS_3mpl4pairINS1_16initializer_rootEN4mpl_4int_ILi0EEEEENS4_6l_iterINS4_5list3IifbEEEEE16initializer_node10initializeEPvOi, symObjAddr: 0x5A34, symBinAddr: 0x100008B98, symSize: 0x28 }
  - { offsetInCU: 0x23479, offset: 0x23479, size: 0x8, addend: 0x0, symName: __ZN5boost15aligned_storageILm4ELm4EE7addressEv, symObjAddr: 0x5A5C, symBinAddr: 0x100008BC0, symSize: 0x24 }
  - { offsetInCU: 0x2349F, offset: 0x2349F, size: 0x8, addend: 0x0, symName: __ZNK5boost6detail15aligned_storage19aligned_storage_impILm4ELm4EE7addressEv, symObjAddr: 0x5A80, symBinAddr: 0x100008BE4, symSize: 0x14 }
  - { offsetInCU: 0x234C5, offset: 0x234C5, size: 0x8, addend: 0x0, symName: __ZN5boost15aligned_storageILm4ELm4EED2Ev, symObjAddr: 0x5A94, symBinAddr: 0x100008BF8, symSize: 0x14 }
  - { offsetInCU: 0x234EF, offset: 0x234EF, size: 0x8, addend: 0x0, symName: __ZN5boost7variantIiJfbEED2Ev, symObjAddr: 0x5AA8, symBinAddr: 0x100008C0C, symSize: 0x38 }
  - { offsetInCU: 0x235A2, offset: 0x235A2, size: 0x8, addend: 0x0, symName: __ZN5boost7variantIiJfbEE15destroy_contentEv, symObjAddr: 0x5AE0, symBinAddr: 0x100008C44, symSize: 0x3B8 }
  - { offsetInCU: 0x2368D, offset: 0x2368D, size: 0x8, addend: 0x0, symName: __ZNK5boost7variantIiJfbEE5whichEv, symObjAddr: 0x5EE8, symBinAddr: 0x10000904C, symSize: 0x60 }
  - { offsetInCU: 0x236BD, offset: 0x236BD, size: 0x8, addend: 0x0, symName: __ZNK5boost6detail7variant9destroyer14internal_visitIiEEvRT_i, symObjAddr: 0x60B8, symBinAddr: 0x10000921C, symSize: 0x18 }
  - { offsetInCU: 0x23706, offset: 0x23706, size: 0x8, addend: 0x0, symName: __ZNK5boost6detail7variant9destroyer14internal_visitIfEEvRT_i, symObjAddr: 0x612C, symBinAddr: 0x100009290, symSize: 0x18 }
  - { offsetInCU: 0x2374F, offset: 0x2374F, size: 0x8, addend: 0x0, symName: __ZNK5boost6detail7variant9destroyer14internal_visitIbEEvRT_i, symObjAddr: 0x61A0, symBinAddr: 0x100009304, symSize: 0x18 }
  - { offsetInCU: 0x23798, offset: 0x23798, size: 0x8, addend: 0x0, symName: __ZNK5boost7variantIiJfbEE12using_backupEv, symObjAddr: 0x61F8, symBinAddr: 0x10000935C, symSize: 0x24 }
  - { offsetInCU: 0x237BE, offset: 0x237BE, size: 0x8, addend: 0x0, symName: __ZN5boost7variantIiJfbNSt3__112basic_stringIcNS1_11char_traitsIcEENS1_9allocatorIcEEEEEED2Ev, symObjAddr: 0x621C, symBinAddr: 0x100009380, symSize: 0x38 }
  - { offsetInCU: 0x2386C, offset: 0x2386C, size: 0x8, addend: 0x0, symName: __ZN5boost7variantIiJfbNSt3__112basic_stringIcNS1_11char_traitsIcEENS1_9allocatorIcEEEEEE15destroy_contentEv, symObjAddr: 0x6254, symBinAddr: 0x1000093B8, symSize: 0x3B8 }
  - { offsetInCU: 0x23957, offset: 0x23957, size: 0x8, addend: 0x0, symName: __ZN5boost15aligned_storageILm24ELm8EED1Ev, symObjAddr: 0x665C, symBinAddr: 0x1000097C0, symSize: 0x2C }
  - { offsetInCU: 0x23981, offset: 0x23981, size: 0x8, addend: 0x0, symName: __ZNK5boost7variantIiJfbNSt3__112basic_stringIcNS1_11char_traitsIcEENS1_9allocatorIcEEEEEE5whichEv, symObjAddr: 0x6688, symBinAddr: 0x1000097EC, symSize: 0x60 }
  - { offsetInCU: 0x239A7, offset: 0x239A7, size: 0x8, addend: 0x0, symName: __ZN5boost15aligned_storageILm24ELm8EE7addressEv, symObjAddr: 0x66E8, symBinAddr: 0x10000984C, symSize: 0x24 }
  - { offsetInCU: 0x239CD, offset: 0x239CD, size: 0x8, addend: 0x0, symName: __ZNK5boost6detail7variant9destroyer14internal_visitINSt3__112basic_stringIcNS4_11char_traitsIcEENS4_9allocatorIcEEEEEEvRT_i, symObjAddr: 0x68A0, symBinAddr: 0x100009A04, symSize: 0x2C }
  - { offsetInCU: 0x23A16, offset: 0x23A16, size: 0x8, addend: 0x0, symName: __ZNK5boost7variantIiJfbNSt3__112basic_stringIcNS1_11char_traitsIcEENS1_9allocatorIcEEEEEE12using_backupEv, symObjAddr: 0x68E0, symBinAddr: 0x100009A44, symSize: 0x24 }
  - { offsetInCU: 0x23A3C, offset: 0x23A3C, size: 0x8, addend: 0x0, symName: __ZNK5boost6detail15aligned_storage19aligned_storage_impILm24ELm8EE7addressEv, symObjAddr: 0x6904, symBinAddr: 0x100009A68, symSize: 0x14 }
  - { offsetInCU: 0x23A62, offset: 0x23A62, size: 0x8, addend: 0x0, symName: __ZN5boost15aligned_storageILm24ELm8EED2Ev, symObjAddr: 0x6918, symBinAddr: 0x100009A7C, symSize: 0x14 }
  - { offsetInCU: 0x23A8C, offset: 0x23A8C, size: 0x8, addend: 0x0, symName: __ZNSt3__14pairIKiN5boost7variantIiJfbNS_12basic_stringIcNS_11char_traitsIcEENS_9allocatorIcEEEEEEEEC2B8ue170006IiNS3_IiJfbEEELPv0EEEOT_OT0_, symObjAddr: 0x692C, symBinAddr: 0x100009A90, symSize: 0x50 }
  - { offsetInCU: 0x23AEA, offset: 0x23AEA, size: 0x8, addend: 0x0, symName: __ZN5boost7variantIiJfbNSt3__112basic_stringIcNS1_11char_traitsIcEENS1_9allocatorIcEEEEEEC1INS0_IiJfbEEEEEOT_NS_9enable_ifINS_3mpl3or_INSE_4and_INS_19is_rvalue_referenceISC_EENSE_4not_INS_8is_constISB_EEEENSJ_INS_7is_sameISB_S8_EEEENS_6detail7variant29is_variant_constructible_fromISC_NSE_6l_itemIN4mpl_5long_ILl4EEEiNST_INSV_ILl3EEEfNST_INSV_ILl2EEEbNST_INSV_ILl1EEES7_NSE_5l_endEEEEEEEEEEENSU_5bool_ILb1EEEEENSN_ISB_NS_18recursive_variant_EEENS16_ILb0EEES1B_S1B_EEbE4typeE, symObjAddr: 0x697C, symBinAddr: 0x100009AE0, symSize: 0x48 }
  - { offsetInCU: 0x23B37, offset: 0x23B37, size: 0x8, addend: 0x0, symName: __ZN5boost7variantIiJfbNSt3__112basic_stringIcNS1_11char_traitsIcEENS1_9allocatorIcEEEEEEC2INS0_IiJfbEEEEEOT_NS_9enable_ifINS_3mpl3or_INSE_4and_INS_19is_rvalue_referenceISC_EENSE_4not_INS_8is_constISB_EEEENSJ_INS_7is_sameISB_S8_EEEENS_6detail7variant29is_variant_constructible_fromISC_NSE_6l_itemIN4mpl_5long_ILl4EEEiNST_INSV_ILl3EEEfNST_INSV_ILl2EEEbNST_INSV_ILl1EEES7_NSE_5l_endEEEEEEEEEEENSU_5bool_ILb1EEEEENSN_ISB_NS_18recursive_variant_EEENS16_ILb0EEES1B_S1B_EEbE4typeE, symObjAddr: 0x69C4, symBinAddr: 0x100009B28, symSize: 0x78 }
  - { offsetInCU: 0x23B84, offset: 0x23B84, size: 0x8, addend: 0x0, symName: __ZN5boost15aligned_storageILm24ELm8EEC1Ev, symObjAddr: 0x6A3C, symBinAddr: 0x100009BA0, symSize: 0x2C }
  - { offsetInCU: 0x23BAE, offset: 0x23BAE, size: 0x8, addend: 0x0, symName: __ZN5boost7variantIiJfbNSt3__112basic_stringIcNS1_11char_traitsIcEENS1_9allocatorIcEEEEEE17convert_constructIiJfbEEENS_9enable_ifINS_3mpl3or_INS_7is_sameINS0_IT_JDpT0_EEES8_EENS_6detail7variant29is_variant_constructible_fromIOSH_NSB_6l_itemIN4mpl_5long_ILl4EEEiNSN_INSP_ILl3EEEfNSN_INSP_ILl2EEEbNSN_INSP_ILl1EEES7_NSB_5l_endEEEEEEEEEEENSO_5bool_ILb0EEES11_S11_EEvE4typeESM_l, symObjAddr: 0x6A68, symBinAddr: 0x100009BCC, symSize: 0x30 }
  - { offsetInCU: 0x23C07, offset: 0x23C07, size: 0x8, addend: 0x0, symName: __ZN5boost15aligned_storageILm24ELm8EEC2Ev, symObjAddr: 0x6A98, symBinAddr: 0x100009BFC, symSize: 0x14 }
  - { offsetInCU: 0x23C31, offset: 0x23C31, size: 0x8, addend: 0x0, symName: __ZN5boost7variantIiJfbNSt3__112basic_stringIcNS1_11char_traitsIcEENS1_9allocatorIcEEEEEE25convert_construct_variantINS0_IiJfbEEEEENS_9enable_ifINS_19is_rvalue_referenceIOT_EEvE4typeESE_, symObjAddr: 0x6AAC, symBinAddr: 0x100009C10, symSize: 0x48 }
  - { offsetInCU: 0x23CE9, offset: 0x23CE9, size: 0x8, addend: 0x0, symName: __ZN5boost7variantIiJfbNSt3__112basic_stringIcNS1_11char_traitsIcEENS1_9allocatorIcEEEEEE17convert_constructINS0_IiJfbEEEEENS_9enable_ifINS_19is_rvalue_referenceIOT_EEvE4typeESE_lN4mpl_5bool_ILb1EEE, symObjAddr: 0x6AF4, symBinAddr: 0x100009C58, symSize: 0x3D0 }
  - { offsetInCU: 0x23E06, offset: 0x23E06, size: 0x8, addend: 0x0, symName: __ZN5boost7variantIiJfbNSt3__112basic_stringIcNS1_11char_traitsIcEENS1_9allocatorIcEEEEEE17convert_move_intoC1EPv, symObjAddr: 0x6F14, symBinAddr: 0x10000A078, symSize: 0x34 }
  - { offsetInCU: 0x23E3F, offset: 0x23E3F, size: 0x8, addend: 0x0, symName: __ZN5boost7variantIiJfbNSt3__112basic_stringIcNS1_11char_traitsIcEENS1_9allocatorIcEEEEEE14indicate_whichEi, symObjAddr: 0x6F48, symBinAddr: 0x10000A0AC, symSize: 0x20 }
  - { offsetInCU: 0x23E74, offset: 0x23E74, size: 0x8, addend: 0x0, symName: __ZN5boost7variantIiJfbNSt3__112basic_stringIcNS1_11char_traitsIcEENS1_9allocatorIcEEEEEE17convert_move_intoC2EPv, symObjAddr: 0x6F68, symBinAddr: 0x10000A0CC, symSize: 0x20 }
  - { offsetInCU: 0x23EB7, offset: 0x23EB7, size: 0x8, addend: 0x0, symName: __ZNK5boost7variantIiJfbNSt3__112basic_stringIcNS1_11char_traitsIcEENS1_9allocatorIcEEEEEE17convert_move_into14internal_visitIiEEiRT_i, symObjAddr: 0x70DC, symBinAddr: 0x10000A240, symSize: 0x34 }
  - { offsetInCU: 0x23F00, offset: 0x23F00, size: 0x8, addend: 0x0, symName: __ZN5boost6detail7variant21make_initializer_node5applyINS_3mpl4pairINS1_16initializer_rootEN4mpl_4int_ILi0EEEEENS4_6l_iterINS4_5list4IifbNSt3__112basic_stringIcNSD_11char_traitsIcEENSD_9allocatorIcEEEEEEEEE16initializer_node10initializeEPvOi, symObjAddr: 0x7110, symBinAddr: 0x10000A274, symSize: 0x28 }
  - { offsetInCU: 0x23F31, offset: 0x23F31, size: 0x8, addend: 0x0, symName: __ZNK5boost7variantIiJfbNSt3__112basic_stringIcNS1_11char_traitsIcEENS1_9allocatorIcEEEEEE17convert_move_into14internal_visitIfEEiRT_i, symObjAddr: 0x7180, symBinAddr: 0x10000A2E4, symSize: 0x34 }
  - { offsetInCU: 0x23F7A, offset: 0x23F7A, size: 0x8, addend: 0x0, symName: __ZN5boost6detail7variant21make_initializer_node5applyINS_3mpl4pairINS3_INS5_INS1_16initializer_rootEN4mpl_4int_ILi0EEEEENS4_6l_iterINS4_5list4IifbNSt3__112basic_stringIcNSD_11char_traitsIcEENSD_9allocatorIcEEEEEEEEE16initializer_nodeENS8_ILi1EEEEENSB_INS4_5list3IfbSJ_EEEEE16initializer_node10initializeEPvOf, symObjAddr: 0x71B4, symBinAddr: 0x10000A318, symSize: 0x28 }
  - { offsetInCU: 0x23FAB, offset: 0x23FAB, size: 0x8, addend: 0x0, symName: __ZNK5boost7variantIiJfbNSt3__112basic_stringIcNS1_11char_traitsIcEENS1_9allocatorIcEEEEEE17convert_move_into14internal_visitIbEEiRT_i, symObjAddr: 0x7224, symBinAddr: 0x10000A388, symSize: 0x34 }
  - { offsetInCU: 0x23FF4, offset: 0x23FF4, size: 0x8, addend: 0x0, symName: __ZN5boost6detail7variant21make_initializer_node5applyINS_3mpl4pairINS3_INS5_INS3_INS5_INS1_16initializer_rootEN4mpl_4int_ILi0EEEEENS4_6l_iterINS4_5list4IifbNSt3__112basic_stringIcNSD_11char_traitsIcEENSD_9allocatorIcEEEEEEEEE16initializer_nodeENS8_ILi1EEEEENSB_INS4_5list3IfbSJ_EEEEE16initializer_nodeENS8_ILi2EEEEENSB_INS4_5list2IbSJ_EEEEE16initializer_node10initializeEPvOb, symObjAddr: 0x7258, symBinAddr: 0x10000A3BC, symSize: 0x2C }
  - { offsetInCU: 0x24025, offset: 0x24025, size: 0x8, addend: 0x0, symName: __ZNSt3__14pairIKiN5boost7variantIiJfbNS_12basic_stringIcNS_11char_traitsIcEENS_9allocatorIcEEEEEEEEC2B8ue170006IiS9_LPv0EEEOT_OT0_, symObjAddr: 0x72B0, symBinAddr: 0x10000A414, symSize: 0x50 }
  - { offsetInCU: 0x24083, offset: 0x24083, size: 0x8, addend: 0x0, symName: __ZN5boost7variantIiJfbNSt3__112basic_stringIcNS1_11char_traitsIcEENS1_9allocatorIcEEEEEEC1IS7_EEOT_NS_9enable_ifINS_3mpl3or_INSD_4and_INS_19is_rvalue_referenceISB_EENSD_4not_INS_8is_constISA_EEEENSI_INS_7is_sameISA_S8_EEEENS_6detail7variant29is_variant_constructible_fromISB_NSD_6l_itemIN4mpl_5long_ILl4EEEiNSS_INSU_ILl3EEEfNSS_INSU_ILl2EEEbNSS_INSU_ILl1EEES7_NSD_5l_endEEEEEEEEEEENST_5bool_ILb1EEEEENSM_ISA_NS_18recursive_variant_EEENS15_ILb0EEES1A_S1A_EEbE4typeE, symObjAddr: 0x7300, symBinAddr: 0x10000A464, symSize: 0x48 }
  - { offsetInCU: 0x240D0, offset: 0x240D0, size: 0x8, addend: 0x0, symName: __ZN5boost7variantIiJfbNSt3__112basic_stringIcNS1_11char_traitsIcEENS1_9allocatorIcEEEEEEC2IS7_EEOT_NS_9enable_ifINS_3mpl3or_INSD_4and_INS_19is_rvalue_referenceISB_EENSD_4not_INS_8is_constISA_EEEENSI_INS_7is_sameISA_S8_EEEENS_6detail7variant29is_variant_constructible_fromISB_NSD_6l_itemIN4mpl_5long_ILl4EEEiNSS_INSU_ILl3EEEfNSS_INSU_ILl2EEEbNSS_INSU_ILl1EEES7_NSD_5l_endEEEEEEEEEEENST_5bool_ILb1EEEEENSM_ISA_NS_18recursive_variant_EEENS15_ILb0EEES1A_S1A_EEbE4typeE, symObjAddr: 0x7348, symBinAddr: 0x10000A4AC, symSize: 0x80 }
  - { offsetInCU: 0x2411D, offset: 0x2411D, size: 0x8, addend: 0x0, symName: __ZN5boost7variantIiJfbNSt3__112basic_stringIcNS1_11char_traitsIcEENS1_9allocatorIcEEEEEE17convert_constructIS7_EENS_9enable_ifINS_19is_rvalue_referenceIOT_EEvE4typeESD_iN4mpl_5bool_ILb0EEE, symObjAddr: 0x73C8, symBinAddr: 0x10000A52C, symSize: 0x48 }
  - { offsetInCU: 0x24171, offset: 0x24171, size: 0x8, addend: 0x0, symName: __ZN5boost6detail7variant21make_initializer_node5applyINS_3mpl4pairINS3_INS5_INS3_INS5_INS3_INS5_INS1_16initializer_rootEN4mpl_4int_ILi0EEEEENS4_6l_iterINS4_5list4IifbNSt3__112basic_stringIcNSD_11char_traitsIcEENSD_9allocatorIcEEEEEEEEE16initializer_nodeENS8_ILi1EEEEENSB_INS4_5list3IfbSJ_EEEEE16initializer_nodeENS8_ILi2EEEEENSB_INS4_5list2IbSJ_EEEEE16initializer_nodeENS8_ILi3EEEEENSB_INS4_5list1ISJ_EEEEE16initializer_node10initializeEPvOSJ_, symObjAddr: 0x7410, symBinAddr: 0x10000A574, symSize: 0x30 }
  - { offsetInCU: 0x241A2, offset: 0x241A2, size: 0x8, addend: 0x0, symName: __ZNSt3__112basic_stringIcNS_11char_traitsIcEENS_9allocatorIcEEEC1B8ue170006EOS5_, symObjAddr: 0x7440, symBinAddr: 0x10000A5A4, symSize: 0x34 }
  - { offsetInCU: 0x241DB, offset: 0x241DB, size: 0x8, addend: 0x0, symName: __ZNSt3__112basic_stringIcNS_11char_traitsIcEENS_9allocatorIcEEEC2B8ue170006EOS5_, symObjAddr: 0x7474, symBinAddr: 0x10000A5D8, symSize: 0x50 }
  - { offsetInCU: 0x24214, offset: 0x24214, size: 0x8, addend: 0x0, symName: __ZNSt3__112basic_stringIcNS_11char_traitsIcEENS_9allocatorIcEEE14__default_initB8ue170006Ev, symObjAddr: 0x74C4, symBinAddr: 0x10000A628, symSize: 0x40 }
  - { offsetInCU: 0x2423A, offset: 0x2423A, size: 0x8, addend: 0x0, symName: __ZNSt3__117__compressed_pairINS_12basic_stringIcNS_11char_traitsIcEENS_9allocatorIcEEE5__repES5_E5firstB8ue170006Ev, symObjAddr: 0x7504, symBinAddr: 0x10000A668, symSize: 0x24 }
  - { offsetInCU: 0x24260, offset: 0x24260, size: 0x8, addend: 0x0, symName: __ZNSt3__122__compressed_pair_elemINS_12basic_stringIcNS_11char_traitsIcEENS_9allocatorIcEEE5__repELi0ELb0EE5__getB8ue170006Ev, symObjAddr: 0x7528, symBinAddr: 0x10000A68C, symSize: 0x14 }
  - { offsetInCU: 0x24286, offset: 0x24286, size: 0x8, addend: 0x0, symName: __ZNSt3__13mapIiN5boost7variantIiJfbNS_12basic_stringIcNS_11char_traitsIcEENS_9allocatorIcEEEEEEENS_4lessIiEENS6_INS_4pairIKiS9_EEEEEC2B8ue170006ESt16initializer_listISE_ERKSB_, symObjAddr: 0x753C, symBinAddr: 0x10000A6A0, symSize: 0xA4 }
  - { offsetInCU: 0x242CE, offset: 0x242CE, size: 0x8, addend: 0x0, symName: __ZNSt3__119__map_value_compareIiNS_12__value_typeIiN5boost7variantIiJfbNS_12basic_stringIcNS_11char_traitsIcEENS_9allocatorIcEEEEEEEEENS_4lessIiEELb1EEC1B8ue170006ESD_, symObjAddr: 0x75E0, symBinAddr: 0x10000A744, symSize: 0x2C }
  - { offsetInCU: 0x24307, offset: 0x24307, size: 0x8, addend: 0x0, symName: __ZNSt3__16__treeINS_12__value_typeIiN5boost7variantIiJfbNS_12basic_stringIcNS_11char_traitsIcEENS_9allocatorIcEEEEEEEEENS_19__map_value_compareIiSB_NS_4lessIiEELb1EEENS7_ISB_EEEC1ERKSF_, symObjAddr: 0x760C, symBinAddr: 0x10000A770, symSize: 0x34 }
  - { offsetInCU: 0x24342, offset: 0x24342, size: 0x8, addend: 0x0, symName: __ZNSt3__13mapIiN5boost7variantIiJfbNS_12basic_stringIcNS_11char_traitsIcEENS_9allocatorIcEEEEEEENS_4lessIiEENS6_INS_4pairIKiS9_EEEEE6insertB8ue170006IPKSE_EEvT_SK_, symObjAddr: 0x7640, symBinAddr: 0x10000A7A4, symSize: 0x8C }
  - { offsetInCU: 0x243AC, offset: 0x243AC, size: 0x8, addend: 0x0, symName: __ZNKSt16initializer_listINSt3__14pairIKiN5boost7variantIiJfbNS0_12basic_stringIcNS0_11char_traitsIcEENS0_9allocatorIcEEEEEEEEEE5beginB8ue170006Ev, symObjAddr: 0x76CC, symBinAddr: 0x10000A830, symSize: 0x18 }
  - { offsetInCU: 0x243D2, offset: 0x243D2, size: 0x8, addend: 0x0, symName: __ZNKSt16initializer_listINSt3__14pairIKiN5boost7variantIiJfbNS0_12basic_stringIcNS0_11char_traitsIcEENS0_9allocatorIcEEEEEEEEEE3endB8ue170006Ev, symObjAddr: 0x76E4, symBinAddr: 0x10000A848, symSize: 0x28 }
  - { offsetInCU: 0x243F8, offset: 0x243F8, size: 0x8, addend: 0x0, symName: __ZNSt3__16__treeINS_12__value_typeIiN5boost7variantIiJfbNS_12basic_stringIcNS_11char_traitsIcEENS_9allocatorIcEEEEEEEEENS_19__map_value_compareIiSB_NS_4lessIiEELb1EEENS7_ISB_EEED1Ev, symObjAddr: 0x770C, symBinAddr: 0x10000A870, symSize: 0x2C }
  - { offsetInCU: 0x24424, offset: 0x24424, size: 0x8, addend: 0x0, symName: __ZNSt3__119__map_value_compareIiNS_12__value_typeIiN5boost7variantIiJfbNS_12basic_stringIcNS_11char_traitsIcEENS_9allocatorIcEEEEEEEEENS_4lessIiEELb1EEC2B8ue170006ESD_, symObjAddr: 0x7738, symBinAddr: 0x10000A89C, symSize: 0x14 }
  - { offsetInCU: 0x2445D, offset: 0x2445D, size: 0x8, addend: 0x0, symName: __ZNSt3__16__treeINS_12__value_typeIiN5boost7variantIiJfbNS_12basic_stringIcNS_11char_traitsIcEENS_9allocatorIcEEEEEEEEENS_19__map_value_compareIiSB_NS_4lessIiEELb1EEENS7_ISB_EEEC2ERKSF_, symObjAddr: 0x774C, symBinAddr: 0x10000A8B0, symSize: 0x7C }
  - { offsetInCU: 0x24498, offset: 0x24498, size: 0x8, addend: 0x0, symName: __ZNSt3__117__compressed_pairINS_15__tree_end_nodeIPNS_16__tree_node_baseIPvEEEENS_9allocatorINS_11__tree_nodeINS_12__value_typeIiN5boost7variantIiJfbNS_12basic_stringIcNS_11char_traitsIcEENS7_IcEEEEEEEEES3_EEEEEC1B8ue170006ILb1EvEEv, symObjAddr: 0x77C8, symBinAddr: 0x10000A92C, symSize: 0x2C }
  - { offsetInCU: 0x244CD, offset: 0x244CD, size: 0x8, addend: 0x0, symName: __ZNSt3__117__compressed_pairImNS_19__map_value_compareIiNS_12__value_typeIiN5boost7variantIiJfbNS_12basic_stringIcNS_11char_traitsIcEENS_9allocatorIcEEEEEEEEENS_4lessIiEELb1EEEEC1B8ue170006IiRKSF_EEOT_OT0_, symObjAddr: 0x77F4, symBinAddr: 0x10000A958, symSize: 0x3C }
  - { offsetInCU: 0x24525, offset: 0x24525, size: 0x8, addend: 0x0, symName: __ZNSt3__16__treeINS_12__value_typeIiN5boost7variantIiJfbNS_12basic_stringIcNS_11char_traitsIcEENS_9allocatorIcEEEEEEEEENS_19__map_value_compareIiSB_NS_4lessIiEELb1EEENS7_ISB_EEE10__end_nodeB8ue170006Ev, symObjAddr: 0x7830, symBinAddr: 0x10000A994, symSize: 0x2C }
  - { offsetInCU: 0x2454B, offset: 0x2454B, size: 0x8, addend: 0x0, symName: __ZNSt3__16__treeINS_12__value_typeIiN5boost7variantIiJfbNS_12basic_stringIcNS_11char_traitsIcEENS_9allocatorIcEEEEEEEEENS_19__map_value_compareIiSB_NS_4lessIiEELb1EEENS7_ISB_EEE12__begin_nodeB8ue170006Ev, symObjAddr: 0x785C, symBinAddr: 0x10000A9C0, symSize: 0x14 }
  - { offsetInCU: 0x24571, offset: 0x24571, size: 0x8, addend: 0x0, symName: __ZNSt3__117__compressed_pairINS_15__tree_end_nodeIPNS_16__tree_node_baseIPvEEEENS_9allocatorINS_11__tree_nodeINS_12__value_typeIiN5boost7variantIiJfbNS_12basic_stringIcNS_11char_traitsIcEENS7_IcEEEEEEEEES3_EEEEEC2B8ue170006ILb1EvEEv, symObjAddr: 0x7870, symBinAddr: 0x10000A9D4, symSize: 0x34 }
  - { offsetInCU: 0x245A6, offset: 0x245A6, size: 0x8, addend: 0x0, symName: __ZNSt3__122__compressed_pair_elemINS_15__tree_end_nodeIPNS_16__tree_node_baseIPvEEEELi0ELb0EEC2B8ue170006ENS_16__value_init_tagE, symObjAddr: 0x78A4, symBinAddr: 0x10000AA08, symSize: 0x2C }
  - { offsetInCU: 0x245DA, offset: 0x245DA, size: 0x8, addend: 0x0, symName: __ZNSt3__122__compressed_pair_elemINS_9allocatorINS_11__tree_nodeINS_12__value_typeIiN5boost7variantIiJfbNS_12basic_stringIcNS_11char_traitsIcEENS1_IcEEEEEEEEEPvEEEELi1ELb1EEC2B8ue170006ENS_16__value_init_tagE, symObjAddr: 0x78D0, symBinAddr: 0x10000AA34, symSize: 0x2C }
  - { offsetInCU: 0x2460E, offset: 0x2460E, size: 0x8, addend: 0x0, symName: __ZNSt3__115__tree_end_nodeIPNS_16__tree_node_baseIPvEEEC1B8ue170006Ev, symObjAddr: 0x78FC, symBinAddr: 0x10000AA60, symSize: 0x2C }
  - { offsetInCU: 0x24638, offset: 0x24638, size: 0x8, addend: 0x0, symName: __ZNSt3__115__tree_end_nodeIPNS_16__tree_node_baseIPvEEEC2B8ue170006Ev, symObjAddr: 0x7928, symBinAddr: 0x10000AA8C, symSize: 0x18 }
  - { offsetInCU: 0x24662, offset: 0x24662, size: 0x8, addend: 0x0, symName: __ZNSt3__19allocatorINS_11__tree_nodeINS_12__value_typeIiN5boost7variantIiJfbNS_12basic_stringIcNS_11char_traitsIcEENS0_IcEEEEEEEEEPvEEEC2B8ue170006Ev, symObjAddr: 0x7940, symBinAddr: 0x10000AAA4, symSize: 0x2C }
  - { offsetInCU: 0x2468C, offset: 0x2468C, size: 0x8, addend: 0x0, symName: __ZNSt3__116__non_trivial_ifILb1ENS_9allocatorINS_11__tree_nodeINS_12__value_typeIiN5boost7variantIiJfbNS_12basic_stringIcNS_11char_traitsIcEENS1_IcEEEEEEEEEPvEEEEEC2B8ue170006Ev, symObjAddr: 0x796C, symBinAddr: 0x10000AAD0, symSize: 0x14 }
  - { offsetInCU: 0x246B6, offset: 0x246B6, size: 0x8, addend: 0x0, symName: __ZNSt3__117__compressed_pairImNS_19__map_value_compareIiNS_12__value_typeIiN5boost7variantIiJfbNS_12basic_stringIcNS_11char_traitsIcEENS_9allocatorIcEEEEEEEEENS_4lessIiEELb1EEEEC2B8ue170006IiRKSF_EEOT_OT0_, symObjAddr: 0x7980, symBinAddr: 0x10000AAE4, symSize: 0x44 }
  - { offsetInCU: 0x2470E, offset: 0x2470E, size: 0x8, addend: 0x0, symName: __ZNSt3__122__compressed_pair_elemImLi0ELb0EEC2B8ue170006IivEEOT_, symObjAddr: 0x79C4, symBinAddr: 0x10000AB28, symSize: 0x24 }
  - { offsetInCU: 0x24750, offset: 0x24750, size: 0x8, addend: 0x0, symName: __ZNSt3__122__compressed_pair_elemINS_19__map_value_compareIiNS_12__value_typeIiN5boost7variantIiJfbNS_12basic_stringIcNS_11char_traitsIcEENS_9allocatorIcEEEEEEEEENS_4lessIiEELb1EEELi1ELb1EEC2B8ue170006IRKSF_vEEOT_, symObjAddr: 0x79E8, symBinAddr: 0x10000AB4C, symSize: 0x18 }
  - { offsetInCU: 0x24792, offset: 0x24792, size: 0x8, addend: 0x0, symName: __ZNSt3__114pointer_traitsIPNS_15__tree_end_nodeIPNS_16__tree_node_baseIPvEEEEE10pointer_toB8ue170006ERS6_, symObjAddr: 0x7A00, symBinAddr: 0x10000AB64, symSize: 0x14 }
  - { offsetInCU: 0x247B5, offset: 0x247B5, size: 0x8, addend: 0x0, symName: __ZNSt3__117__compressed_pairINS_15__tree_end_nodeIPNS_16__tree_node_baseIPvEEEENS_9allocatorINS_11__tree_nodeINS_12__value_typeIiN5boost7variantIiJfbNS_12basic_stringIcNS_11char_traitsIcEENS7_IcEEEEEEEEES3_EEEEE5firstB8ue170006Ev, symObjAddr: 0x7A14, symBinAddr: 0x10000AB78, symSize: 0x24 }
  - { offsetInCU: 0x247DB, offset: 0x247DB, size: 0x8, addend: 0x0, symName: __ZNSt3__122__compressed_pair_elemINS_15__tree_end_nodeIPNS_16__tree_node_baseIPvEEEELi0ELb0EE5__getB8ue170006Ev, symObjAddr: 0x7A38, symBinAddr: 0x10000AB9C, symSize: 0x14 }
  - { offsetInCU: 0x24801, offset: 0x24801, size: 0x8, addend: 0x0, symName: __ZNKSt3__13mapIiN5boost7variantIiJfbNS_12basic_stringIcNS_11char_traitsIcEENS_9allocatorIcEEEEEEENS_4lessIiEENS6_INS_4pairIKiS9_EEEEE4cendB8ue170006Ev, symObjAddr: 0x7A4C, symBinAddr: 0x10000ABB0, symSize: 0x2C }
  - { offsetInCU: 0x24827, offset: 0x24827, size: 0x8, addend: 0x0, symName: __ZNSt3__13mapIiN5boost7variantIiJfbNS_12basic_stringIcNS_11char_traitsIcEENS_9allocatorIcEEEEEEENS_4lessIiEENS6_INS_4pairIKiS9_EEEEE6insertB8ue170006ENS_20__map_const_iteratorINS_21__tree_const_iteratorINS_12__value_typeIiS9_EEPNS_11__tree_nodeISK_PvEElEEEERKSE_, symObjAddr: 0x7A78, symBinAddr: 0x10000ABDC, symSize: 0x50 }
  - { offsetInCU: 0x2486B, offset: 0x2486B, size: 0x8, addend: 0x0, symName: __ZNSt3__120__map_const_iteratorINS_21__tree_const_iteratorINS_12__value_typeIiN5boost7variantIiJfbNS_12basic_stringIcNS_11char_traitsIcEENS_9allocatorIcEEEEEEEEEPNS_11__tree_nodeISC_PvEElEEEC1B8ue170006ESH_, symObjAddr: 0x7AC8, symBinAddr: 0x10000AC2C, symSize: 0x34 }
  - { offsetInCU: 0x248A4, offset: 0x248A4, size: 0x8, addend: 0x0, symName: __ZNKSt3__13mapIiN5boost7variantIiJfbNS_12basic_stringIcNS_11char_traitsIcEENS_9allocatorIcEEEEEEENS_4lessIiEENS6_INS_4pairIKiS9_EEEEE3endB8ue170006Ev, symObjAddr: 0x7AFC, symBinAddr: 0x10000AC60, symSize: 0x38 }
  - { offsetInCU: 0x248CA, offset: 0x248CA, size: 0x8, addend: 0x0, symName: __ZNKSt3__16__treeINS_12__value_typeIiN5boost7variantIiJfbNS_12basic_stringIcNS_11char_traitsIcEENS_9allocatorIcEEEEEEEEENS_19__map_value_compareIiSB_NS_4lessIiEELb1EEENS7_ISB_EEE3endB8ue170006Ev, symObjAddr: 0x7B34, symBinAddr: 0x10000AC98, symSize: 0x34 }
  - { offsetInCU: 0x248F0, offset: 0x248F0, size: 0x8, addend: 0x0, symName: __ZNKSt3__16__treeINS_12__value_typeIiN5boost7variantIiJfbNS_12basic_stringIcNS_11char_traitsIcEENS_9allocatorIcEEEEEEEEENS_19__map_value_compareIiSB_NS_4lessIiEELb1EEENS7_ISB_EEE10__end_nodeB8ue170006Ev, symObjAddr: 0x7B68, symBinAddr: 0x10000ACCC, symSize: 0x2C }
  - { offsetInCU: 0x24916, offset: 0x24916, size: 0x8, addend: 0x0, symName: __ZNSt3__121__tree_const_iteratorINS_12__value_typeIiN5boost7variantIiJfbNS_12basic_stringIcNS_11char_traitsIcEENS_9allocatorIcEEEEEEEEEPNS_11__tree_nodeISB_PvEElEC1B8ue170006EPNS_15__tree_end_nodeIPNS_16__tree_node_baseISD_EEEE, symObjAddr: 0x7B94, symBinAddr: 0x10000ACF8, symSize: 0x34 }
  - { offsetInCU: 0x2494F, offset: 0x2494F, size: 0x8, addend: 0x0, symName: __ZNKSt3__117__compressed_pairINS_15__tree_end_nodeIPNS_16__tree_node_baseIPvEEEENS_9allocatorINS_11__tree_nodeINS_12__value_typeIiN5boost7variantIiJfbNS_12basic_stringIcNS_11char_traitsIcEENS7_IcEEEEEEEEES3_EEEEE5firstB8ue170006Ev, symObjAddr: 0x7BC8, symBinAddr: 0x10000AD2C, symSize: 0x24 }
  - { offsetInCU: 0x24975, offset: 0x24975, size: 0x8, addend: 0x0, symName: __ZNKSt3__122__compressed_pair_elemINS_15__tree_end_nodeIPNS_16__tree_node_baseIPvEEEELi0ELb0EE5__getB8ue170006Ev, symObjAddr: 0x7BEC, symBinAddr: 0x10000AD50, symSize: 0x14 }
  - { offsetInCU: 0x2499B, offset: 0x2499B, size: 0x8, addend: 0x0, symName: __ZNSt3__121__tree_const_iteratorINS_12__value_typeIiN5boost7variantIiJfbNS_12basic_stringIcNS_11char_traitsIcEENS_9allocatorIcEEEEEEEEEPNS_11__tree_nodeISB_PvEElEC2B8ue170006EPNS_15__tree_end_nodeIPNS_16__tree_node_baseISD_EEEE, symObjAddr: 0x7C00, symBinAddr: 0x10000AD64, symSize: 0x20 }
  - { offsetInCU: 0x249D4, offset: 0x249D4, size: 0x8, addend: 0x0, symName: __ZNSt3__16__treeINS_12__value_typeIiN5boost7variantIiJfbNS_12basic_stringIcNS_11char_traitsIcEENS_9allocatorIcEEEEEEEEENS_19__map_value_compareIiSB_NS_4lessIiEELb1EEENS7_ISB_EEE15__insert_uniqueB8ue170006ENS_21__tree_const_iteratorISB_PNS_11__tree_nodeISB_PvEElEERKNS_4pairIKiSA_EE, symObjAddr: 0x7C20, symBinAddr: 0x10000AD84, symSize: 0x64 }
  - { offsetInCU: 0x24A18, offset: 0x24A18, size: 0x8, addend: 0x0, symName: __ZNSt3__114__map_iteratorINS_15__tree_iteratorINS_12__value_typeIiN5boost7variantIiJfbNS_12basic_stringIcNS_11char_traitsIcEENS_9allocatorIcEEEEEEEEEPNS_11__tree_nodeISC_PvEElEEEC1B8ue170006ESH_, symObjAddr: 0x7C84, symBinAddr: 0x10000ADE8, symSize: 0x34 }
  - { offsetInCU: 0x24A51, offset: 0x24A51, size: 0x8, addend: 0x0, symName: __ZNSt3__16__treeINS_12__value_typeIiN5boost7variantIiJfbNS_12basic_stringIcNS_11char_traitsIcEENS_9allocatorIcEEEEEEEEENS_19__map_value_compareIiSB_NS_4lessIiEELb1EEENS7_ISB_EEE30__emplace_hint_unique_key_argsIiJRKNS_4pairIKiSA_EEEEENSJ_INS_15__tree_iteratorISB_PNS_11__tree_nodeISB_PvEElEEbEENS_21__tree_const_iteratorISB_SS_lEERKT_DpOT0_, symObjAddr: 0x7CB8, symBinAddr: 0x10000AE1C, symSize: 0x104 }
  - { offsetInCU: 0x24B1D, offset: 0x24B1D, size: 0x8, addend: 0x0, symName: __ZNSt3__122__tree_key_value_typesINS_12__value_typeIiN5boost7variantIiJfbNS_12basic_stringIcNS_11char_traitsIcEENS_9allocatorIcEEEEEEEEEE9__get_keyB8ue170006IKNS_4pairIKiSA_EEEENS_9enable_ifIXsr17__is_same_uncvrefIT_SG_EE5valueERSF_E4typeERSJ_, symObjAddr: 0x7DBC, symBinAddr: 0x10000AF20, symSize: 0x14 }
  - { offsetInCU: 0x24B4A, offset: 0x24B4A, size: 0x8, addend: 0x0, symName: __ZNSt3__16__treeINS_12__value_typeIiN5boost7variantIiJfbNS_12basic_stringIcNS_11char_traitsIcEENS_9allocatorIcEEEEEEEEENS_19__map_value_compareIiSB_NS_4lessIiEELb1EEENS7_ISB_EEE12__find_equalIiEERPNS_16__tree_node_baseIPvEENS_21__tree_const_iteratorISB_PNS_11__tree_nodeISB_SK_EElEERPNS_15__tree_end_nodeISM_EESN_RKT_, symObjAddr: 0x7DD0, symBinAddr: 0x10000AF34, symSize: 0x304 }
  - { offsetInCU: 0x24BF3, offset: 0x24BF3, size: 0x8, addend: 0x0, symName: __ZNSt3__16__treeINS_12__value_typeIiN5boost7variantIiJfbNS_12basic_stringIcNS_11char_traitsIcEENS_9allocatorIcEEEEEEEEENS_19__map_value_compareIiSB_NS_4lessIiEELb1EEENS7_ISB_EEE16__construct_nodeIJRKNS_4pairIKiSA_EEEEENS_10unique_ptrINS_11__tree_nodeISB_PvEENS_22__tree_node_destructorINS7_ISR_EEEEEEDpOT_, symObjAddr: 0x80D4, symBinAddr: 0x10000B238, symSize: 0x110 }
  - { offsetInCU: 0x24C54, offset: 0x24C54, size: 0x8, addend: 0x0, symName: __ZNSt3__16__treeINS_12__value_typeIiN5boost7variantIiJfbNS_12basic_stringIcNS_11char_traitsIcEENS_9allocatorIcEEEEEEEEENS_19__map_value_compareIiSB_NS_4lessIiEELb1EEENS7_ISB_EEE16__insert_node_atEPNS_15__tree_end_nodeIPNS_16__tree_node_baseIPvEEEERSM_SM_, symObjAddr: 0x81E4, symBinAddr: 0x10000B348, symSize: 0xCC }
  - { offsetInCU: 0x24CA9, offset: 0x24CA9, size: 0x8, addend: 0x0, symName: __ZNKSt3__110unique_ptrINS_11__tree_nodeINS_12__value_typeIiN5boost7variantIiJfbNS_12basic_stringIcNS_11char_traitsIcEENS_9allocatorIcEEEEEEEEEPvEENS_22__tree_node_destructorINS8_ISE_EEEEE3getB8ue170006Ev, symObjAddr: 0x82B0, symBinAddr: 0x10000B414, symSize: 0x28 }
  - { offsetInCU: 0x24CCF, offset: 0x24CCF, size: 0x8, addend: 0x0, symName: __ZNSt3__110unique_ptrINS_11__tree_nodeINS_12__value_typeIiN5boost7variantIiJfbNS_12basic_stringIcNS_11char_traitsIcEENS_9allocatorIcEEEEEEEEEPvEENS_22__tree_node_destructorINS8_ISE_EEEEE7releaseB8ue170006Ev, symObjAddr: 0x82D8, symBinAddr: 0x10000B43C, symSize: 0x44 }
  - { offsetInCU: 0x24D04, offset: 0x24D04, size: 0x8, addend: 0x0, symName: __ZNSt3__110unique_ptrINS_11__tree_nodeINS_12__value_typeIiN5boost7variantIiJfbNS_12basic_stringIcNS_11char_traitsIcEENS_9allocatorIcEEEEEEEEEPvEENS_22__tree_node_destructorINS8_ISE_EEEEED1B8ue170006Ev, symObjAddr: 0x831C, symBinAddr: 0x10000B480, symSize: 0x2C }
  - { offsetInCU: 0x24D2E, offset: 0x24D2E, size: 0x8, addend: 0x0, symName: __ZNSt3__115__tree_iteratorINS_12__value_typeIiN5boost7variantIiJfbNS_12basic_stringIcNS_11char_traitsIcEENS_9allocatorIcEEEEEEEEEPNS_11__tree_nodeISB_PvEElEC1B8ue170006ESF_, symObjAddr: 0x8348, symBinAddr: 0x10000B4AC, symSize: 0x34 }
  - { offsetInCU: 0x24D6C, offset: 0x24D6C, size: 0x8, addend: 0x0, symName: __ZNSt3__14pairINS_15__tree_iteratorINS_12__value_typeIiN5boost7variantIiJfbNS_12basic_stringIcNS_11char_traitsIcEENS_9allocatorIcEEEEEEEEEPNS_11__tree_nodeISC_PvEElEEbEC1B8ue170006ISH_RbLSE_0EEEOT_OT0_, symObjAddr: 0x837C, symBinAddr: 0x10000B4E0, symSize: 0x3C }
  - { offsetInCU: 0x24DCA, offset: 0x24DCA, size: 0x8, addend: 0x0, symName: __ZNSt3__16__treeINS_12__value_typeIiN5boost7variantIiJfbNS_12basic_stringIcNS_11char_traitsIcEENS_9allocatorIcEEEEEEEEENS_19__map_value_compareIiSB_NS_4lessIiEELb1EEENS7_ISB_EEE3endB8ue170006Ev, symObjAddr: 0x83E8, symBinAddr: 0x10000B54C, symSize: 0x34 }
  - { offsetInCU: 0x24DF0, offset: 0x24DF0, size: 0x8, addend: 0x0, symName: __ZNSt3__121__tree_const_iteratorINS_12__value_typeIiN5boost7variantIiJfbNS_12basic_stringIcNS_11char_traitsIcEENS_9allocatorIcEEEEEEEEEPNS_11__tree_nodeISB_PvEElEC1B8ue170006ENS_15__tree_iteratorISB_SF_lEE, symObjAddr: 0x841C, symBinAddr: 0x10000B580, symSize: 0x34 }
  - { offsetInCU: 0x24E29, offset: 0x24E29, size: 0x8, addend: 0x0, symName: __ZNSt3__16__treeINS_12__value_typeIiN5boost7variantIiJfbNS_12basic_stringIcNS_11char_traitsIcEENS_9allocatorIcEEEEEEEEENS_19__map_value_compareIiSB_NS_4lessIiEELb1EEENS7_ISB_EEE10value_compB8ue170006Ev, symObjAddr: 0x8450, symBinAddr: 0x10000B5B4, symSize: 0x28 }
  - { offsetInCU: 0x24E4F, offset: 0x24E4F, size: 0x8, addend: 0x0, symName: __ZNKSt3__119__map_value_compareIiNS_12__value_typeIiN5boost7variantIiJfbNS_12basic_stringIcNS_11char_traitsIcEENS_9allocatorIcEEEEEEEEENS_4lessIiEELb1EEclB8ue170006ERKiRKSB_, symObjAddr: 0x8478, symBinAddr: 0x10000B5DC, symSize: 0x50 }
  - { offsetInCU: 0x24E93, offset: 0x24E93, size: 0x8, addend: 0x0, symName: __ZNKSt3__121__tree_const_iteratorINS_12__value_typeIiN5boost7variantIiJfbNS_12basic_stringIcNS_11char_traitsIcEENS_9allocatorIcEEEEEEEEEPNS_11__tree_nodeISB_PvEElEdeB8ue170006Ev, symObjAddr: 0x84C8, symBinAddr: 0x10000B62C, symSize: 0x28 }
  - { offsetInCU: 0x24EB9, offset: 0x24EB9, size: 0x8, addend: 0x0, symName: __ZNSt3__16__treeINS_12__value_typeIiN5boost7variantIiJfbNS_12basic_stringIcNS_11char_traitsIcEENS_9allocatorIcEEEEEEEEENS_19__map_value_compareIiSB_NS_4lessIiEELb1EEENS7_ISB_EEE5beginB8ue170006Ev, symObjAddr: 0x84F0, symBinAddr: 0x10000B654, symSize: 0x34 }
  - { offsetInCU: 0x24EDF, offset: 0x24EDF, size: 0x8, addend: 0x0, symName: __ZNKSt3__119__map_value_compareIiNS_12__value_typeIiN5boost7variantIiJfbNS_12basic_stringIcNS_11char_traitsIcEENS_9allocatorIcEEEEEEEEENS_4lessIiEELb1EEclB8ue170006ERKSB_RKi, symObjAddr: 0x8524, symBinAddr: 0x10000B688, symSize: 0x48 }
  - { offsetInCU: 0x24F23, offset: 0x24F23, size: 0x8, addend: 0x0, symName: __ZNSt3__121__tree_const_iteratorINS_12__value_typeIiN5boost7variantIiJfbNS_12basic_stringIcNS_11char_traitsIcEENS_9allocatorIcEEEEEEEEEPNS_11__tree_nodeISB_PvEElEmmB8ue170006Ev, symObjAddr: 0x856C, symBinAddr: 0x10000B6D0, symSize: 0x38 }
  - { offsetInCU: 0x24F49, offset: 0x24F49, size: 0x8, addend: 0x0, symName: __ZNSt3__16__treeINS_12__value_typeIiN5boost7variantIiJfbNS_12basic_stringIcNS_11char_traitsIcEENS_9allocatorIcEEEEEEEEENS_19__map_value_compareIiSB_NS_4lessIiEELb1EEENS7_ISB_EEE12__find_equalIiEERPNS_16__tree_node_baseIPvEERPNS_15__tree_end_nodeISM_EERKT_, symObjAddr: 0x85A4, symBinAddr: 0x10000B708, symSize: 0x184 }
  - { offsetInCU: 0x24FB6, offset: 0x24FB6, size: 0x8, addend: 0x0, symName: __ZNKSt3__121__tree_const_iteratorINS_12__value_typeIiN5boost7variantIiJfbNS_12basic_stringIcNS_11char_traitsIcEENS_9allocatorIcEEEEEEEEEPNS_11__tree_nodeISB_PvEElE8__get_npB8ue170006Ev, symObjAddr: 0x8764, symBinAddr: 0x10000B8C8, symSize: 0x18 }
  - { offsetInCU: 0x24FDC, offset: 0x24FDC, size: 0x8, addend: 0x0, symName: __ZNSt3__115__tree_iteratorINS_12__value_typeIiN5boost7variantIiJfbNS_12basic_stringIcNS_11char_traitsIcEENS_9allocatorIcEEEEEEEEEPNS_11__tree_nodeISB_PvEElEC1B8ue170006EPNS_15__tree_end_nodeIPNS_16__tree_node_baseISD_EEEE, symObjAddr: 0x877C, symBinAddr: 0x10000B8E0, symSize: 0x34 }
  - { offsetInCU: 0x25015, offset: 0x25015, size: 0x8, addend: 0x0, symName: __ZNSt3__115__tree_iteratorINS_12__value_typeIiN5boost7variantIiJfbNS_12basic_stringIcNS_11char_traitsIcEENS_9allocatorIcEEEEEEEEEPNS_11__tree_nodeISB_PvEElEC2B8ue170006EPNS_15__tree_end_nodeIPNS_16__tree_node_baseISD_EEEE, symObjAddr: 0x87B0, symBinAddr: 0x10000B914, symSize: 0x20 }
  - { offsetInCU: 0x2504E, offset: 0x2504E, size: 0x8, addend: 0x0, symName: __ZNSt3__121__tree_const_iteratorINS_12__value_typeIiN5boost7variantIiJfbNS_12basic_stringIcNS_11char_traitsIcEENS_9allocatorIcEEEEEEEEEPNS_11__tree_nodeISB_PvEElEC2B8ue170006ENS_15__tree_iteratorISB_SF_lEE, symObjAddr: 0x87D0, symBinAddr: 0x10000B934, symSize: 0x20 }
  - { offsetInCU: 0x25087, offset: 0x25087, size: 0x8, addend: 0x0, symName: __ZNSt3__117__compressed_pairImNS_19__map_value_compareIiNS_12__value_typeIiN5boost7variantIiJfbNS_12basic_stringIcNS_11char_traitsIcEENS_9allocatorIcEEEEEEEEENS_4lessIiEELb1EEEE6secondB8ue170006Ev, symObjAddr: 0x87F0, symBinAddr: 0x10000B954, symSize: 0x24 }
  - { offsetInCU: 0x250AD, offset: 0x250AD, size: 0x8, addend: 0x0, symName: __ZNSt3__122__compressed_pair_elemINS_19__map_value_compareIiNS_12__value_typeIiN5boost7variantIiJfbNS_12basic_stringIcNS_11char_traitsIcEENS_9allocatorIcEEEEEEEEENS_4lessIiEELb1EEELi1ELb1EE5__getB8ue170006Ev, symObjAddr: 0x8814, symBinAddr: 0x10000B978, symSize: 0x14 }
  - { offsetInCU: 0x250D3, offset: 0x250D3, size: 0x8, addend: 0x0, symName: __ZNKSt3__14lessIiEclB8ue170006ERKiS3_, symObjAddr: 0x8828, symBinAddr: 0x10000B98C, symSize: 0x34 }
  - { offsetInCU: 0x25117, offset: 0x25117, size: 0x8, addend: 0x0, symName: __ZNKSt3__112__value_typeIiN5boost7variantIiJfbNS_12basic_stringIcNS_11char_traitsIcEENS_9allocatorIcEEEEEEEE11__get_valueB8ue170006Ev, symObjAddr: 0x885C, symBinAddr: 0x10000B9C0, symSize: 0x14 }
  - { offsetInCU: 0x2513D, offset: 0x2513D, size: 0x8, addend: 0x0, symName: __ZNKSt3__116__tree_node_baseIPvE15__parent_unsafeB8ue170006Ev, symObjAddr: 0x8980, symBinAddr: 0x10000BAE4, symSize: 0x18 }
  - { offsetInCU: 0x25163, offset: 0x25163, size: 0x8, addend: 0x0, symName: __ZNKSt3__16__treeINS_12__value_typeIiN5boost7variantIiJfbNS_12basic_stringIcNS_11char_traitsIcEENS_9allocatorIcEEEEEEEEENS_19__map_value_compareIiSB_NS_4lessIiEELb1EEENS7_ISB_EEE6__rootB8ue170006Ev, symObjAddr: 0x8998, symBinAddr: 0x10000BAFC, symSize: 0x28 }
  - { offsetInCU: 0x25189, offset: 0x25189, size: 0x8, addend: 0x0, symName: __ZNKSt3__16__treeINS_12__value_typeIiN5boost7variantIiJfbNS_12basic_stringIcNS_11char_traitsIcEENS_9allocatorIcEEEEEEEEENS_19__map_value_compareIiSB_NS_4lessIiEELb1EEENS7_ISB_EEE10__root_ptrB8ue170006Ev, symObjAddr: 0x89C0, symBinAddr: 0x10000BB24, symSize: 0x24 }
  - { offsetInCU: 0x251AF, offset: 0x251AF, size: 0x8, addend: 0x0, symName: __ZNSt3__121__tree_const_iteratorINS_12__value_typeIiN5boost7variantIiJfbNS_12basic_stringIcNS_11char_traitsIcEENS_9allocatorIcEEEEEEEEEPNS_11__tree_nodeISB_PvEElEppB8ue170006Ev, symObjAddr: 0x8AD4, symBinAddr: 0x10000BC38, symSize: 0x38 }
  - { offsetInCU: 0x251D5, offset: 0x251D5, size: 0x8, addend: 0x0, symName: __ZNSt3__16__treeINS_12__value_typeIiN5boost7variantIiJfbNS_12basic_stringIcNS_11char_traitsIcEENS_9allocatorIcEEEEEEEEENS_19__map_value_compareIiSB_NS_4lessIiEELb1EEENS7_ISB_EEE12__node_allocB8ue170006Ev, symObjAddr: 0x8BCC, symBinAddr: 0x10000BD30, symSize: 0x28 }
  - { offsetInCU: 0x251FB, offset: 0x251FB, size: 0x8, addend: 0x0, symName: __ZNSt3__116allocator_traitsINS_9allocatorINS_11__tree_nodeINS_12__value_typeIiN5boost7variantIiJfbNS_12basic_stringIcNS_11char_traitsIcEENS1_IcEEEEEEEEEPvEEEEE8allocateB8ue170006ERSF_m, symObjAddr: 0x8BF4, symBinAddr: 0x10000BD58, symSize: 0x2C }
  - { offsetInCU: 0x2522E, offset: 0x2522E, size: 0x8, addend: 0x0, symName: __ZNSt3__122__tree_node_destructorINS_9allocatorINS_11__tree_nodeINS_12__value_typeIiN5boost7variantIiJfbNS_12basic_stringIcNS_11char_traitsIcEENS1_IcEEEEEEEEEPvEEEEEC1B8ue170006ERSF_b, symObjAddr: 0x8C20, symBinAddr: 0x10000BD84, symSize: 0x48 }
  - { offsetInCU: 0x2527B, offset: 0x2527B, size: 0x8, addend: 0x0, symName: __ZNSt3__110unique_ptrINS_11__tree_nodeINS_12__value_typeIiN5boost7variantIiJfbNS_12basic_stringIcNS_11char_traitsIcEENS_9allocatorIcEEEEEEEEEPvEENS_22__tree_node_destructorINS8_ISE_EEEEEC1B8ue170006ILb1EvEEPSE_NS_16__dependent_typeINS_27__unique_ptr_deleter_sfinaeISH_EEXT_EE20__good_rval_ref_typeE, symObjAddr: 0x8C68, symBinAddr: 0x10000BDCC, symSize: 0x3C }
  - { offsetInCU: 0x252CC, offset: 0x252CC, size: 0x8, addend: 0x0, symName: __ZNSt3__116allocator_traitsINS_9allocatorINS_11__tree_nodeINS_12__value_typeIiN5boost7variantIiJfbNS_12basic_stringIcNS_11char_traitsIcEENS1_IcEEEEEEEEEPvEEEEE9constructB8ue170006INS_4pairIKiSB_EEJRKSK_EvEEvRSF_PT_DpOT0_, symObjAddr: 0x8CA4, symBinAddr: 0x10000BE08, symSize: 0x34 }
  - { offsetInCU: 0x25323, offset: 0x25323, size: 0x8, addend: 0x0, symName: __ZNSt3__122__tree_key_value_typesINS_12__value_typeIiN5boost7variantIiJfbNS_12basic_stringIcNS_11char_traitsIcEENS_9allocatorIcEEEEEEEEEE9__get_ptrB8ue170006ERSB_, symObjAddr: 0x8CD8, symBinAddr: 0x10000BE3C, symSize: 0x24 }
  - { offsetInCU: 0x25347, offset: 0x25347, size: 0x8, addend: 0x0, symName: __ZNKSt3__110unique_ptrINS_11__tree_nodeINS_12__value_typeIiN5boost7variantIiJfbNS_12basic_stringIcNS_11char_traitsIcEENS_9allocatorIcEEEEEEEEEPvEENS_22__tree_node_destructorINS8_ISE_EEEEEptB8ue170006Ev, symObjAddr: 0x8CFC, symBinAddr: 0x10000BE60, symSize: 0x28 }
  - { offsetInCU: 0x2536D, offset: 0x2536D, size: 0x8, addend: 0x0, symName: __ZNSt3__110unique_ptrINS_11__tree_nodeINS_12__value_typeIiN5boost7variantIiJfbNS_12basic_stringIcNS_11char_traitsIcEENS_9allocatorIcEEEEEEEEEPvEENS_22__tree_node_destructorINS8_ISE_EEEEE11get_deleterB8ue170006Ev, symObjAddr: 0x8D24, symBinAddr: 0x10000BE88, symSize: 0x24 }
  - { offsetInCU: 0x25393, offset: 0x25393, size: 0x8, addend: 0x0, symName: __ZNSt3__117__compressed_pairINS_15__tree_end_nodeIPNS_16__tree_node_baseIPvEEEENS_9allocatorINS_11__tree_nodeINS_12__value_typeIiN5boost7variantIiJfbNS_12basic_stringIcNS_11char_traitsIcEENS7_IcEEEEEEEEES3_EEEEE6secondB8ue170006Ev, symObjAddr: 0x8D48, symBinAddr: 0x10000BEAC, symSize: 0x24 }
  - { offsetInCU: 0x253B9, offset: 0x253B9, size: 0x8, addend: 0x0, symName: __ZNSt3__122__compressed_pair_elemINS_9allocatorINS_11__tree_nodeINS_12__value_typeIiN5boost7variantIiJfbNS_12basic_stringIcNS_11char_traitsIcEENS1_IcEEEEEEEEEPvEEEELi1ELb1EE5__getB8ue170006Ev, symObjAddr: 0x8D6C, symBinAddr: 0x10000BED0, symSize: 0x14 }
  - { offsetInCU: 0x253DF, offset: 0x253DF, size: 0x8, addend: 0x0, symName: __ZNSt3__19allocatorINS_11__tree_nodeINS_12__value_typeIiN5boost7variantIiJfbNS_12basic_stringIcNS_11char_traitsIcEENS0_IcEEEEEEEEEPvEEE8allocateB8ue170006Em, symObjAddr: 0x8D80, symBinAddr: 0x10000BEE4, symSize: 0x5C }
  - { offsetInCU: 0x2541D, offset: 0x2541D, size: 0x8, addend: 0x0, symName: __ZNSt3__116allocator_traitsINS_9allocatorINS_11__tree_nodeINS_12__value_typeIiN5boost7variantIiJfbNS_12basic_stringIcNS_11char_traitsIcEENS1_IcEEEEEEEEEPvEEEEE8max_sizeB8ue170006ISF_vEEmRKSF_, symObjAddr: 0x8DDC, symBinAddr: 0x10000BF40, symSize: 0x24 }
  - { offsetInCU: 0x2544B, offset: 0x2544B, size: 0x8, addend: 0x0, symName: __ZNKSt3__19allocatorINS_11__tree_nodeINS_12__value_typeIiN5boost7variantIiJfbNS_12basic_stringIcNS_11char_traitsIcEENS0_IcEEEEEEEEEPvEEE8max_sizeB8ue170006Ev, symObjAddr: 0x8E00, symBinAddr: 0x10000BF64, symSize: 0x20 }
  - { offsetInCU: 0x25471, offset: 0x25471, size: 0x8, addend: 0x0, symName: __ZNSt3__122__tree_node_destructorINS_9allocatorINS_11__tree_nodeINS_12__value_typeIiN5boost7variantIiJfbNS_12basic_stringIcNS_11char_traitsIcEENS1_IcEEEEEEEEEPvEEEEEC2B8ue170006ERSF_b, symObjAddr: 0x8E20, symBinAddr: 0x10000BF84, symSize: 0x38 }
  - { offsetInCU: 0x254B9, offset: 0x254B9, size: 0x8, addend: 0x0, symName: __ZNSt3__110unique_ptrINS_11__tree_nodeINS_12__value_typeIiN5boost7variantIiJfbNS_12basic_stringIcNS_11char_traitsIcEENS_9allocatorIcEEEEEEEEEPvEENS_22__tree_node_destructorINS8_ISE_EEEEEC2B8ue170006ILb1EvEEPSE_NS_16__dependent_typeINS_27__unique_ptr_deleter_sfinaeISH_EEXT_EE20__good_rval_ref_typeE, symObjAddr: 0x8E58, symBinAddr: 0x10000BFBC, symSize: 0x48 }
  - { offsetInCU: 0x2550A, offset: 0x2550A, size: 0x8, addend: 0x0, symName: __ZNSt3__117__compressed_pairIPNS_11__tree_nodeINS_12__value_typeIiN5boost7variantIiJfbNS_12basic_stringIcNS_11char_traitsIcEENS_9allocatorIcEEEEEEEEEPvEENS_22__tree_node_destructorINS8_ISE_EEEEEC1B8ue170006IRSF_SI_EEOT_OT0_, symObjAddr: 0x8EA0, symBinAddr: 0x10000C004, symSize: 0x3C }
  - { offsetInCU: 0x25562, offset: 0x25562, size: 0x8, addend: 0x0, symName: __ZNSt3__117__compressed_pairIPNS_11__tree_nodeINS_12__value_typeIiN5boost7variantIiJfbNS_12basic_stringIcNS_11char_traitsIcEENS_9allocatorIcEEEEEEEEEPvEENS_22__tree_node_destructorINS8_ISE_EEEEEC2B8ue170006IRSF_SI_EEOT_OT0_, symObjAddr: 0x8EDC, symBinAddr: 0x10000C040, symSize: 0x48 }
  - { offsetInCU: 0x255BA, offset: 0x255BA, size: 0x8, addend: 0x0, symName: __ZNSt3__122__compressed_pair_elemIPNS_11__tree_nodeINS_12__value_typeIiN5boost7variantIiJfbNS_12basic_stringIcNS_11char_traitsIcEENS_9allocatorIcEEEEEEEEEPvEELi0ELb0EEC2B8ue170006IRSF_vEEOT_, symObjAddr: 0x8F24, symBinAddr: 0x10000C088, symSize: 0x24 }
  - { offsetInCU: 0x255FC, offset: 0x255FC, size: 0x8, addend: 0x0, symName: __ZNSt3__122__compressed_pair_elemINS_22__tree_node_destructorINS_9allocatorINS_11__tree_nodeINS_12__value_typeIiN5boost7variantIiJfbNS_12basic_stringIcNS_11char_traitsIcEENS2_IcEEEEEEEEEPvEEEEEELi1ELb0EEC2B8ue170006ISH_vEEOT_, symObjAddr: 0x8F48, symBinAddr: 0x10000C0AC, symSize: 0x24 }
  - { offsetInCU: 0x2563E, offset: 0x2563E, size: 0x8, addend: 0x0, symName: __ZNSt3__19allocatorINS_11__tree_nodeINS_12__value_typeIiN5boost7variantIiJfbNS_12basic_stringIcNS_11char_traitsIcEENS0_IcEEEEEEEEEPvEEE9constructB8ue170006INS_4pairIKiSA_EEJRKSI_EEEvPT_DpOT0_, symObjAddr: 0x8F6C, symBinAddr: 0x10000C0D0, symSize: 0x30 }
  - { offsetInCU: 0x25694, offset: 0x25694, size: 0x8, addend: 0x0, symName: __ZNSt3__14pairIKiN5boost7variantIiJfbNS_12basic_stringIcNS_11char_traitsIcEENS_9allocatorIcEEEEEEEEC1B8ue170006ERKSB_, symObjAddr: 0x8F9C, symBinAddr: 0x10000C100, symSize: 0x34 }
  - { offsetInCU: 0x256C8, offset: 0x256C8, size: 0x8, addend: 0x0, symName: __ZNSt3__14pairIKiN5boost7variantIiJfbNS_12basic_stringIcNS_11char_traitsIcEENS_9allocatorIcEEEEEEEEC2B8ue170006ERKSB_, symObjAddr: 0x8FD0, symBinAddr: 0x10000C134, symSize: 0x48 }
  - { offsetInCU: 0x256FC, offset: 0x256FC, size: 0x8, addend: 0x0, symName: __ZNSt3__112__value_typeIiN5boost7variantIiJfbNS_12basic_stringIcNS_11char_traitsIcEENS_9allocatorIcEEEEEEEE11__get_valueB8ue170006Ev, symObjAddr: 0x9018, symBinAddr: 0x10000C17C, symSize: 0x14 }
  - { offsetInCU: 0x25722, offset: 0x25722, size: 0x8, addend: 0x0, symName: __ZNKSt3__117__compressed_pairIPNS_11__tree_nodeINS_12__value_typeIiN5boost7variantIiJfbNS_12basic_stringIcNS_11char_traitsIcEENS_9allocatorIcEEEEEEEEEPvEENS_22__tree_node_destructorINS8_ISE_EEEEE5firstB8ue170006Ev, symObjAddr: 0x902C, symBinAddr: 0x10000C190, symSize: 0x24 }
  - { offsetInCU: 0x25748, offset: 0x25748, size: 0x8, addend: 0x0, symName: __ZNKSt3__122__compressed_pair_elemIPNS_11__tree_nodeINS_12__value_typeIiN5boost7variantIiJfbNS_12basic_stringIcNS_11char_traitsIcEENS_9allocatorIcEEEEEEEEEPvEELi0ELb0EE5__getB8ue170006Ev, symObjAddr: 0x9050, symBinAddr: 0x10000C1B4, symSize: 0x14 }
  - { offsetInCU: 0x2576E, offset: 0x2576E, size: 0x8, addend: 0x0, symName: __ZNSt3__117__compressed_pairIPNS_11__tree_nodeINS_12__value_typeIiN5boost7variantIiJfbNS_12basic_stringIcNS_11char_traitsIcEENS_9allocatorIcEEEEEEEEEPvEENS_22__tree_node_destructorINS8_ISE_EEEEE6secondB8ue170006Ev, symObjAddr: 0x9064, symBinAddr: 0x10000C1C8, symSize: 0x28 }
  - { offsetInCU: 0x25794, offset: 0x25794, size: 0x8, addend: 0x0, symName: __ZNSt3__122__compressed_pair_elemINS_22__tree_node_destructorINS_9allocatorINS_11__tree_nodeINS_12__value_typeIiN5boost7variantIiJfbNS_12basic_stringIcNS_11char_traitsIcEENS2_IcEEEEEEEEEPvEEEEEELi1ELb0EE5__getB8ue170006Ev, symObjAddr: 0x908C, symBinAddr: 0x10000C1F0, symSize: 0x14 }
  - { offsetInCU: 0x257BA, offset: 0x257BA, size: 0x8, addend: 0x0, symName: __ZNSt3__16__treeINS_12__value_typeIiN5boost7variantIiJfbNS_12basic_stringIcNS_11char_traitsIcEENS_9allocatorIcEEEEEEEEENS_19__map_value_compareIiSB_NS_4lessIiEELb1EEENS7_ISB_EEE4sizeB8ue170006Ev, symObjAddr: 0x931C, symBinAddr: 0x10000C480, symSize: 0x28 }
  - { offsetInCU: 0x257E0, offset: 0x257E0, size: 0x8, addend: 0x0, symName: __ZNSt3__116__tree_node_baseIPvE12__set_parentB8ue170006EPS2_, symObjAddr: 0x94E8, symBinAddr: 0x10000C64C, symSize: 0x20 }
  - { offsetInCU: 0x25815, offset: 0x25815, size: 0x8, addend: 0x0, symName: __ZNSt3__117__compressed_pairImNS_19__map_value_compareIiNS_12__value_typeIiN5boost7variantIiJfbNS_12basic_stringIcNS_11char_traitsIcEENS_9allocatorIcEEEEEEEEENS_4lessIiEELb1EEEE5firstB8ue170006Ev, symObjAddr: 0x9508, symBinAddr: 0x10000C66C, symSize: 0x24 }
  - { offsetInCU: 0x2583B, offset: 0x2583B, size: 0x8, addend: 0x0, symName: __ZNSt3__122__compressed_pair_elemImLi0ELb0EE5__getB8ue170006Ev, symObjAddr: 0x952C, symBinAddr: 0x10000C690, symSize: 0x14 }
  - { offsetInCU: 0x25861, offset: 0x25861, size: 0x8, addend: 0x0, symName: __ZNSt3__117__compressed_pairIPNS_11__tree_nodeINS_12__value_typeIiN5boost7variantIiJfbNS_12basic_stringIcNS_11char_traitsIcEENS_9allocatorIcEEEEEEEEEPvEENS_22__tree_node_destructorINS8_ISE_EEEEE5firstB8ue170006Ev, symObjAddr: 0x9540, symBinAddr: 0x10000C6A4, symSize: 0x24 }
  - { offsetInCU: 0x25887, offset: 0x25887, size: 0x8, addend: 0x0, symName: __ZNSt3__122__compressed_pair_elemIPNS_11__tree_nodeINS_12__value_typeIiN5boost7variantIiJfbNS_12basic_stringIcNS_11char_traitsIcEENS_9allocatorIcEEEEEEEEEPvEELi0ELb0EE5__getB8ue170006Ev, symObjAddr: 0x9564, symBinAddr: 0x10000C6C8, symSize: 0x14 }
  - { offsetInCU: 0x258AD, offset: 0x258AD, size: 0x8, addend: 0x0, symName: __ZNSt3__110unique_ptrINS_11__tree_nodeINS_12__value_typeIiN5boost7variantIiJfbNS_12basic_stringIcNS_11char_traitsIcEENS_9allocatorIcEEEEEEEEEPvEENS_22__tree_node_destructorINS8_ISE_EEEEED2B8ue170006Ev, symObjAddr: 0x9578, symBinAddr: 0x10000C6DC, symSize: 0x30 }
  - { offsetInCU: 0x258D7, offset: 0x258D7, size: 0x8, addend: 0x0, symName: __ZNSt3__110unique_ptrINS_11__tree_nodeINS_12__value_typeIiN5boost7variantIiJfbNS_12basic_stringIcNS_11char_traitsIcEENS_9allocatorIcEEEEEEEEEPvEENS_22__tree_node_destructorINS8_ISE_EEEEE5resetB8ue170006EPSE_, symObjAddr: 0x95A8, symBinAddr: 0x10000C70C, symSize: 0x78 }
  - { offsetInCU: 0x2591B, offset: 0x2591B, size: 0x8, addend: 0x0, symName: __ZNSt3__122__tree_node_destructorINS_9allocatorINS_11__tree_nodeINS_12__value_typeIiN5boost7variantIiJfbNS_12basic_stringIcNS_11char_traitsIcEENS1_IcEEEEEEEEEPvEEEEEclB8ue170006EPSE_, symObjAddr: 0x9620, symBinAddr: 0x10000C784, symSize: 0x98 }
  - { offsetInCU: 0x25950, offset: 0x25950, size: 0x8, addend: 0x0, symName: __ZNSt3__116allocator_traitsINS_9allocatorINS_11__tree_nodeINS_12__value_typeIiN5boost7variantIiJfbNS_12basic_stringIcNS_11char_traitsIcEENS1_IcEEEEEEEEEPvEEEEE7destroyB8ue170006INS_4pairIKiSB_EEvvEEvRSF_PT_, symObjAddr: 0x96B8, symBinAddr: 0x10000C81C, symSize: 0x28 }
  - { offsetInCU: 0x2598A, offset: 0x2598A, size: 0x8, addend: 0x0, symName: __ZNSt3__116allocator_traitsINS_9allocatorINS_11__tree_nodeINS_12__value_typeIiN5boost7variantIiJfbNS_12basic_stringIcNS_11char_traitsIcEENS1_IcEEEEEEEEEPvEEEEE10deallocateB8ue170006ERSF_PSE_m, symObjAddr: 0x96E0, symBinAddr: 0x10000C844, symSize: 0x34 }
  - { offsetInCU: 0x259CC, offset: 0x259CC, size: 0x8, addend: 0x0, symName: __ZNSt3__19allocatorINS_11__tree_nodeINS_12__value_typeIiN5boost7variantIiJfbNS_12basic_stringIcNS_11char_traitsIcEENS0_IcEEEEEEEEEPvEEE10deallocateB8ue170006EPSD_m, symObjAddr: 0x9714, symBinAddr: 0x10000C878, symSize: 0x44 }
  - { offsetInCU: 0x25A0E, offset: 0x25A0E, size: 0x8, addend: 0x0, symName: __ZNSt3__115__tree_iteratorINS_12__value_typeIiN5boost7variantIiJfbNS_12basic_stringIcNS_11char_traitsIcEENS_9allocatorIcEEEEEEEEEPNS_11__tree_nodeISB_PvEElEC2B8ue170006ESF_, symObjAddr: 0x9758, symBinAddr: 0x10000C8BC, symSize: 0x20 }
  - { offsetInCU: 0x25A47, offset: 0x25A47, size: 0x8, addend: 0x0, symName: __ZNSt3__14pairINS_15__tree_iteratorINS_12__value_typeIiN5boost7variantIiJfbNS_12basic_stringIcNS_11char_traitsIcEENS_9allocatorIcEEEEEEEEEPNS_11__tree_nodeISC_PvEElEEbEC2B8ue170006ISH_RbLSE_0EEEOT_OT0_, symObjAddr: 0x9778, symBinAddr: 0x10000C8DC, symSize: 0x38 }
  - { offsetInCU: 0x25AA5, offset: 0x25AA5, size: 0x8, addend: 0x0, symName: __ZNSt3__114__map_iteratorINS_15__tree_iteratorINS_12__value_typeIiN5boost7variantIiJfbNS_12basic_stringIcNS_11char_traitsIcEENS_9allocatorIcEEEEEEEEEPNS_11__tree_nodeISC_PvEElEEEC2B8ue170006ESH_, symObjAddr: 0x97B0, symBinAddr: 0x10000C914, symSize: 0x20 }
  - { offsetInCU: 0x25ADE, offset: 0x25ADE, size: 0x8, addend: 0x0, symName: __ZNSt3__120__map_const_iteratorINS_21__tree_const_iteratorINS_12__value_typeIiN5boost7variantIiJfbNS_12basic_stringIcNS_11char_traitsIcEENS_9allocatorIcEEEEEEEEEPNS_11__tree_nodeISC_PvEElEEEC2B8ue170006ESH_, symObjAddr: 0x97D0, symBinAddr: 0x10000C934, symSize: 0x20 }
  - { offsetInCU: 0x25B17, offset: 0x25B17, size: 0x8, addend: 0x0, symName: __ZNSt3__16__treeINS_12__value_typeIiN5boost7variantIiJfbNS_12basic_stringIcNS_11char_traitsIcEENS_9allocatorIcEEEEEEEEENS_19__map_value_compareIiSB_NS_4lessIiEELb1EEENS7_ISB_EEED2Ev, symObjAddr: 0x97F0, symBinAddr: 0x10000C954, symSize: 0x38 }
  - { offsetInCU: 0x25B43, offset: 0x25B43, size: 0x8, addend: 0x0, symName: __ZNSt3__16__treeINS_12__value_typeIiN5boost7variantIiJfbNS_12basic_stringIcNS_11char_traitsIcEENS_9allocatorIcEEEEEEEEENS_19__map_value_compareIiSB_NS_4lessIiEELb1EEENS7_ISB_EEE7destroyEPNS_11__tree_nodeISB_PvEE, symObjAddr: 0x9828, symBinAddr: 0x10000C98C, symSize: 0xA8 }
  - { offsetInCU: 0x25B8F, offset: 0x25B8F, size: 0x8, addend: 0x0, symName: __ZNSt3__13mapIiN5boost7variantIiJfbNS_12basic_stringIcNS_11char_traitsIcEENS_9allocatorIcEEEEEEENS_4lessIiEENS6_INS_4pairIKiS9_EEEEED2B8ue170006Ev, symObjAddr: 0x98D0, symBinAddr: 0x10000CA34, symSize: 0x2C }
  - { offsetInCU: 0x25C38, offset: 0x25C38, size: 0x8, addend: 0x0, symName: __ZNKR5boost7variantIiJfbNSt3__112basic_stringIcNS1_11char_traitsIcEENS1_9allocatorIcEEEEEE13apply_visitorINS_6detail7variant11get_visitorIKiEEEENT_11result_typeERSF_, symObjAddr: 0x9980, symBinAddr: 0x10000CAE4, symSize: 0x3BC }
  - { offsetInCU: 0x25D3D, offset: 0x25D3D, size: 0x8, addend: 0x0, symName: __ZN5boost6detail7variant14invoke_visitorINS1_11get_visitorIKiEELb0EEC1ERS5_, symObjAddr: 0x9D8C, symBinAddr: 0x10000CEF0, symSize: 0x34 }
  - { offsetInCU: 0x25D76, offset: 0x25D76, size: 0x8, addend: 0x0, symName: __ZN5boost6detail7variant14invoke_visitorINS1_11get_visitorIKiEELb0EEC2ERS5_, symObjAddr: 0x9DC0, symBinAddr: 0x10000CF24, symSize: 0x20 }
  - { offsetInCU: 0x25DAF, offset: 0x25DAF, size: 0x8, addend: 0x0, symName: __ZNK5boost15aligned_storageILm24ELm8EE7addressEv, symObjAddr: 0x9DE0, symBinAddr: 0x10000CF44, symSize: 0x24 }
  - { offsetInCU: 0x25DD5, offset: 0x25DD5, size: 0x8, addend: 0x0, symName: __ZN5boost6detail7variant14invoke_visitorINS1_11get_visitorIKiEELb0EE14internal_visitIRS4_EENS_12disable_if_cIXaaLb0Esr7is_sameIT_SA_EE5valueEPS4_E4typeEOSA_i, symObjAddr: 0x9F98, symBinAddr: 0x10000D0FC, symSize: 0x34 }
  - { offsetInCU: 0x25E1E, offset: 0x25E1E, size: 0x8, addend: 0x0, symName: __ZNK5boost6detail7variant11get_visitorIKiEclERS3_, symObjAddr: 0x9FE0, symBinAddr: 0x10000D144, symSize: 0x28 }
  - { offsetInCU: 0x25E52, offset: 0x25E52, size: 0x8, addend: 0x0, symName: __ZN5boost6detail7variant14invoke_visitorINS1_11get_visitorIKiEELb0EE14internal_visitIRKfEENS_12disable_if_cIXaaLb0Esr7is_sameIT_SB_EE5valueEPS4_E4typeEOSB_i, symObjAddr: 0xA064, symBinAddr: 0x10000D1C8, symSize: 0x34 }
  - { offsetInCU: 0x25E9B, offset: 0x25E9B, size: 0x8, addend: 0x0, symName: __ZNK5boost6detail7variant11get_visitorIKiEclIfEEPS3_RKT_, symObjAddr: 0xA0AC, symBinAddr: 0x10000D210, symSize: 0x18 }
  - { offsetInCU: 0x25ED4, offset: 0x25ED4, size: 0x8, addend: 0x0, symName: __ZN5boost6detail7variant14invoke_visitorINS1_11get_visitorIKiEELb0EE14internal_visitIRKbEENS_12disable_if_cIXaaLb0Esr7is_sameIT_SB_EE5valueEPS4_E4typeEOSB_i, symObjAddr: 0xA10C, symBinAddr: 0x10000D270, symSize: 0x34 }
  - { offsetInCU: 0x25F1D, offset: 0x25F1D, size: 0x8, addend: 0x0, symName: __ZNK5boost6detail7variant11get_visitorIKiEclIbEEPS3_RKT_, symObjAddr: 0xA154, symBinAddr: 0x10000D2B8, symSize: 0x18 }
  - { offsetInCU: 0x25F56, offset: 0x25F56, size: 0x8, addend: 0x0, symName: __ZN5boost6detail7variant14invoke_visitorINS1_11get_visitorIKiEELb0EE14internal_visitIRKNSt3__112basic_stringIcNS8_11char_traitsIcEENS8_9allocatorIcEEEEEENS_12disable_if_cIXaaLb0Esr7is_sameIT_SI_EE5valueEPS4_E4typeEOSI_i, symObjAddr: 0xA1B4, symBinAddr: 0x10000D318, symSize: 0x34 }
  - { offsetInCU: 0x25F9F, offset: 0x25F9F, size: 0x8, addend: 0x0, symName: __ZNK5boost6detail7variant11get_visitorIKiEclINSt3__112basic_stringIcNS6_11char_traitsIcEENS6_9allocatorIcEEEEEEPS3_RKT_, symObjAddr: 0xA1FC, symBinAddr: 0x10000D360, symSize: 0x18 }
  - { offsetInCU: 0x25FD8, offset: 0x25FD8, size: 0x8, addend: 0x0, symName: __ZN5boost7variantIiJfbNSt3__112basic_stringIcNS1_11char_traitsIcEENS1_9allocatorIcEEEEEEC2IiEEOT_NS_9enable_ifINS_3mpl3or_INSD_4and_INS_19is_rvalue_referenceISB_EENSD_4not_INS_8is_constISA_EEEENSI_INS_7is_sameISA_S8_EEEENS_6detail7variant29is_variant_constructible_fromISB_NSD_6l_itemIN4mpl_5long_ILl4EEEiNSS_INSU_ILl3EEEfNSS_INSU_ILl2EEEbNSS_INSU_ILl1EEES7_NSD_5l_endEEEEEEEEEEENST_5bool_ILb1EEEEENSM_ISA_NS_18recursive_variant_EEENS15_ILb0EEES1A_S1A_EEbE4typeE, symObjAddr: 0xA240, symBinAddr: 0x10000D3A4, symSize: 0x80 }
  - { offsetInCU: 0x26025, offset: 0x26025, size: 0x8, addend: 0x0, symName: __ZN5boost7variantIiJfbNSt3__112basic_stringIcNS1_11char_traitsIcEENS1_9allocatorIcEEEEEE17convert_constructIiEENS_9enable_ifINS_19is_rvalue_referenceIOT_EEvE4typeESD_iN4mpl_5bool_ILb0EEE, symObjAddr: 0xA2C0, symBinAddr: 0x10000D424, symSize: 0x48 }
  - { offsetInCU: 0x260F3, offset: 0x260F3, size: 0x8, addend: 0x0, symName: __ZNKR5boost7variantIiJfbNSt3__112basic_stringIcNS1_11char_traitsIcEENS1_9allocatorIcEEEEEE13apply_visitorINS_6detail7variant11get_visitorIKfEEEENT_11result_typeERSF_, symObjAddr: 0xA38C, symBinAddr: 0x10000D4F0, symSize: 0x3BC }
  - { offsetInCU: 0x261F8, offset: 0x261F8, size: 0x8, addend: 0x0, symName: __ZN5boost6detail7variant14invoke_visitorINS1_11get_visitorIKfEELb0EEC1ERS5_, symObjAddr: 0xA798, symBinAddr: 0x10000D8FC, symSize: 0x34 }
  - { offsetInCU: 0x26231, offset: 0x26231, size: 0x8, addend: 0x0, symName: __ZN5boost6detail7variant14invoke_visitorINS1_11get_visitorIKfEELb0EEC2ERS5_, symObjAddr: 0xA7CC, symBinAddr: 0x10000D930, symSize: 0x20 }
  - { offsetInCU: 0x2626A, offset: 0x2626A, size: 0x8, addend: 0x0, symName: __ZN5boost6detail7variant14invoke_visitorINS1_11get_visitorIKfEELb0EE14internal_visitIRKiEENS_12disable_if_cIXaaLb0Esr7is_sameIT_SB_EE5valueEPS4_E4typeEOSB_i, symObjAddr: 0xA980, symBinAddr: 0x10000DAE4, symSize: 0x34 }
  - { offsetInCU: 0x262B3, offset: 0x262B3, size: 0x8, addend: 0x0, symName: __ZNK5boost6detail7variant11get_visitorIKfEclIiEEPS3_RKT_, symObjAddr: 0xA9B4, symBinAddr: 0x10000DB18, symSize: 0x18 }
  - { offsetInCU: 0x262EC, offset: 0x262EC, size: 0x8, addend: 0x0, symName: __ZN5boost6detail7variant14invoke_visitorINS1_11get_visitorIKfEELb0EE14internal_visitIRS4_EENS_12disable_if_cIXaaLb0Esr7is_sameIT_SA_EE5valueEPS4_E4typeEOSA_i, symObjAddr: 0xAA14, symBinAddr: 0x10000DB78, symSize: 0x34 }
  - { offsetInCU: 0x26335, offset: 0x26335, size: 0x8, addend: 0x0, symName: __ZNK5boost6detail7variant11get_visitorIKfEclERS3_, symObjAddr: 0xAA48, symBinAddr: 0x10000DBAC, symSize: 0x28 }
  - { offsetInCU: 0x26369, offset: 0x26369, size: 0x8, addend: 0x0, symName: __ZN5boost6detail7variant14invoke_visitorINS1_11get_visitorIKfEELb0EE14internal_visitIRKbEENS_12disable_if_cIXaaLb0Esr7is_sameIT_SB_EE5valueEPS4_E4typeEOSB_i, symObjAddr: 0xAACC, symBinAddr: 0x10000DC30, symSize: 0x34 }
  - { offsetInCU: 0x263B2, offset: 0x263B2, size: 0x8, addend: 0x0, symName: __ZNK5boost6detail7variant11get_visitorIKfEclIbEEPS3_RKT_, symObjAddr: 0xAB00, symBinAddr: 0x10000DC64, symSize: 0x18 }
  - { offsetInCU: 0x263EB, offset: 0x263EB, size: 0x8, addend: 0x0, symName: __ZN5boost6detail7variant14invoke_visitorINS1_11get_visitorIKfEELb0EE14internal_visitIRKNSt3__112basic_stringIcNS8_11char_traitsIcEENS8_9allocatorIcEEEEEENS_12disable_if_cIXaaLb0Esr7is_sameIT_SI_EE5valueEPS4_E4typeEOSI_i, symObjAddr: 0xAB60, symBinAddr: 0x10000DCC4, symSize: 0x34 }
  - { offsetInCU: 0x26434, offset: 0x26434, size: 0x8, addend: 0x0, symName: __ZNK5boost6detail7variant11get_visitorIKfEclINSt3__112basic_stringIcNS6_11char_traitsIcEENS6_9allocatorIcEEEEEEPS3_RKT_, symObjAddr: 0xAB94, symBinAddr: 0x10000DCF8, symSize: 0x18 }
  - { offsetInCU: 0x2646D, offset: 0x2646D, size: 0x8, addend: 0x0, symName: __ZN5boost7variantIiJfbNSt3__112basic_stringIcNS1_11char_traitsIcEENS1_9allocatorIcEEEEEEC2IfEEOT_NS_9enable_ifINS_3mpl3or_INSD_4and_INS_19is_rvalue_referenceISB_EENSD_4not_INS_8is_constISA_EEEENSI_INS_7is_sameISA_S8_EEEENS_6detail7variant29is_variant_constructible_fromISB_NSD_6l_itemIN4mpl_5long_ILl4EEEiNSS_INSU_ILl3EEEfNSS_INSU_ILl2EEEbNSS_INSU_ILl1EEES7_NSD_5l_endEEEEEEEEEEENST_5bool_ILb1EEEEENSM_ISA_NS_18recursive_variant_EEENS15_ILb0EEES1A_S1A_EEbE4typeE, symObjAddr: 0xABD8, symBinAddr: 0x10000DD3C, symSize: 0x80 }
  - { offsetInCU: 0x264BA, offset: 0x264BA, size: 0x8, addend: 0x0, symName: __ZN5boost7variantIiJfbNSt3__112basic_stringIcNS1_11char_traitsIcEENS1_9allocatorIcEEEEEE17convert_constructIfEENS_9enable_ifINS_19is_rvalue_referenceIOT_EEvE4typeESD_iN4mpl_5bool_ILb0EEE, symObjAddr: 0xAC58, symBinAddr: 0x10000DDBC, symSize: 0x48 }
  - { offsetInCU: 0x2650E, offset: 0x2650E, size: 0x8, addend: 0x0, symName: __ZN5boost7variantIiJfbNSt3__112basic_stringIcNS1_11char_traitsIcEENS1_9allocatorIcEEEEEEC2IbEEOT_NS_9enable_ifINS_3mpl3or_INSD_4and_INS_19is_rvalue_referenceISB_EENSD_4not_INS_8is_constISA_EEEENSI_INS_7is_sameISA_S8_EEEENS_6detail7variant29is_variant_constructible_fromISB_NSD_6l_itemIN4mpl_5long_ILl4EEEiNSS_INSU_ILl3EEEfNSS_INSU_ILl2EEEbNSS_INSU_ILl1EEES7_NSD_5l_endEEEEEEEEEEENST_5bool_ILb1EEEEENSM_ISA_NS_18recursive_variant_EEENS15_ILb0EEES1A_S1A_EEbE4typeE, symObjAddr: 0xACA0, symBinAddr: 0x10000DE04, symSize: 0x80 }
  - { offsetInCU: 0x2655B, offset: 0x2655B, size: 0x8, addend: 0x0, symName: __ZN5boost7variantIiJfbNSt3__112basic_stringIcNS1_11char_traitsIcEENS1_9allocatorIcEEEEEE17convert_constructIbEENS_9enable_ifINS_19is_rvalue_referenceIOT_EEvE4typeESD_iN4mpl_5bool_ILb0EEE, symObjAddr: 0xAD20, symBinAddr: 0x10000DE84, symSize: 0x48 }
  - { offsetInCU: 0x265CD, offset: 0x265CD, size: 0x8, addend: 0x0, symName: __ZNKSt3__113basic_ostreamIcNS_11char_traitsIcEEE6sentrycvbB8ue170006Ev, symObjAddr: 0xAF54, symBinAddr: 0x10000E0B8, symSize: 0x1C }
  - { offsetInCU: 0x265F3, offset: 0x265F3, size: 0x8, addend: 0x0, symName: __ZNSt3__119ostreambuf_iteratorIcNS_11char_traitsIcEEEC1B8ue170006ERNS_13basic_ostreamIcS2_EE, symObjAddr: 0xB1B0, symBinAddr: 0x10000E314, symSize: 0x34 }
  - { offsetInCU: 0x2662B, offset: 0x2662B, size: 0x8, addend: 0x0, symName: __ZNKSt3__18ios_base5flagsB8ue170006Ev, symObjAddr: 0xB1E4, symBinAddr: 0x10000E348, symSize: 0x18 }
  - { offsetInCU: 0x26653, offset: 0x26653, size: 0x8, addend: 0x0, symName: __ZNKSt3__19basic_iosIcNS_11char_traitsIcEEE4fillB8ue170006Ev, symObjAddr: 0xB1FC, symBinAddr: 0x10000E360, symSize: 0x64 }
  - { offsetInCU: 0x2667B, offset: 0x2667B, size: 0x8, addend: 0x0, symName: __ZNKSt3__119ostreambuf_iteratorIcNS_11char_traitsIcEEE6failedB8ue170006Ev, symObjAddr: 0xB260, symBinAddr: 0x10000E3C4, symSize: 0x24 }
  - { offsetInCU: 0x266A1, offset: 0x266A1, size: 0x8, addend: 0x0, symName: __ZNSt3__19basic_iosIcNS_11char_traitsIcEEE8setstateB8ue170006Ej, symObjAddr: 0xB284, symBinAddr: 0x10000E3E8, symSize: 0x2C }
  - { offsetInCU: 0x266D6, offset: 0x266D6, size: 0x8, addend: 0x0, symName: __ZNKSt3__18ios_base5widthB8ue170006Ev, symObjAddr: 0xB2B0, symBinAddr: 0x10000E414, symSize: 0x18 }
  - { offsetInCU: 0x266FE, offset: 0x266FE, size: 0x8, addend: 0x0, symName: __ZNSt3__115basic_streambufIcNS_11char_traitsIcEEE5sputnB8ue170006EPKcl, symObjAddr: 0xB2C8, symBinAddr: 0x10000E42C, symSize: 0x3C }
  - { offsetInCU: 0x26740, offset: 0x26740, size: 0x8, addend: 0x0, symName: __ZNSt3__112basic_stringIcNS_11char_traitsIcEENS_9allocatorIcEEEC1B8ue170006Emc, symObjAddr: 0xB304, symBinAddr: 0x10000E468, symSize: 0x3C }
  - { offsetInCU: 0x26788, offset: 0x26788, size: 0x8, addend: 0x0, symName: __ZNKSt3__112basic_stringIcNS_11char_traitsIcEENS_9allocatorIcEEE4dataB8ue170006Ev, symObjAddr: 0xB340, symBinAddr: 0x10000E4A4, symSize: 0x28 }
  - { offsetInCU: 0x267AE, offset: 0x267AE, size: 0x8, addend: 0x0, symName: __ZNSt3__18ios_base5widthB8ue170006El, symObjAddr: 0xB368, symBinAddr: 0x10000E4CC, symSize: 0x2C }
  - { offsetInCU: 0x267F4, offset: 0x267F4, size: 0x8, addend: 0x0, symName: __ZNSt3__112basic_stringIcNS_11char_traitsIcEENS_9allocatorIcEEEC2B8ue170006Emc, symObjAddr: 0xB394, symBinAddr: 0x10000E4F8, symSize: 0x4C }
  - { offsetInCU: 0x2683C, offset: 0x2683C, size: 0x8, addend: 0x0, symName: __ZNKSt3__112basic_stringIcNS_11char_traitsIcEENS_9allocatorIcEEE13__get_pointerB8ue170006Ev, symObjAddr: 0xB3F4, symBinAddr: 0x10000E558, symSize: 0x54 }
  - { offsetInCU: 0x26862, offset: 0x26862, size: 0x8, addend: 0x0, symName: __ZNKSt3__112basic_stringIcNS_11char_traitsIcEENS_9allocatorIcEEE9__is_longB8ue170006Ev, symObjAddr: 0xB448, symBinAddr: 0x10000E5AC, symSize: 0x38 }
  - { offsetInCU: 0x26888, offset: 0x26888, size: 0x8, addend: 0x0, symName: __ZNKSt3__112basic_stringIcNS_11char_traitsIcEENS_9allocatorIcEEE18__get_long_pointerB8ue170006Ev, symObjAddr: 0xB480, symBinAddr: 0x10000E5E4, symSize: 0x28 }
  - { offsetInCU: 0x268AE, offset: 0x268AE, size: 0x8, addend: 0x0, symName: __ZNKSt3__112basic_stringIcNS_11char_traitsIcEENS_9allocatorIcEEE19__get_short_pointerB8ue170006Ev, symObjAddr: 0xB4A8, symBinAddr: 0x10000E60C, symSize: 0x28 }
  - { offsetInCU: 0x268D4, offset: 0x268D4, size: 0x8, addend: 0x0, symName: __ZNKSt3__117__compressed_pairINS_12basic_stringIcNS_11char_traitsIcEENS_9allocatorIcEEE5__repES5_E5firstB8ue170006Ev, symObjAddr: 0xB4D0, symBinAddr: 0x10000E634, symSize: 0x24 }
  - { offsetInCU: 0x268FA, offset: 0x268FA, size: 0x8, addend: 0x0, symName: __ZNKSt3__122__compressed_pair_elemINS_12basic_stringIcNS_11char_traitsIcEENS_9allocatorIcEEE5__repELi0ELb0EE5__getB8ue170006Ev, symObjAddr: 0xB4F4, symBinAddr: 0x10000E658, symSize: 0x14 }
  - { offsetInCU: 0x26920, offset: 0x26920, size: 0x8, addend: 0x0, symName: __ZNSt3__114pointer_traitsIPKcE10pointer_toB8ue170006ERS1_, symObjAddr: 0xB508, symBinAddr: 0x10000E66C, symSize: 0x14 }
  - { offsetInCU: 0x26943, offset: 0x26943, size: 0x8, addend: 0x0, symName: __ZNSt3__119ostreambuf_iteratorIcNS_11char_traitsIcEEEC2B8ue170006ERNS_13basic_ostreamIcS2_EE, symObjAddr: 0xB51C, symBinAddr: 0x10000E680, symSize: 0x54 }
  - { offsetInCU: 0x2697B, offset: 0x2697B, size: 0x8, addend: 0x0, symName: __ZNKSt3__19basic_iosIcNS_11char_traitsIcEEE5rdbufB8ue170006Ev, symObjAddr: 0xB570, symBinAddr: 0x10000E6D4, symSize: 0x24 }
  - { offsetInCU: 0x269A3, offset: 0x269A3, size: 0x8, addend: 0x0, symName: __ZNKSt3__18ios_base5rdbufB8ue170006Ev, symObjAddr: 0xB594, symBinAddr: 0x10000E6F8, symSize: 0x18 }
  - { offsetInCU: 0x269C9, offset: 0x269C9, size: 0x8, addend: 0x0, symName: __ZNSt3__111char_traitsIcE11eq_int_typeB8ue170006Eii, symObjAddr: 0xB5AC, symBinAddr: 0x10000E710, symSize: 0x28 }
  - { offsetInCU: 0x269FC, offset: 0x269FC, size: 0x8, addend: 0x0, symName: __ZNSt3__111char_traitsIcE3eofB8ue170006Ev, symObjAddr: 0xB5D4, symBinAddr: 0x10000E738, symSize: 0x8 }
  - { offsetInCU: 0x26A10, offset: 0x26A10, size: 0x8, addend: 0x0, symName: __ZNKSt3__19basic_iosIcNS_11char_traitsIcEEE5widenB8ue170006Ec, symObjAddr: 0xB5DC, symBinAddr: 0x10000E740, symSize: 0x84 }
  - { offsetInCU: 0x26A79, offset: 0x26A79, size: 0x8, addend: 0x0, symName: __ZNKSt3__15ctypeIcE5widenB8ue170006Ec, symObjAddr: 0xB68C, symBinAddr: 0x10000E7F0, symSize: 0x38 }
  - { offsetInCU: 0x26AAE, offset: 0x26AAE, size: 0x8, addend: 0x0, symName: __ZNSt3__18ios_base8setstateB8ue170006Ej, symObjAddr: 0xB6C4, symBinAddr: 0x10000E828, symSize: 0x34 }
  - { offsetInCU: 0x26AE5, offset: 0x26AE5, size: 0x8, addend: 0x0, symName: __ZNKSt3__112basic_stringIcNS_11char_traitsIcEENS_9allocatorIcEEE4sizeB8ue170006Ev, symObjAddr: 0xB6F8, symBinAddr: 0x10000E85C, symSize: 0x54 }
  - { offsetInCU: 0x26B0B, offset: 0x26B0B, size: 0x8, addend: 0x0, symName: __ZNKSt3__112basic_stringIcNS_11char_traitsIcEENS_9allocatorIcEEE15__get_long_sizeB8ue170006Ev, symObjAddr: 0xB74C, symBinAddr: 0x10000E8B0, symSize: 0x28 }
  - { offsetInCU: 0x26B31, offset: 0x26B31, size: 0x8, addend: 0x0, symName: __ZNKSt3__112basic_stringIcNS_11char_traitsIcEENS_9allocatorIcEEE16__get_short_sizeB8ue170006Ev, symObjAddr: 0xB774, symBinAddr: 0x10000E8D8, symSize: 0x34 }
  - { offsetInCU: 0x26B57, offset: 0x26B57, size: 0x8, addend: 0x0, symName: __ZNSt3__111char_traitsIwE6lengthB8ue170006EPKw, symObjAddr: 0xB984, symBinAddr: 0x10000EAE8, symSize: 0x34 }
  - { offsetInCU: 0x26B99, offset: 0x26B99, size: 0x8, addend: 0x0, symName: __ZNKSt3__113basic_ostreamIwNS_11char_traitsIwEEE6sentrycvbB8ue170006Ev, symObjAddr: 0xB9B8, symBinAddr: 0x10000EB1C, symSize: 0x1C }
  - { offsetInCU: 0x26BBF, offset: 0x26BBF, size: 0x8, addend: 0x0, symName: __ZNSt3__119ostreambuf_iteratorIwNS_11char_traitsIwEEEC1B8ue170006ERNS_13basic_ostreamIwS2_EE, symObjAddr: 0xBC2C, symBinAddr: 0x10000ED90, symSize: 0x34 }
  - { offsetInCU: 0x26BF7, offset: 0x26BF7, size: 0x8, addend: 0x0, symName: __ZNKSt3__19basic_iosIwNS_11char_traitsIwEEE4fillB8ue170006Ev, symObjAddr: 0xBC60, symBinAddr: 0x10000EDC4, symSize: 0x5C }
  - { offsetInCU: 0x26C1F, offset: 0x26C1F, size: 0x8, addend: 0x0, symName: __ZNKSt3__119ostreambuf_iteratorIwNS_11char_traitsIwEEE6failedB8ue170006Ev, symObjAddr: 0xBCBC, symBinAddr: 0x10000EE20, symSize: 0x24 }
  - { offsetInCU: 0x26C45, offset: 0x26C45, size: 0x8, addend: 0x0, symName: __ZNSt3__19basic_iosIwNS_11char_traitsIwEEE8setstateB8ue170006Ej, symObjAddr: 0xBCE0, symBinAddr: 0x10000EE44, symSize: 0x2C }
  - { offsetInCU: 0x26C7A, offset: 0x26C7A, size: 0x8, addend: 0x0, symName: __ZNSt3__115basic_streambufIwNS_11char_traitsIwEEE5sputnB8ue170006EPKwl, symObjAddr: 0xBD0C, symBinAddr: 0x10000EE70, symSize: 0x3C }
  - { offsetInCU: 0x26DD2, offset: 0x26DD2, size: 0x8, addend: 0x0, symName: __ZNSt3__112basic_stringIwNS_11char_traitsIwEENS_9allocatorIwEEEC1B8ue170006Emw, symObjAddr: 0xBD48, symBinAddr: 0x10000EEAC, symSize: 0x3C }
  - { offsetInCU: 0x26E1A, offset: 0x26E1A, size: 0x8, addend: 0x0, symName: __ZNKSt3__112basic_stringIwNS_11char_traitsIwEENS_9allocatorIwEEE4dataB8ue170006Ev, symObjAddr: 0xBD84, symBinAddr: 0x10000EEE8, symSize: 0x28 }
  - { offsetInCU: 0x26E40, offset: 0x26E40, size: 0x8, addend: 0x0, symName: __ZNSt3__112basic_stringIwNS_11char_traitsIwEENS_9allocatorIwEEEC2B8ue170006Emw, symObjAddr: 0xBDAC, symBinAddr: 0x10000EF10, symSize: 0x4C }
  - { offsetInCU: 0x26E88, offset: 0x26E88, size: 0x8, addend: 0x0, symName: __ZNSt3__117__compressed_pairINS_12basic_stringIwNS_11char_traitsIwEENS_9allocatorIwEEE5__repES5_EC1B8ue170006INS_18__default_init_tagESA_EEOT_OT0_, symObjAddr: 0xBDF8, symBinAddr: 0x10000EF5C, symSize: 0x3C }
  - { offsetInCU: 0x26EE0, offset: 0x26EE0, size: 0x8, addend: 0x0, symName: __ZNSt3__117__compressed_pairINS_12basic_stringIwNS_11char_traitsIwEENS_9allocatorIwEEE5__repES5_EC2B8ue170006INS_18__default_init_tagESA_EEOT_OT0_, symObjAddr: 0xBE34, symBinAddr: 0x10000EF98, symSize: 0x3C }
  - { offsetInCU: 0x26F38, offset: 0x26F38, size: 0x8, addend: 0x0, symName: __ZNSt3__122__compressed_pair_elemINS_12basic_stringIwNS_11char_traitsIwEENS_9allocatorIwEEE5__repELi0ELb0EEC2B8ue170006ENS_18__default_init_tagE, symObjAddr: 0xBE70, symBinAddr: 0x10000EFD4, symSize: 0x14 }
  - { offsetInCU: 0x26F6C, offset: 0x26F6C, size: 0x8, addend: 0x0, symName: __ZNSt3__122__compressed_pair_elemINS_9allocatorIwEELi1ELb1EEC2B8ue170006ENS_18__default_init_tagE, symObjAddr: 0xBE84, symBinAddr: 0x10000EFE8, symSize: 0x2C }
  - { offsetInCU: 0x26FA0, offset: 0x26FA0, size: 0x8, addend: 0x0, symName: __ZNSt3__19allocatorIwEC2B8ue170006Ev, symObjAddr: 0xBEB0, symBinAddr: 0x10000F014, symSize: 0x2C }
  - { offsetInCU: 0x26FCA, offset: 0x26FCA, size: 0x8, addend: 0x0, symName: __ZNSt3__116__non_trivial_ifILb1ENS_9allocatorIwEEEC2B8ue170006Ev, symObjAddr: 0xBEDC, symBinAddr: 0x10000F040, symSize: 0x14 }
  - { offsetInCU: 0x26FF4, offset: 0x26FF4, size: 0x8, addend: 0x0, symName: __ZNKSt3__112basic_stringIwNS_11char_traitsIwEENS_9allocatorIwEEE13__get_pointerB8ue170006Ev, symObjAddr: 0xBF04, symBinAddr: 0x10000F068, symSize: 0x54 }
  - { offsetInCU: 0x2701A, offset: 0x2701A, size: 0x8, addend: 0x0, symName: __ZNKSt3__112basic_stringIwNS_11char_traitsIwEENS_9allocatorIwEEE9__is_longB8ue170006Ev, symObjAddr: 0xBF58, symBinAddr: 0x10000F0BC, symSize: 0x38 }
  - { offsetInCU: 0x27040, offset: 0x27040, size: 0x8, addend: 0x0, symName: __ZNKSt3__112basic_stringIwNS_11char_traitsIwEENS_9allocatorIwEEE18__get_long_pointerB8ue170006Ev, symObjAddr: 0xBF90, symBinAddr: 0x10000F0F4, symSize: 0x28 }
  - { offsetInCU: 0x27066, offset: 0x27066, size: 0x8, addend: 0x0, symName: __ZNKSt3__112basic_stringIwNS_11char_traitsIwEENS_9allocatorIwEEE19__get_short_pointerB8ue170006Ev, symObjAddr: 0xBFB8, symBinAddr: 0x10000F11C, symSize: 0x28 }
  - { offsetInCU: 0x2708C, offset: 0x2708C, size: 0x8, addend: 0x0, symName: __ZNKSt3__117__compressed_pairINS_12basic_stringIwNS_11char_traitsIwEENS_9allocatorIwEEE5__repES5_E5firstB8ue170006Ev, symObjAddr: 0xBFE0, symBinAddr: 0x10000F144, symSize: 0x24 }
  - { offsetInCU: 0x270B2, offset: 0x270B2, size: 0x8, addend: 0x0, symName: __ZNKSt3__122__compressed_pair_elemINS_12basic_stringIwNS_11char_traitsIwEENS_9allocatorIwEEE5__repELi0ELb0EE5__getB8ue170006Ev, symObjAddr: 0xC004, symBinAddr: 0x10000F168, symSize: 0x14 }
  - { offsetInCU: 0x270D8, offset: 0x270D8, size: 0x8, addend: 0x0, symName: __ZNSt3__114pointer_traitsIPKwE10pointer_toB8ue170006ERS1_, symObjAddr: 0xC018, symBinAddr: 0x10000F17C, symSize: 0x14 }
  - { offsetInCU: 0x270FB, offset: 0x270FB, size: 0x8, addend: 0x0, symName: __ZNSt3__119ostreambuf_iteratorIwNS_11char_traitsIwEEEC2B8ue170006ERNS_13basic_ostreamIwS2_EE, symObjAddr: 0xC02C, symBinAddr: 0x10000F190, symSize: 0x54 }
  - { offsetInCU: 0x27133, offset: 0x27133, size: 0x8, addend: 0x0, symName: __ZNKSt3__19basic_iosIwNS_11char_traitsIwEEE5rdbufB8ue170006Ev, symObjAddr: 0xC080, symBinAddr: 0x10000F1E4, symSize: 0x24 }
  - { offsetInCU: 0x2715B, offset: 0x2715B, size: 0x8, addend: 0x0, symName: __ZNSt3__111char_traitsIwE11eq_int_typeB8ue170006Eii, symObjAddr: 0xC0A4, symBinAddr: 0x10000F208, symSize: 0x28 }
  - { offsetInCU: 0x2718E, offset: 0x2718E, size: 0x8, addend: 0x0, symName: __ZNSt3__111char_traitsIwE3eofB8ue170006Ev, symObjAddr: 0xC0CC, symBinAddr: 0x10000F230, symSize: 0x8 }
  - { offsetInCU: 0x271A2, offset: 0x271A2, size: 0x8, addend: 0x0, symName: __ZNKSt3__19basic_iosIwNS_11char_traitsIwEEE5widenB8ue170006Ec, symObjAddr: 0xC0D4, symBinAddr: 0x10000F238, symSize: 0x80 }
  - { offsetInCU: 0x271F7, offset: 0x271F7, size: 0x8, addend: 0x0, symName: __ZNKSt3__15ctypeIwE5widenB8ue170006Ec, symObjAddr: 0xC180, symBinAddr: 0x10000F2E4, symSize: 0x34 }
  - { offsetInCU: 0x2722C, offset: 0x2722C, size: 0x8, addend: 0x0, symName: __ZNKSt3__112basic_stringIwNS_11char_traitsIwEENS_9allocatorIwEEE4sizeB8ue170006Ev, symObjAddr: 0xC1D8, symBinAddr: 0x10000F33C, symSize: 0x54 }
  - { offsetInCU: 0x27252, offset: 0x27252, size: 0x8, addend: 0x0, symName: __ZNKSt3__112basic_stringIwNS_11char_traitsIwEENS_9allocatorIwEEE15__get_long_sizeB8ue170006Ev, symObjAddr: 0xC22C, symBinAddr: 0x10000F390, symSize: 0x28 }
  - { offsetInCU: 0x27278, offset: 0x27278, size: 0x8, addend: 0x0, symName: __ZNKSt3__112basic_stringIwNS_11char_traitsIwEENS_9allocatorIwEEE16__get_short_sizeB8ue170006Ev, symObjAddr: 0xC254, symBinAddr: 0x10000F3B8, symSize: 0x34 }
  - { offsetInCU: 0x27318, offset: 0x27318, size: 0x8, addend: 0x0, symName: __ZNR5boost7variantIiJfbNSt3__112basic_stringIcNS1_11char_traitsIcEENS1_9allocatorIcEEEEEE13apply_visitorINS_6detail7variant11get_visitorIS7_EEEENT_11result_typeERSE_, symObjAddr: 0xC30C, symBinAddr: 0x10000F470, symSize: 0x3BC }
  - { offsetInCU: 0x2741D, offset: 0x2741D, size: 0x8, addend: 0x0, symName: __ZN5boost6detail7variant14invoke_visitorINS1_11get_visitorINSt3__112basic_stringIcNS4_11char_traitsIcEENS4_9allocatorIcEEEEEELb0EEC1ERSB_, symObjAddr: 0xC718, symBinAddr: 0x10000F87C, symSize: 0x34 }
  - { offsetInCU: 0x27456, offset: 0x27456, size: 0x8, addend: 0x0, symName: __ZN5boost6detail7variant14invoke_visitorINS1_11get_visitorINSt3__112basic_stringIcNS4_11char_traitsIcEENS4_9allocatorIcEEEEEELb0EEC2ERSB_, symObjAddr: 0xC74C, symBinAddr: 0x10000F8B0, symSize: 0x20 }
  - { offsetInCU: 0x2748F, offset: 0x2748F, size: 0x8, addend: 0x0, symName: __ZN5boost6detail7variant14invoke_visitorINS1_11get_visitorINSt3__112basic_stringIcNS4_11char_traitsIcEENS4_9allocatorIcEEEEEELb0EE14internal_visitIRiEENS_12disable_if_cIXaaLb0Esr7is_sameIT_SG_EE5valueEPSA_E4typeEOSG_i, symObjAddr: 0xC900, symBinAddr: 0x10000FA64, symSize: 0x34 }
  - { offsetInCU: 0x274D8, offset: 0x274D8, size: 0x8, addend: 0x0, symName: __ZNK5boost6detail7variant11get_visitorINSt3__112basic_stringIcNS3_11char_traitsIcEENS3_9allocatorIcEEEEEclIiEEPS9_RKT_, symObjAddr: 0xC934, symBinAddr: 0x10000FA98, symSize: 0x18 }
  - { offsetInCU: 0x27511, offset: 0x27511, size: 0x8, addend: 0x0, symName: __ZN5boost6detail7variant14invoke_visitorINS1_11get_visitorINSt3__112basic_stringIcNS4_11char_traitsIcEENS4_9allocatorIcEEEEEELb0EE14internal_visitIRfEENS_12disable_if_cIXaaLb0Esr7is_sameIT_SG_EE5valueEPSA_E4typeEOSG_i, symObjAddr: 0xC994, symBinAddr: 0x10000FAF8, symSize: 0x34 }
  - { offsetInCU: 0x2755A, offset: 0x2755A, size: 0x8, addend: 0x0, symName: __ZNK5boost6detail7variant11get_visitorINSt3__112basic_stringIcNS3_11char_traitsIcEENS3_9allocatorIcEEEEEclIfEEPS9_RKT_, symObjAddr: 0xC9C8, symBinAddr: 0x10000FB2C, symSize: 0x18 }
  - { offsetInCU: 0x27593, offset: 0x27593, size: 0x8, addend: 0x0, symName: __ZN5boost6detail7variant14invoke_visitorINS1_11get_visitorINSt3__112basic_stringIcNS4_11char_traitsIcEENS4_9allocatorIcEEEEEELb0EE14internal_visitIRbEENS_12disable_if_cIXaaLb0Esr7is_sameIT_SG_EE5valueEPSA_E4typeEOSG_i, symObjAddr: 0xCA28, symBinAddr: 0x10000FB8C, symSize: 0x34 }
  - { offsetInCU: 0x275DC, offset: 0x275DC, size: 0x8, addend: 0x0, symName: __ZNK5boost6detail7variant11get_visitorINSt3__112basic_stringIcNS3_11char_traitsIcEENS3_9allocatorIcEEEEEclIbEEPS9_RKT_, symObjAddr: 0xCA5C, symBinAddr: 0x10000FBC0, symSize: 0x18 }
  - { offsetInCU: 0x27615, offset: 0x27615, size: 0x8, addend: 0x0, symName: __ZN5boost6detail7variant14invoke_visitorINS1_11get_visitorINSt3__112basic_stringIcNS4_11char_traitsIcEENS4_9allocatorIcEEEEEELb0EE14internal_visitIRSA_EENS_12disable_if_cIXaaLb0Esr7is_sameIT_SG_EE5valueEPSA_E4typeEOSG_i, symObjAddr: 0xCABC, symBinAddr: 0x10000FC20, symSize: 0x34 }
  - { offsetInCU: 0x2765E, offset: 0x2765E, size: 0x8, addend: 0x0, symName: __ZNK5boost6detail7variant11get_visitorINSt3__112basic_stringIcNS3_11char_traitsIcEENS3_9allocatorIcEEEEEclERS9_, symObjAddr: 0xCAF0, symBinAddr: 0x10000FC54, symSize: 0x28 }
  - { offsetInCU: 0x2770C, offset: 0x2770C, size: 0x8, addend: 0x0, symName: __ZNR5boost7variantIiJfbNSt3__112basic_stringIcNS1_11char_traitsIcEENS1_9allocatorIcEEEEEE13apply_visitorINS_6detail7variant11get_visitorIiEEEENT_11result_typeERSE_, symObjAddr: 0xCBDC, symBinAddr: 0x10000FD40, symSize: 0x3BC }
  - { offsetInCU: 0x27811, offset: 0x27811, size: 0x8, addend: 0x0, symName: __ZN5boost6detail7variant14invoke_visitorINS1_11get_visitorIiEELb0EEC1ERS4_, symObjAddr: 0xCFE8, symBinAddr: 0x10001014C, symSize: 0x34 }
  - { offsetInCU: 0x2784A, offset: 0x2784A, size: 0x8, addend: 0x0, symName: __ZN5boost6detail7variant14invoke_visitorINS1_11get_visitorIiEELb0EEC2ERS4_, symObjAddr: 0xD01C, symBinAddr: 0x100010180, symSize: 0x20 }
  - { offsetInCU: 0x27883, offset: 0x27883, size: 0x8, addend: 0x0, symName: __ZN5boost6detail7variant14invoke_visitorINS1_11get_visitorIiEELb0EE14internal_visitIRiEENS_12disable_if_cIXaaLb0Esr7is_sameIT_S9_EE5valueEPiE4typeEOS9_i, symObjAddr: 0xD1D0, symBinAddr: 0x100010334, symSize: 0x34 }
  - { offsetInCU: 0x278CC, offset: 0x278CC, size: 0x8, addend: 0x0, symName: __ZNK5boost6detail7variant11get_visitorIiEclERi, symObjAddr: 0xD204, symBinAddr: 0x100010368, symSize: 0x28 }
  - { offsetInCU: 0x27900, offset: 0x27900, size: 0x8, addend: 0x0, symName: __ZN5boost6detail7variant14invoke_visitorINS1_11get_visitorIiEELb0EE14internal_visitIRfEENS_12disable_if_cIXaaLb0Esr7is_sameIT_S9_EE5valueEPiE4typeEOS9_i, symObjAddr: 0xD288, symBinAddr: 0x1000103EC, symSize: 0x34 }
  - { offsetInCU: 0x27949, offset: 0x27949, size: 0x8, addend: 0x0, symName: __ZNK5boost6detail7variant11get_visitorIiEclIfEEPiRKT_, symObjAddr: 0xD2BC, symBinAddr: 0x100010420, symSize: 0x18 }
  - { offsetInCU: 0x27982, offset: 0x27982, size: 0x8, addend: 0x0, symName: __ZN5boost6detail7variant14invoke_visitorINS1_11get_visitorIiEELb0EE14internal_visitIRbEENS_12disable_if_cIXaaLb0Esr7is_sameIT_S9_EE5valueEPiE4typeEOS9_i, symObjAddr: 0xD31C, symBinAddr: 0x100010480, symSize: 0x34 }
  - { offsetInCU: 0x279CB, offset: 0x279CB, size: 0x8, addend: 0x0, symName: __ZNK5boost6detail7variant11get_visitorIiEclIbEEPiRKT_, symObjAddr: 0xD350, symBinAddr: 0x1000104B4, symSize: 0x18 }
  - { offsetInCU: 0x27A04, offset: 0x27A04, size: 0x8, addend: 0x0, symName: __ZN5boost6detail7variant14invoke_visitorINS1_11get_visitorIiEELb0EE14internal_visitIRNSt3__112basic_stringIcNS7_11char_traitsIcEENS7_9allocatorIcEEEEEENS_12disable_if_cIXaaLb0Esr7is_sameIT_SG_EE5valueEPiE4typeEOSG_i, symObjAddr: 0xD3B0, symBinAddr: 0x100010514, symSize: 0x34 }
  - { offsetInCU: 0x27A4D, offset: 0x27A4D, size: 0x8, addend: 0x0, symName: __ZNK5boost6detail7variant11get_visitorIiEclINSt3__112basic_stringIcNS5_11char_traitsIcEENS5_9allocatorIcEEEEEEPiRKT_, symObjAddr: 0xD3E4, symBinAddr: 0x100010548, symSize: 0x18 }
  - { offsetInCU: 0x27B00, offset: 0x27B00, size: 0x8, addend: 0x0, symName: __ZNR5boost7variantIiJfbNSt3__112basic_stringIcNS1_11char_traitsIcEENS1_9allocatorIcEEEEEE13apply_visitorINS_6detail7variant11get_visitorIfEEEENT_11result_typeERSE_, symObjAddr: 0xD4AC, symBinAddr: 0x100010610, symSize: 0x3BC }
  - { offsetInCU: 0x27C05, offset: 0x27C05, size: 0x8, addend: 0x0, symName: __ZN5boost6detail7variant14invoke_visitorINS1_11get_visitorIfEELb0EEC1ERS4_, symObjAddr: 0xD8B8, symBinAddr: 0x100010A1C, symSize: 0x34 }
  - { offsetInCU: 0x27C3E, offset: 0x27C3E, size: 0x8, addend: 0x0, symName: __ZN5boost6detail7variant14invoke_visitorINS1_11get_visitorIfEELb0EEC2ERS4_, symObjAddr: 0xD8EC, symBinAddr: 0x100010A50, symSize: 0x20 }
  - { offsetInCU: 0x27C77, offset: 0x27C77, size: 0x8, addend: 0x0, symName: __ZN5boost6detail7variant14invoke_visitorINS1_11get_visitorIfEELb0EE14internal_visitIRiEENS_12disable_if_cIXaaLb0Esr7is_sameIT_S9_EE5valueEPfE4typeEOS9_i, symObjAddr: 0xDAA0, symBinAddr: 0x100010C04, symSize: 0x34 }
  - { offsetInCU: 0x27CC0, offset: 0x27CC0, size: 0x8, addend: 0x0, symName: __ZNK5boost6detail7variant11get_visitorIfEclIiEEPfRKT_, symObjAddr: 0xDAD4, symBinAddr: 0x100010C38, symSize: 0x18 }
  - { offsetInCU: 0x27CF9, offset: 0x27CF9, size: 0x8, addend: 0x0, symName: __ZN5boost6detail7variant14invoke_visitorINS1_11get_visitorIfEELb0EE14internal_visitIRfEENS_12disable_if_cIXaaLb0Esr7is_sameIT_S9_EE5valueEPfE4typeEOS9_i, symObjAddr: 0xDB34, symBinAddr: 0x100010C98, symSize: 0x34 }
  - { offsetInCU: 0x27D42, offset: 0x27D42, size: 0x8, addend: 0x0, symName: __ZNK5boost6detail7variant11get_visitorIfEclERf, symObjAddr: 0xDB68, symBinAddr: 0x100010CCC, symSize: 0x28 }
  - { offsetInCU: 0x27D76, offset: 0x27D76, size: 0x8, addend: 0x0, symName: __ZN5boost6detail7variant14invoke_visitorINS1_11get_visitorIfEELb0EE14internal_visitIRbEENS_12disable_if_cIXaaLb0Esr7is_sameIT_S9_EE5valueEPfE4typeEOS9_i, symObjAddr: 0xDBEC, symBinAddr: 0x100010D50, symSize: 0x34 }
  - { offsetInCU: 0x27DBF, offset: 0x27DBF, size: 0x8, addend: 0x0, symName: __ZNK5boost6detail7variant11get_visitorIfEclIbEEPfRKT_, symObjAddr: 0xDC20, symBinAddr: 0x100010D84, symSize: 0x18 }
  - { offsetInCU: 0x27DF8, offset: 0x27DF8, size: 0x8, addend: 0x0, symName: __ZN5boost6detail7variant14invoke_visitorINS1_11get_visitorIfEELb0EE14internal_visitIRNSt3__112basic_stringIcNS7_11char_traitsIcEENS7_9allocatorIcEEEEEENS_12disable_if_cIXaaLb0Esr7is_sameIT_SG_EE5valueEPfE4typeEOSG_i, symObjAddr: 0xDC80, symBinAddr: 0x100010DE4, symSize: 0x34 }
  - { offsetInCU: 0x27E41, offset: 0x27E41, size: 0x8, addend: 0x0, symName: __ZNK5boost6detail7variant11get_visitorIfEclINSt3__112basic_stringIcNS5_11char_traitsIcEENS5_9allocatorIcEEEEEEPfRKT_, symObjAddr: 0xDCB4, symBinAddr: 0x100010E18, symSize: 0x18 }
  - { offsetInCU: 0x27EF4, offset: 0x27EF4, size: 0x8, addend: 0x0, symName: __ZNR5boost7variantIiJfbNSt3__112basic_stringIcNS1_11char_traitsIcEENS1_9allocatorIcEEEEEE13apply_visitorINS_6detail7variant11get_visitorIbEEEENT_11result_typeERSE_, symObjAddr: 0xDD7C, symBinAddr: 0x100010EE0, symSize: 0x3BC }
  - { offsetInCU: 0x27FF9, offset: 0x27FF9, size: 0x8, addend: 0x0, symName: __ZN5boost6detail7variant14invoke_visitorINS1_11get_visitorIbEELb0EEC1ERS4_, symObjAddr: 0xE188, symBinAddr: 0x1000112EC, symSize: 0x34 }
  - { offsetInCU: 0x28032, offset: 0x28032, size: 0x8, addend: 0x0, symName: __ZN5boost6detail7variant14invoke_visitorINS1_11get_visitorIbEELb0EEC2ERS4_, symObjAddr: 0xE1BC, symBinAddr: 0x100011320, symSize: 0x20 }
  - { offsetInCU: 0x2806B, offset: 0x2806B, size: 0x8, addend: 0x0, symName: __ZN5boost6detail7variant14invoke_visitorINS1_11get_visitorIbEELb0EE14internal_visitIRiEENS_12disable_if_cIXaaLb0Esr7is_sameIT_S9_EE5valueEPbE4typeEOS9_i, symObjAddr: 0xE370, symBinAddr: 0x1000114D4, symSize: 0x34 }
  - { offsetInCU: 0x280B4, offset: 0x280B4, size: 0x8, addend: 0x0, symName: __ZNK5boost6detail7variant11get_visitorIbEclIiEEPbRKT_, symObjAddr: 0xE3A4, symBinAddr: 0x100011508, symSize: 0x18 }
  - { offsetInCU: 0x280ED, offset: 0x280ED, size: 0x8, addend: 0x0, symName: __ZN5boost6detail7variant14invoke_visitorINS1_11get_visitorIbEELb0EE14internal_visitIRfEENS_12disable_if_cIXaaLb0Esr7is_sameIT_S9_EE5valueEPbE4typeEOS9_i, symObjAddr: 0xE404, symBinAddr: 0x100011568, symSize: 0x34 }
  - { offsetInCU: 0x28136, offset: 0x28136, size: 0x8, addend: 0x0, symName: __ZNK5boost6detail7variant11get_visitorIbEclIfEEPbRKT_, symObjAddr: 0xE438, symBinAddr: 0x10001159C, symSize: 0x18 }
  - { offsetInCU: 0x2816F, offset: 0x2816F, size: 0x8, addend: 0x0, symName: __ZN5boost6detail7variant14invoke_visitorINS1_11get_visitorIbEELb0EE14internal_visitIRbEENS_12disable_if_cIXaaLb0Esr7is_sameIT_S9_EE5valueEPbE4typeEOS9_i, symObjAddr: 0xE498, symBinAddr: 0x1000115FC, symSize: 0x34 }
  - { offsetInCU: 0x281B8, offset: 0x281B8, size: 0x8, addend: 0x0, symName: __ZNK5boost6detail7variant11get_visitorIbEclERb, symObjAddr: 0xE4CC, symBinAddr: 0x100011630, symSize: 0x28 }
  - { offsetInCU: 0x281EC, offset: 0x281EC, size: 0x8, addend: 0x0, symName: __ZN5boost6detail7variant14invoke_visitorINS1_11get_visitorIbEELb0EE14internal_visitIRNSt3__112basic_stringIcNS7_11char_traitsIcEENS7_9allocatorIcEEEEEENS_12disable_if_cIXaaLb0Esr7is_sameIT_SG_EE5valueEPbE4typeEOSG_i, symObjAddr: 0xE550, symBinAddr: 0x1000116B4, symSize: 0x34 }
  - { offsetInCU: 0x28235, offset: 0x28235, size: 0x8, addend: 0x0, symName: __ZNK5boost6detail7variant11get_visitorIbEclINSt3__112basic_stringIcNS5_11char_traitsIcEENS5_9allocatorIcEEEEEEPbRKT_, symObjAddr: 0xE584, symBinAddr: 0x1000116E8, symSize: 0x18 }
  - { offsetInCU: 0x28282, offset: 0x28282, size: 0x8, addend: 0x0, symName: __ZNSt3__16__treeINS_12__value_typeIiN5boost7variantIiJfbNS_12basic_stringIcNS_11char_traitsIcEENS_9allocatorIcEEEEEEEEENS_19__map_value_compareIiSB_NS_4lessIiEELb1EEENS7_ISB_EEE25__emplace_unique_key_argsIiJRKNS_21piecewise_construct_tENS_5tupleIJRKiEEENSM_IJEEEEEENS_4pairINS_15__tree_iteratorISB_PNS_11__tree_nodeISB_PvEElEEbEERKT_DpOT0_, symObjAddr: 0xE5C8, symBinAddr: 0x10001172C, symSize: 0x100 }
  - { offsetInCU: 0x28358, offset: 0x28358, size: 0x8, addend: 0x0, symName: __ZNKSt3__115__tree_iteratorINS_12__value_typeIiN5boost7variantIiJfbNS_12basic_stringIcNS_11char_traitsIcEENS_9allocatorIcEEEEEEEEEPNS_11__tree_nodeISB_PvEElEptB8ue170006Ev, symObjAddr: 0xE6F8, symBinAddr: 0x10001185C, symSize: 0x2C }
  - { offsetInCU: 0x2837E, offset: 0x2837E, size: 0x8, addend: 0x0, symName: __ZNSt3__16__treeINS_12__value_typeIiN5boost7variantIiJfbNS_12basic_stringIcNS_11char_traitsIcEENS_9allocatorIcEEEEEEEEENS_19__map_value_compareIiSB_NS_4lessIiEELb1EEENS7_ISB_EEE16__construct_nodeIJRKNS_21piecewise_construct_tENS_5tupleIJRKiEEENSM_IJEEEEEENS_10unique_ptrINS_11__tree_nodeISB_PvEENS_22__tree_node_destructorINS7_ISU_EEEEEEDpOT_, symObjAddr: 0xE724, symBinAddr: 0x100011888, symSize: 0x120 }
  - { offsetInCU: 0x28407, offset: 0x28407, size: 0x8, addend: 0x0, symName: __ZNSt3__116allocator_traitsINS_9allocatorINS_11__tree_nodeINS_12__value_typeIiN5boost7variantIiJfbNS_12basic_stringIcNS_11char_traitsIcEENS1_IcEEEEEEEEEPvEEEEE9constructB8ue170006INS_4pairIKiSB_EEJRKNS_21piecewise_construct_tENS_5tupleIJRSJ_EEENSO_IJEEEEvEEvRSF_PT_DpOT0_, symObjAddr: 0xE844, symBinAddr: 0x1000119A8, symSize: 0x44 }
  - { offsetInCU: 0x28486, offset: 0x28486, size: 0x8, addend: 0x0, symName: __ZNSt3__19allocatorINS_11__tree_nodeINS_12__value_typeIiN5boost7variantIiJfbNS_12basic_stringIcNS_11char_traitsIcEENS0_IcEEEEEEEEEPvEEE9constructB8ue170006INS_4pairIKiSA_EEJRKNS_21piecewise_construct_tENS_5tupleIJRSH_EEENSM_IJEEEEEEvPT_DpOT0_, symObjAddr: 0xE888, symBinAddr: 0x1000119EC, symSize: 0x44 }
  - { offsetInCU: 0x28502, offset: 0x28502, size: 0x8, addend: 0x0, symName: __ZNSt3__14pairIKiN5boost7variantIiJfbNS_12basic_stringIcNS_11char_traitsIcEENS_9allocatorIcEEEEEEEEC1B8ue170006IJRS1_EJEEENS_21piecewise_construct_tENS_5tupleIJDpT_EEENSF_IJDpT0_EEE, symObjAddr: 0xE8CC, symBinAddr: 0x100011A30, symSize: 0x44 }
  - { offsetInCU: 0x28569, offset: 0x28569, size: 0x8, addend: 0x0, symName: __ZNSt3__14pairIKiN5boost7variantIiJfbNS_12basic_stringIcNS_11char_traitsIcEENS_9allocatorIcEEEEEEEEC1B8ue170006IJRS1_EJEJLm0EEJEEENS_21piecewise_construct_tERNS_5tupleIJDpT_EEERNSF_IJDpT0_EEENS_15__tuple_indicesIJXspT1_EEEENSO_IJXspT2_EEEE, symObjAddr: 0xE910, symBinAddr: 0x100011A74, symSize: 0x3C }
  - { offsetInCU: 0x285F6, offset: 0x285F6, size: 0x8, addend: 0x0, symName: __ZNSt3__14pairIKiN5boost7variantIiJfbNS_12basic_stringIcNS_11char_traitsIcEENS_9allocatorIcEEEEEEEEC2B8ue170006IJRS1_EJEJLm0EEJEEENS_21piecewise_construct_tERNS_5tupleIJDpT_EEERNSF_IJDpT0_EEENS_15__tuple_indicesIJXspT1_EEEENSO_IJXspT2_EEEE, symObjAddr: 0xE94C, symBinAddr: 0x100011AB0, symSize: 0x4C }
  - { offsetInCU: 0x28683, offset: 0x28683, size: 0x8, addend: 0x0, symName: __ZN5boost7variantIiJfbNSt3__112basic_stringIcNS1_11char_traitsIcEENS1_9allocatorIcEEEEEEC1Ev, symObjAddr: 0xE9BC, symBinAddr: 0x100011B20, symSize: 0x2C }
  - { offsetInCU: 0x286AD, offset: 0x286AD, size: 0x8, addend: 0x0, symName: __ZNSt3__112__tuple_leafILm0ERKiLb0EE3getB8ue170006Ev, symObjAddr: 0xE9E8, symBinAddr: 0x100011B4C, symSize: 0x18 }
  - { offsetInCU: 0x286D3, offset: 0x286D3, size: 0x8, addend: 0x0, symName: __ZN5boost7variantIiJfbNSt3__112basic_stringIcNS1_11char_traitsIcEENS1_9allocatorIcEEEEEEC2Ev, symObjAddr: 0xEA00, symBinAddr: 0x100011B64, symSize: 0x60 }
  - { offsetInCU: 0x286FD, offset: 0x286FD, size: 0x8, addend: 0x0, symName: __ZNSt3__15tupleIJRKiEEC1B8ue170006INS_4_AndELi0EEES2_, symObjAddr: 0xEA60, symBinAddr: 0x100011BC4, symSize: 0x34 }
  - { offsetInCU: 0x28745, offset: 0x28745, size: 0x8, addend: 0x0, symName: __ZNSt3__15tupleIJRKiEEC2B8ue170006INS_4_AndELi0EEES2_, symObjAddr: 0xEA94, symBinAddr: 0x100011BF8, symSize: 0x34 }
  - { offsetInCU: 0x2878D, offset: 0x2878D, size: 0x8, addend: 0x0, symName: __ZNSt3__112__tuple_implINS_15__tuple_indicesIJLm0EEEEJRKiEEC1B8ue170006IJLm0EEJS4_EJEJEJS4_EEENS1_IJXspT_EEEENS_13__tuple_typesIJDpT0_EEENS1_IJXspT1_EEEENS8_IJDpT2_EEEDpOT3_, symObjAddr: 0xEAC8, symBinAddr: 0x100011C2C, symSize: 0x34 }
  - { offsetInCU: 0x2881E, offset: 0x2881E, size: 0x8, addend: 0x0, symName: __ZNSt3__112__tuple_implINS_15__tuple_indicesIJLm0EEEEJRKiEEC2B8ue170006IJLm0EEJS4_EJEJEJS4_EEENS1_IJXspT_EEEENS_13__tuple_typesIJDpT0_EEENS1_IJXspT1_EEEENS8_IJDpT2_EEEDpOT3_, symObjAddr: 0xEAFC, symBinAddr: 0x100011C60, symSize: 0x34 }
  - { offsetInCU: 0x288AF, offset: 0x288AF, size: 0x8, addend: 0x0, symName: __ZNSt3__112__tuple_leafILm0ERKiLb0EEC2B8ue170006IS2_vEEOT_, symObjAddr: 0xEB30, symBinAddr: 0x100011C94, symSize: 0x20 }
  - { offsetInCU: 0x288F2, offset: 0x288F2, size: 0x8, addend: 0x0, symName: __ZNSt3__114pointer_traitsIPNS_12__value_typeIiN5boost7variantIiJfbNS_12basic_stringIcNS_11char_traitsIcEENS_9allocatorIcEEEEEEEEEE10pointer_toB8ue170006ERSB_, symObjAddr: 0xEB50, symBinAddr: 0x100011CB4, symSize: 0x14 }
  - { offsetInCU: 0x28915, offset: 0x28915, size: 0x8, addend: 0x0, symName: __ZNKSt3__115__tree_iteratorINS_12__value_typeIiN5boost7variantIiJfbNS_12basic_stringIcNS_11char_traitsIcEENS_9allocatorIcEEEEEEEEEPNS_11__tree_nodeISB_PvEElE8__get_npB8ue170006Ev, symObjAddr: 0xEB64, symBinAddr: 0x100011CC8, symSize: 0x18 }
  - { offsetInCU: 0x28A2F, offset: 0x28A2F, size: 0x8, addend: 0x0, symName: __ZN5boost7variantIiJfbNSt3__112basic_stringIcNS1_11char_traitsIcEENS1_9allocatorIcEEEEEE14variant_assignEOS8_, symObjAddr: 0xEB7C, symBinAddr: 0x100011CE0, symSize: 0x6E4 }
  - { offsetInCU: 0x28C15, offset: 0x28C15, size: 0x8, addend: 0x0, symName: __ZN5boost6detail7variant12move_storageC1EPv, symObjAddr: 0xF300, symBinAddr: 0x100012464, symSize: 0x34 }
  - { offsetInCU: 0x28C4E, offset: 0x28C4E, size: 0x8, addend: 0x0, symName: __ZN5boost7variantIiJfbNSt3__112basic_stringIcNS1_11char_traitsIcEENS1_9allocatorIcEEEEEE13move_assignerC1ERS8_i, symObjAddr: 0xF334, symBinAddr: 0x100012498, symSize: 0x3C }
  - { offsetInCU: 0x28C96, offset: 0x28C96, size: 0x8, addend: 0x0, symName: __ZN5boost6detail7variant12move_storageC2EPv, symObjAddr: 0xF370, symBinAddr: 0x1000124D4, symSize: 0x20 }
  - { offsetInCU: 0x28CD9, offset: 0x28CD9, size: 0x8, addend: 0x0, symName: __ZNK5boost6detail7variant12move_storage14internal_visitIiEEvRT_i, symObjAddr: 0xF524, symBinAddr: 0x100012688, symSize: 0x2C }
  - { offsetInCU: 0x28D22, offset: 0x28D22, size: 0x8, addend: 0x0, symName: __ZNK5boost6detail7variant12move_storage14internal_visitIfEEvRT_i, symObjAddr: 0xF598, symBinAddr: 0x1000126FC, symSize: 0x2C }
  - { offsetInCU: 0x28D6B, offset: 0x28D6B, size: 0x8, addend: 0x0, symName: __ZNK5boost6detail7variant12move_storage14internal_visitIbEEvRT_i, symObjAddr: 0xF60C, symBinAddr: 0x100012770, symSize: 0x30 }
  - { offsetInCU: 0x28DB4, offset: 0x28DB4, size: 0x8, addend: 0x0, symName: __ZNK5boost6detail7variant12move_storage14internal_visitINSt3__112basic_stringIcNS4_11char_traitsIcEENS4_9allocatorIcEEEEEEvRT_i, symObjAddr: 0xF684, symBinAddr: 0x1000127E8, symSize: 0x34 }
  - { offsetInCU: 0x28DFD, offset: 0x28DFD, size: 0x8, addend: 0x0, symName: __ZNSt3__112basic_stringIcNS_11char_traitsIcEENS_9allocatorIcEEEaSB8ue170006EOS5_, symObjAddr: 0xF6B8, symBinAddr: 0x10001281C, symSize: 0x34 }
  - { offsetInCU: 0x28E32, offset: 0x28E32, size: 0x8, addend: 0x0, symName: __ZNSt3__112basic_stringIcNS_11char_traitsIcEENS_9allocatorIcEEE13__move_assignB8ue170006ERS5_NS_17integral_constantIbLb1EEE, symObjAddr: 0xF6EC, symBinAddr: 0x100012850, symSize: 0xC8 }
  - { offsetInCU: 0x28E74, offset: 0x28E74, size: 0x8, addend: 0x0, symName: __ZNSt3__116allocator_traitsINS_9allocatorIcEEE10deallocateB8ue170006ERS2_Pcm, symObjAddr: 0xF7B4, symBinAddr: 0x100012918, symSize: 0x34 }
  - { offsetInCU: 0x28EB6, offset: 0x28EB6, size: 0x8, addend: 0x0, symName: __ZNSt3__112basic_stringIcNS_11char_traitsIcEENS_9allocatorIcEEE7__allocB8ue170006Ev, symObjAddr: 0xF7E8, symBinAddr: 0x10001294C, symSize: 0x24 }
  - { offsetInCU: 0x28EDC, offset: 0x28EDC, size: 0x8, addend: 0x0, symName: __ZNSt3__112basic_stringIcNS_11char_traitsIcEENS_9allocatorIcEEE18__get_long_pointerB8ue170006Ev, symObjAddr: 0xF80C, symBinAddr: 0x100012970, symSize: 0x28 }
  - { offsetInCU: 0x28F02, offset: 0x28F02, size: 0x8, addend: 0x0, symName: __ZNKSt3__112basic_stringIcNS_11char_traitsIcEENS_9allocatorIcEEE14__get_long_capB8ue170006Ev, symObjAddr: 0xF834, symBinAddr: 0x100012998, symSize: 0x30 }
  - { offsetInCU: 0x28F28, offset: 0x28F28, size: 0x8, addend: 0x0, symName: __ZNSt3__112basic_stringIcNS_11char_traitsIcEENS_9allocatorIcEEE19__move_assign_allocB8ue170006ERS5_, symObjAddr: 0xF864, symBinAddr: 0x1000129C8, symSize: 0x2C }
  - { offsetInCU: 0x28F5D, offset: 0x28F5D, size: 0x8, addend: 0x0, symName: __ZNSt3__112basic_stringIcNS_11char_traitsIcEENS_9allocatorIcEEE16__set_short_sizeB8ue170006Em, symObjAddr: 0xF890, symBinAddr: 0x1000129F4, symSize: 0x78 }
  - { offsetInCU: 0x28F92, offset: 0x28F92, size: 0x8, addend: 0x0, symName: __ZNSt3__111char_traitsIcE6assignB8ue170006ERcRKc, symObjAddr: 0xF908, symBinAddr: 0x100012A6C, symSize: 0x24 }
  - { offsetInCU: 0x28FC3, offset: 0x28FC3, size: 0x8, addend: 0x0, symName: __ZNSt3__112basic_stringIcNS_11char_traitsIcEENS_9allocatorIcEEE19__get_short_pointerB8ue170006Ev, symObjAddr: 0xF92C, symBinAddr: 0x100012A90, symSize: 0x28 }
  - { offsetInCU: 0x28FE9, offset: 0x28FE9, size: 0x8, addend: 0x0, symName: __ZNSt3__19allocatorIcE10deallocateB8ue170006EPcm, symObjAddr: 0xF954, symBinAddr: 0x100012AB8, symSize: 0x40 }
  - { offsetInCU: 0x2902B, offset: 0x2902B, size: 0x8, addend: 0x0, symName: __ZNSt3__117__compressed_pairINS_12basic_stringIcNS_11char_traitsIcEENS_9allocatorIcEEE5__repES5_E6secondB8ue170006Ev, symObjAddr: 0xF994, symBinAddr: 0x100012AF8, symSize: 0x24 }
  - { offsetInCU: 0x29051, offset: 0x29051, size: 0x8, addend: 0x0, symName: __ZNSt3__122__compressed_pair_elemINS_9allocatorIcEELi1ELb1EE5__getB8ue170006Ev, symObjAddr: 0xF9B8, symBinAddr: 0x100012B1C, symSize: 0x14 }
  - { offsetInCU: 0x29077, offset: 0x29077, size: 0x8, addend: 0x0, symName: __ZNSt3__112basic_stringIcNS_11char_traitsIcEENS_9allocatorIcEEE19__move_assign_allocB8ue170006ERS5_NS_17integral_constantIbLb1EEE, symObjAddr: 0xF9CC, symBinAddr: 0x100012B30, symSize: 0x38 }
  - { offsetInCU: 0x290B7, offset: 0x290B7, size: 0x8, addend: 0x0, symName: __ZNSt3__114pointer_traitsIPcE10pointer_toB8ue170006ERc, symObjAddr: 0xFA04, symBinAddr: 0x100012B68, symSize: 0x14 }
  - { offsetInCU: 0x290DA, offset: 0x290DA, size: 0x8, addend: 0x0, symName: __ZN5boost7variantIiJfbNSt3__112basic_stringIcNS1_11char_traitsIcEENS1_9allocatorIcEEEEEE13move_assignerC2ERS8_i, symObjAddr: 0xFA18, symBinAddr: 0x100012B7C, symSize: 0x3C }
  - { offsetInCU: 0x29122, offset: 0x29122, size: 0x8, addend: 0x0, symName: __ZN5boost7variantIiJfbNSt3__112basic_stringIcNS1_11char_traitsIcEENS1_9allocatorIcEEEEEE8assignerC2ERS8_i, symObjAddr: 0xFA54, symBinAddr: 0x100012BB8, symSize: 0x2C }
  - { offsetInCU: 0x29174, offset: 0x29174, size: 0x8, addend: 0x0, symName: __ZNK5boost7variantIiJfbNSt3__112basic_stringIcNS1_11char_traitsIcEENS1_9allocatorIcEEEEEE13move_assigner14internal_visitIiEEvRT_i, symObjAddr: 0xFC14, symBinAddr: 0x100012D78, symSize: 0x48 }
  - { offsetInCU: 0x291BD, offset: 0x291BD, size: 0x8, addend: 0x0, symName: __ZNK5boost7variantIiJfbNSt3__112basic_stringIcNS1_11char_traitsIcEENS1_9allocatorIcEEEEEE13move_assigner11assign_implIiN4mpl_5bool_ILb1EEENS8_18has_fallback_type_EEEvRT_T0_SD_T1_, symObjAddr: 0xFC5C, symBinAddr: 0x100012DC0, symSize: 0x6C }
  - { offsetInCU: 0x2922E, offset: 0x2922E, size: 0x8, addend: 0x0, symName: __ZNK5boost7variantIiJfbNSt3__112basic_stringIcNS1_11char_traitsIcEENS1_9allocatorIcEEEEEE13move_assigner14internal_visitIfEEvRT_i, symObjAddr: 0xFD10, symBinAddr: 0x100012E74, symSize: 0x48 }
  - { offsetInCU: 0x29277, offset: 0x29277, size: 0x8, addend: 0x0, symName: __ZNK5boost7variantIiJfbNSt3__112basic_stringIcNS1_11char_traitsIcEENS1_9allocatorIcEEEEEE13move_assigner11assign_implIfN4mpl_5bool_ILb1EEENS8_18has_fallback_type_EEEvRT_T0_SD_T1_, symObjAddr: 0xFD58, symBinAddr: 0x100012EBC, symSize: 0x6C }
  - { offsetInCU: 0x292E8, offset: 0x292E8, size: 0x8, addend: 0x0, symName: __ZNK5boost7variantIiJfbNSt3__112basic_stringIcNS1_11char_traitsIcEENS1_9allocatorIcEEEEEE13move_assigner14internal_visitIbEEvRT_i, symObjAddr: 0xFE0C, symBinAddr: 0x100012F70, symSize: 0x48 }
  - { offsetInCU: 0x29331, offset: 0x29331, size: 0x8, addend: 0x0, symName: __ZNK5boost7variantIiJfbNSt3__112basic_stringIcNS1_11char_traitsIcEENS1_9allocatorIcEEEEEE13move_assigner11assign_implIbN4mpl_5bool_ILb1EEENS8_18has_fallback_type_EEEvRT_T0_SD_T1_, symObjAddr: 0xFE54, symBinAddr: 0x100012FB8, symSize: 0x70 }
  - { offsetInCU: 0x293A2, offset: 0x293A2, size: 0x8, addend: 0x0, symName: __ZNK5boost7variantIiJfbNSt3__112basic_stringIcNS1_11char_traitsIcEENS1_9allocatorIcEEEEEE13move_assigner14internal_visitIS7_EEvRT_i, symObjAddr: 0xFF0C, symBinAddr: 0x100013070, symSize: 0x48 }
  - { offsetInCU: 0x293EB, offset: 0x293EB, size: 0x8, addend: 0x0, symName: __ZNK5boost7variantIiJfbNSt3__112basic_stringIcNS1_11char_traitsIcEENS1_9allocatorIcEEEEEE13move_assigner11assign_implIS7_N4mpl_5bool_ILb1EEENS8_18has_fallback_type_EEEvRT_T0_SD_T1_, symObjAddr: 0xFF54, symBinAddr: 0x1000130B8, symSize: 0x68 }
  - { offsetInCU: 0x2945C, offset: 0x2945C, size: 0x8, addend: 0x0, symName: __ZN5boost6detail7variant8comparerINS_7variantIiJfbNSt3__112basic_stringIcNS4_11char_traitsIcEENS4_9allocatorIcEEEEEEENS1_10equal_compEEC1ERKSB_, symObjAddr: 0xFFBC, symBinAddr: 0x100013120, symSize: 0x34 }
  - { offsetInCU: 0x2950F, offset: 0x2950F, size: 0x8, addend: 0x0, symName: __ZNKR5boost7variantIiJfbNSt3__112basic_stringIcNS1_11char_traitsIcEENS1_9allocatorIcEEEEEE13apply_visitorINS_6detail7variant8comparerIS8_NSB_10equal_compEEEEENT_11result_typeERSF_, symObjAddr: 0xFFF0, symBinAddr: 0x100013154, symSize: 0x468 }
  - { offsetInCU: 0x29614, offset: 0x29614, size: 0x8, addend: 0x0, symName: __ZN5boost6detail7variant8comparerINS_7variantIiJfbNSt3__112basic_stringIcNS4_11char_traitsIcEENS4_9allocatorIcEEEEEEENS1_10equal_compEEC2ERKSB_, symObjAddr: 0x104A8, symBinAddr: 0x10001360C, symSize: 0x20 }
  - { offsetInCU: 0x2964D, offset: 0x2964D, size: 0x8, addend: 0x0, symName: __ZN5boost6detail7variant14invoke_visitorINS1_8comparerINS_7variantIiJfbNSt3__112basic_stringIcNS5_11char_traitsIcEENS5_9allocatorIcEEEEEEENS1_10equal_compEEELb0EEC1ERSE_, symObjAddr: 0x104C8, symBinAddr: 0x10001362C, symSize: 0x34 }
  - { offsetInCU: 0x29686, offset: 0x29686, size: 0x8, addend: 0x0, symName: __ZN5boost6detail7variant14invoke_visitorINS1_8comparerINS_7variantIiJfbNSt3__112basic_stringIcNS5_11char_traitsIcEENS5_9allocatorIcEEEEEEENS1_10equal_compEEELb0EEC2ERSE_, symObjAddr: 0x104FC, symBinAddr: 0x100013660, symSize: 0x20 }
  - { offsetInCU: 0x296BF, offset: 0x296BF, size: 0x8, addend: 0x0, symName: __ZN5boost6detail7variant14invoke_visitorINS1_8comparerINS_7variantIiJfbNSt3__112basic_stringIcNS5_11char_traitsIcEENS5_9allocatorIcEEEEEEENS1_10equal_compEEELb0EE14internal_visitIRKiEENS_12disable_if_cIXaaLb0Esr7is_sameIT_SK_EE5valueEbE4typeEOSK_i, symObjAddr: 0x106C4, symBinAddr: 0x100013828, symSize: 0x38 }
  - { offsetInCU: 0x2970D, offset: 0x2970D, size: 0x8, addend: 0x0, symName: __ZNK5boost6detail7variant8comparerINS_7variantIiJfbNSt3__112basic_stringIcNS4_11char_traitsIcEENS4_9allocatorIcEEEEEEENS1_10equal_compEEclIKiEEbRT_, symObjAddr: 0x106FC, symBinAddr: 0x100013860, symSize: 0x48 }
  - { offsetInCU: 0x297E3, offset: 0x297E3, size: 0x8, addend: 0x0, symName: __ZNKR5boost7variantIiJfbNSt3__112basic_stringIcNS1_11char_traitsIcEENS1_9allocatorIcEEEEEE13apply_visitorINS_6detail7variant9known_getIKiEEEENT_11result_typeERSF_, symObjAddr: 0x10744, symBinAddr: 0x1000138A8, symSize: 0x3BC }
  - { offsetInCU: 0x298F2, offset: 0x298F2, size: 0x8, addend: 0x0, symName: __ZNK5boost6detail7variant10equal_compclIiEEbRKT_S6_, symObjAddr: 0x10B50, symBinAddr: 0x100013CB4, symSize: 0x34 }
  - { offsetInCU: 0x2993F, offset: 0x2993F, size: 0x8, addend: 0x0, symName: __ZN5boost6detail7variant14invoke_visitorINS1_9known_getIKiEELb0EEC1ERS5_, symObjAddr: 0x10B84, symBinAddr: 0x100013CE8, symSize: 0x34 }
  - { offsetInCU: 0x29978, offset: 0x29978, size: 0x8, addend: 0x0, symName: __ZN5boost6detail7variant14invoke_visitorINS1_9known_getIKiEELb0EEC2ERS5_, symObjAddr: 0x10BB8, symBinAddr: 0x100013D1C, symSize: 0x20 }
  - { offsetInCU: 0x299B1, offset: 0x299B1, size: 0x8, addend: 0x0, symName: __ZN5boost6detail7variant14invoke_visitorINS1_9known_getIKiEELb0EE14internal_visitIRS4_EENS_12disable_if_cIXaaLb0Esr7is_sameIT_SA_EE5valueES8_E4typeEOSA_i, symObjAddr: 0x10D6C, symBinAddr: 0x100013ED0, symSize: 0x34 }
  - { offsetInCU: 0x299FA, offset: 0x299FA, size: 0x8, addend: 0x0, symName: __ZNK5boost6detail7variant9known_getIKiEclERS3_, symObjAddr: 0x10DA0, symBinAddr: 0x100013F04, symSize: 0x18 }
  - { offsetInCU: 0x29A2F, offset: 0x29A2F, size: 0x8, addend: 0x0, symName: __ZN5boost6detail7variant14invoke_visitorINS1_9known_getIKiEELb0EE14internal_visitIRKfEENS_12disable_if_cIXaaLb0Esr7is_sameIT_SB_EE5valueERS4_E4typeEOSB_i, symObjAddr: 0x10E00, symBinAddr: 0x100013F64, symSize: 0x34 }
  - { offsetInCU: 0x29A78, offset: 0x29A78, size: 0x8, addend: 0x0, symName: __ZNK5boost6detail7variant9known_getIKiEclIKfEERS3_RT_, symObjAddr: 0x10E34, symBinAddr: 0x100013F98, symSize: 0x18 }
  - { offsetInCU: 0x29AB2, offset: 0x29AB2, size: 0x8, addend: 0x0, symName: __ZN5boost6detail7variant14invoke_visitorINS1_9known_getIKiEELb0EE14internal_visitIRKbEENS_12disable_if_cIXaaLb0Esr7is_sameIT_SB_EE5valueERS4_E4typeEOSB_i, symObjAddr: 0x10EC0, symBinAddr: 0x100014024, symSize: 0x34 }
  - { offsetInCU: 0x29AFB, offset: 0x29AFB, size: 0x8, addend: 0x0, symName: __ZNK5boost6detail7variant9known_getIKiEclIKbEERS3_RT_, symObjAddr: 0x10EF4, symBinAddr: 0x100014058, symSize: 0x18 }
  - { offsetInCU: 0x29B35, offset: 0x29B35, size: 0x8, addend: 0x0, symName: __ZN5boost6detail7variant14invoke_visitorINS1_9known_getIKiEELb0EE14internal_visitIRKNSt3__112basic_stringIcNS8_11char_traitsIcEENS8_9allocatorIcEEEEEENS_12disable_if_cIXaaLb0Esr7is_sameIT_SI_EE5valueERS4_E4typeEOSI_i, symObjAddr: 0x10F54, symBinAddr: 0x1000140B8, symSize: 0x34 }
  - { offsetInCU: 0x29B7E, offset: 0x29B7E, size: 0x8, addend: 0x0, symName: __ZNK5boost6detail7variant9known_getIKiEclIKNSt3__112basic_stringIcNS6_11char_traitsIcEENS6_9allocatorIcEEEEEERS3_RT_, symObjAddr: 0x10F88, symBinAddr: 0x1000140EC, symSize: 0x18 }
  - { offsetInCU: 0x29BB8, offset: 0x29BB8, size: 0x8, addend: 0x0, symName: __ZN5boost6detail7variant14invoke_visitorINS1_8comparerINS_7variantIiJfbNSt3__112basic_stringIcNS5_11char_traitsIcEENS5_9allocatorIcEEEEEEENS1_10equal_compEEELb0EE14internal_visitIRKfEENS_12disable_if_cIXaaLb0Esr7is_sameIT_SK_EE5valueEbE4typeEOSK_i, symObjAddr: 0x10FEC, symBinAddr: 0x100014150, symSize: 0x38 }
  - { offsetInCU: 0x29C01, offset: 0x29C01, size: 0x8, addend: 0x0, symName: __ZNK5boost6detail7variant8comparerINS_7variantIiJfbNSt3__112basic_stringIcNS4_11char_traitsIcEENS4_9allocatorIcEEEEEEENS1_10equal_compEEclIKfEEbRT_, symObjAddr: 0x11024, symBinAddr: 0x100014188, symSize: 0x48 }
  - { offsetInCU: 0x29CD7, offset: 0x29CD7, size: 0x8, addend: 0x0, symName: __ZNKR5boost7variantIiJfbNSt3__112basic_stringIcNS1_11char_traitsIcEENS1_9allocatorIcEEEEEE13apply_visitorINS_6detail7variant9known_getIKfEEEENT_11result_typeERSF_, symObjAddr: 0x1106C, symBinAddr: 0x1000141D0, symSize: 0x3BC }
  - { offsetInCU: 0x29DDC, offset: 0x29DDC, size: 0x8, addend: 0x0, symName: __ZNK5boost6detail7variant10equal_compclIfEEbRKT_S6_, symObjAddr: 0x11478, symBinAddr: 0x1000145DC, symSize: 0x34 }
  - { offsetInCU: 0x29E29, offset: 0x29E29, size: 0x8, addend: 0x0, symName: __ZN5boost6detail7variant14invoke_visitorINS1_9known_getIKfEELb0EEC1ERS5_, symObjAddr: 0x114AC, symBinAddr: 0x100014610, symSize: 0x34 }
  - { offsetInCU: 0x29E62, offset: 0x29E62, size: 0x8, addend: 0x0, symName: __ZN5boost6detail7variant14invoke_visitorINS1_9known_getIKfEELb0EEC2ERS5_, symObjAddr: 0x114E0, symBinAddr: 0x100014644, symSize: 0x20 }
  - { offsetInCU: 0x29E9B, offset: 0x29E9B, size: 0x8, addend: 0x0, symName: __ZN5boost6detail7variant14invoke_visitorINS1_9known_getIKfEELb0EE14internal_visitIRKiEENS_12disable_if_cIXaaLb0Esr7is_sameIT_SB_EE5valueERS4_E4typeEOSB_i, symObjAddr: 0x11694, symBinAddr: 0x1000147F8, symSize: 0x34 }
  - { offsetInCU: 0x29EE4, offset: 0x29EE4, size: 0x8, addend: 0x0, symName: __ZNK5boost6detail7variant9known_getIKfEclIKiEERS3_RT_, symObjAddr: 0x116C8, symBinAddr: 0x10001482C, symSize: 0x18 }
  - { offsetInCU: 0x29F1E, offset: 0x29F1E, size: 0x8, addend: 0x0, symName: __ZN5boost6detail7variant14invoke_visitorINS1_9known_getIKfEELb0EE14internal_visitIRS4_EENS_12disable_if_cIXaaLb0Esr7is_sameIT_SA_EE5valueES8_E4typeEOSA_i, symObjAddr: 0x11754, symBinAddr: 0x1000148B8, symSize: 0x34 }
  - { offsetInCU: 0x29F67, offset: 0x29F67, size: 0x8, addend: 0x0, symName: __ZNK5boost6detail7variant9known_getIKfEclERS3_, symObjAddr: 0x11788, symBinAddr: 0x1000148EC, symSize: 0x18 }
  - { offsetInCU: 0x29F9C, offset: 0x29F9C, size: 0x8, addend: 0x0, symName: __ZN5boost6detail7variant14invoke_visitorINS1_9known_getIKfEELb0EE14internal_visitIRKbEENS_12disable_if_cIXaaLb0Esr7is_sameIT_SB_EE5valueERS4_E4typeEOSB_i, symObjAddr: 0x117E8, symBinAddr: 0x10001494C, symSize: 0x34 }
  - { offsetInCU: 0x29FE5, offset: 0x29FE5, size: 0x8, addend: 0x0, symName: __ZNK5boost6detail7variant9known_getIKfEclIKbEERS3_RT_, symObjAddr: 0x1181C, symBinAddr: 0x100014980, symSize: 0x18 }
  - { offsetInCU: 0x2A01F, offset: 0x2A01F, size: 0x8, addend: 0x0, symName: __ZN5boost6detail7variant14invoke_visitorINS1_9known_getIKfEELb0EE14internal_visitIRKNSt3__112basic_stringIcNS8_11char_traitsIcEENS8_9allocatorIcEEEEEENS_12disable_if_cIXaaLb0Esr7is_sameIT_SI_EE5valueERS4_E4typeEOSI_i, symObjAddr: 0x1187C, symBinAddr: 0x1000149E0, symSize: 0x34 }
  - { offsetInCU: 0x2A068, offset: 0x2A068, size: 0x8, addend: 0x0, symName: __ZNK5boost6detail7variant9known_getIKfEclIKNSt3__112basic_stringIcNS6_11char_traitsIcEENS6_9allocatorIcEEEEEERS3_RT_, symObjAddr: 0x118B0, symBinAddr: 0x100014A14, symSize: 0x18 }
  - { offsetInCU: 0x2A0A2, offset: 0x2A0A2, size: 0x8, addend: 0x0, symName: __ZN5boost6detail7variant14invoke_visitorINS1_8comparerINS_7variantIiJfbNSt3__112basic_stringIcNS5_11char_traitsIcEENS5_9allocatorIcEEEEEEENS1_10equal_compEEELb0EE14internal_visitIRKbEENS_12disable_if_cIXaaLb0Esr7is_sameIT_SK_EE5valueEbE4typeEOSK_i, symObjAddr: 0x11914, symBinAddr: 0x100014A78, symSize: 0x38 }
  - { offsetInCU: 0x2A0EB, offset: 0x2A0EB, size: 0x8, addend: 0x0, symName: __ZNK5boost6detail7variant8comparerINS_7variantIiJfbNSt3__112basic_stringIcNS4_11char_traitsIcEENS4_9allocatorIcEEEEEEENS1_10equal_compEEclIKbEEbRT_, symObjAddr: 0x1194C, symBinAddr: 0x100014AB0, symSize: 0x48 }
  - { offsetInCU: 0x2A1C1, offset: 0x2A1C1, size: 0x8, addend: 0x0, symName: __ZNKR5boost7variantIiJfbNSt3__112basic_stringIcNS1_11char_traitsIcEENS1_9allocatorIcEEEEEE13apply_visitorINS_6detail7variant9known_getIKbEEEENT_11result_typeERSF_, symObjAddr: 0x11994, symBinAddr: 0x100014AF8, symSize: 0x3BC }
  - { offsetInCU: 0x2A2C6, offset: 0x2A2C6, size: 0x8, addend: 0x0, symName: __ZNK5boost6detail7variant10equal_compclIbEEbRKT_S6_, symObjAddr: 0x11DA0, symBinAddr: 0x100014F04, symSize: 0x3C }
  - { offsetInCU: 0x2A313, offset: 0x2A313, size: 0x8, addend: 0x0, symName: __ZN5boost6detail7variant14invoke_visitorINS1_9known_getIKbEELb0EEC1ERS5_, symObjAddr: 0x11DDC, symBinAddr: 0x100014F40, symSize: 0x34 }
  - { offsetInCU: 0x2A34C, offset: 0x2A34C, size: 0x8, addend: 0x0, symName: __ZN5boost6detail7variant14invoke_visitorINS1_9known_getIKbEELb0EEC2ERS5_, symObjAddr: 0x11E10, symBinAddr: 0x100014F74, symSize: 0x20 }
  - { offsetInCU: 0x2A385, offset: 0x2A385, size: 0x8, addend: 0x0, symName: __ZN5boost6detail7variant14invoke_visitorINS1_9known_getIKbEELb0EE14internal_visitIRKiEENS_12disable_if_cIXaaLb0Esr7is_sameIT_SB_EE5valueERS4_E4typeEOSB_i, symObjAddr: 0x11FC4, symBinAddr: 0x100015128, symSize: 0x34 }
  - { offsetInCU: 0x2A3CE, offset: 0x2A3CE, size: 0x8, addend: 0x0, symName: __ZNK5boost6detail7variant9known_getIKbEclIKiEERS3_RT_, symObjAddr: 0x11FF8, symBinAddr: 0x10001515C, symSize: 0x18 }
  - { offsetInCU: 0x2A408, offset: 0x2A408, size: 0x8, addend: 0x0, symName: __ZN5boost6detail7variant14invoke_visitorINS1_9known_getIKbEELb0EE14internal_visitIRKfEENS_12disable_if_cIXaaLb0Esr7is_sameIT_SB_EE5valueERS4_E4typeEOSB_i, symObjAddr: 0x12084, symBinAddr: 0x1000151E8, symSize: 0x34 }
  - { offsetInCU: 0x2A451, offset: 0x2A451, size: 0x8, addend: 0x0, symName: __ZNK5boost6detail7variant9known_getIKbEclIKfEERS3_RT_, symObjAddr: 0x120B8, symBinAddr: 0x10001521C, symSize: 0x18 }
  - { offsetInCU: 0x2A48B, offset: 0x2A48B, size: 0x8, addend: 0x0, symName: __ZN5boost6detail7variant14invoke_visitorINS1_9known_getIKbEELb0EE14internal_visitIRS4_EENS_12disable_if_cIXaaLb0Esr7is_sameIT_SA_EE5valueES8_E4typeEOSA_i, symObjAddr: 0x12118, symBinAddr: 0x10001527C, symSize: 0x34 }
  - { offsetInCU: 0x2A4D4, offset: 0x2A4D4, size: 0x8, addend: 0x0, symName: __ZNK5boost6detail7variant9known_getIKbEclERS3_, symObjAddr: 0x1214C, symBinAddr: 0x1000152B0, symSize: 0x18 }
  - { offsetInCU: 0x2A509, offset: 0x2A509, size: 0x8, addend: 0x0, symName: __ZN5boost6detail7variant14invoke_visitorINS1_9known_getIKbEELb0EE14internal_visitIRKNSt3__112basic_stringIcNS8_11char_traitsIcEENS8_9allocatorIcEEEEEENS_12disable_if_cIXaaLb0Esr7is_sameIT_SI_EE5valueERS4_E4typeEOSI_i, symObjAddr: 0x121AC, symBinAddr: 0x100015310, symSize: 0x34 }
  - { offsetInCU: 0x2A552, offset: 0x2A552, size: 0x8, addend: 0x0, symName: __ZNK5boost6detail7variant9known_getIKbEclIKNSt3__112basic_stringIcNS6_11char_traitsIcEENS6_9allocatorIcEEEEEERS3_RT_, symObjAddr: 0x121E0, symBinAddr: 0x100015344, symSize: 0x18 }
  - { offsetInCU: 0x2A58C, offset: 0x2A58C, size: 0x8, addend: 0x0, symName: __ZN5boost6detail7variant14invoke_visitorINS1_8comparerINS_7variantIiJfbNSt3__112basic_stringIcNS5_11char_traitsIcEENS5_9allocatorIcEEEEEEENS1_10equal_compEEELb0EE14internal_visitIRKSB_EENS_12disable_if_cIXaaLb0Esr7is_sameIT_SK_EE5valueEbE4typeEOSK_i, symObjAddr: 0x12244, symBinAddr: 0x1000153A8, symSize: 0x38 }
  - { offsetInCU: 0x2A5D5, offset: 0x2A5D5, size: 0x8, addend: 0x0, symName: __ZNK5boost6detail7variant8comparerINS_7variantIiJfbNSt3__112basic_stringIcNS4_11char_traitsIcEENS4_9allocatorIcEEEEEEENS1_10equal_compEEclIKSA_EEbRT_, symObjAddr: 0x1227C, symBinAddr: 0x1000153E0, symSize: 0x48 }
  - { offsetInCU: 0x2A6AB, offset: 0x2A6AB, size: 0x8, addend: 0x0, symName: __ZNKR5boost7variantIiJfbNSt3__112basic_stringIcNS1_11char_traitsIcEENS1_9allocatorIcEEEEEE13apply_visitorINS_6detail7variant9known_getIKS7_EEEENT_11result_typeERSF_, symObjAddr: 0x122C4, symBinAddr: 0x100015428, symSize: 0x3BC }
  - { offsetInCU: 0x2A7B0, offset: 0x2A7B0, size: 0x8, addend: 0x0, symName: __ZNK5boost6detail7variant10equal_compclINSt3__112basic_stringIcNS4_11char_traitsIcEENS4_9allocatorIcEEEEEEbRKT_SD_, symObjAddr: 0x126D0, symBinAddr: 0x100015834, symSize: 0x34 }
  - { offsetInCU: 0x2A7FD, offset: 0x2A7FD, size: 0x8, addend: 0x0, symName: __ZN5boost6detail7variant14invoke_visitorINS1_9known_getIKNSt3__112basic_stringIcNS4_11char_traitsIcEENS4_9allocatorIcEEEEEELb0EEC1ERSC_, symObjAddr: 0x12704, symBinAddr: 0x100015868, symSize: 0x34 }
  - { offsetInCU: 0x2A836, offset: 0x2A836, size: 0x8, addend: 0x0, symName: __ZN5boost6detail7variant14invoke_visitorINS1_9known_getIKNSt3__112basic_stringIcNS4_11char_traitsIcEENS4_9allocatorIcEEEEEELb0EEC2ERSC_, symObjAddr: 0x12738, symBinAddr: 0x10001589C, symSize: 0x20 }
  - { offsetInCU: 0x2A86F, offset: 0x2A86F, size: 0x8, addend: 0x0, symName: __ZN5boost6detail7variant14invoke_visitorINS1_9known_getIKNSt3__112basic_stringIcNS4_11char_traitsIcEENS4_9allocatorIcEEEEEELb0EE14internal_visitIRKiEENS_12disable_if_cIXaaLb0Esr7is_sameIT_SI_EE5valueERSB_E4typeEOSI_i, symObjAddr: 0x128EC, symBinAddr: 0x100015A50, symSize: 0x34 }
  - { offsetInCU: 0x2A8B8, offset: 0x2A8B8, size: 0x8, addend: 0x0, symName: __ZNK5boost6detail7variant9known_getIKNSt3__112basic_stringIcNS3_11char_traitsIcEENS3_9allocatorIcEEEEEclIKiEERSA_RT_, symObjAddr: 0x12920, symBinAddr: 0x100015A84, symSize: 0x18 }
  - { offsetInCU: 0x2A8F2, offset: 0x2A8F2, size: 0x8, addend: 0x0, symName: __ZN5boost6detail7variant14invoke_visitorINS1_9known_getIKNSt3__112basic_stringIcNS4_11char_traitsIcEENS4_9allocatorIcEEEEEELb0EE14internal_visitIRKfEENS_12disable_if_cIXaaLb0Esr7is_sameIT_SI_EE5valueERSB_E4typeEOSI_i, symObjAddr: 0x129AC, symBinAddr: 0x100015B10, symSize: 0x34 }
  - { offsetInCU: 0x2A93B, offset: 0x2A93B, size: 0x8, addend: 0x0, symName: __ZNK5boost6detail7variant9known_getIKNSt3__112basic_stringIcNS3_11char_traitsIcEENS3_9allocatorIcEEEEEclIKfEERSA_RT_, symObjAddr: 0x129E0, symBinAddr: 0x100015B44, symSize: 0x18 }
  - { offsetInCU: 0x2A975, offset: 0x2A975, size: 0x8, addend: 0x0, symName: __ZN5boost6detail7variant14invoke_visitorINS1_9known_getIKNSt3__112basic_stringIcNS4_11char_traitsIcEENS4_9allocatorIcEEEEEELb0EE14internal_visitIRKbEENS_12disable_if_cIXaaLb0Esr7is_sameIT_SI_EE5valueERSB_E4typeEOSI_i, symObjAddr: 0x12A40, symBinAddr: 0x100015BA4, symSize: 0x34 }
  - { offsetInCU: 0x2A9BE, offset: 0x2A9BE, size: 0x8, addend: 0x0, symName: __ZNK5boost6detail7variant9known_getIKNSt3__112basic_stringIcNS3_11char_traitsIcEENS3_9allocatorIcEEEEEclIKbEERSA_RT_, symObjAddr: 0x12A74, symBinAddr: 0x100015BD8, symSize: 0x18 }
  - { offsetInCU: 0x2A9F8, offset: 0x2A9F8, size: 0x8, addend: 0x0, symName: __ZN5boost6detail7variant14invoke_visitorINS1_9known_getIKNSt3__112basic_stringIcNS4_11char_traitsIcEENS4_9allocatorIcEEEEEELb0EE14internal_visitIRSB_EENS_12disable_if_cIXaaLb0Esr7is_sameIT_SH_EE5valueESF_E4typeEOSH_i, symObjAddr: 0x12AD4, symBinAddr: 0x100015C38, symSize: 0x34 }
  - { offsetInCU: 0x2AA41, offset: 0x2AA41, size: 0x8, addend: 0x0, symName: __ZNK5boost6detail7variant9known_getIKNSt3__112basic_stringIcNS3_11char_traitsIcEENS3_9allocatorIcEEEEEclERSA_, symObjAddr: 0x12B08, symBinAddr: 0x100015C6C, symSize: 0x18 }
  - { offsetInCU: 0x2AA76, offset: 0x2AA76, size: 0x8, addend: 0x0, symName: __ZNSt3__111char_traitsIcE7compareB8ue170006EPKcS3_m, symObjAddr: 0x12C68, symBinAddr: 0x100015DCC, symSize: 0x34 }
  - { offsetInCU: 0x2AAB5, offset: 0x2AAB5, size: 0x8, addend: 0x0, symName: __ZN5boost7variantIiJfbNSt3__112basic_stringIcNS1_11char_traitsIcEENS1_9allocatorIcEEEEEE11move_assignIbEEvOT_, symObjAddr: 0x12CC8, symBinAddr: 0x100015E2C, symSize: 0xDC }
  - { offsetInCU: 0x2AB17, offset: 0x2AB17, size: 0x8, addend: 0x0, symName: __ZN5boost6detail7variant12direct_moverIbEC1ERb, symObjAddr: 0x12DA4, symBinAddr: 0x100015F08, symSize: 0x34 }
  - { offsetInCU: 0x2ABCA, offset: 0x2ABCA, size: 0x8, addend: 0x0, symName: __ZNR5boost7variantIiJfbNSt3__112basic_stringIcNS1_11char_traitsIcEENS1_9allocatorIcEEEEEE13apply_visitorINS_6detail7variant12direct_moverIbEEEENT_11result_typeERSE_, symObjAddr: 0x12DD8, symBinAddr: 0x100015F3C, symSize: 0x468 }
  - { offsetInCU: 0x2ACCF, offset: 0x2ACCF, size: 0x8, addend: 0x0, symName: __ZN5boost6detail7variant12direct_moverIbEC2ERb, symObjAddr: 0x13290, symBinAddr: 0x1000163F4, symSize: 0x20 }
  - { offsetInCU: 0x2AD08, offset: 0x2AD08, size: 0x8, addend: 0x0, symName: __ZN5boost6detail7variant14invoke_visitorINS1_12direct_moverIbEELb0EEC1ERS4_, symObjAddr: 0x132B0, symBinAddr: 0x100016414, symSize: 0x34 }
  - { offsetInCU: 0x2AD41, offset: 0x2AD41, size: 0x8, addend: 0x0, symName: __ZN5boost6detail7variant14invoke_visitorINS1_12direct_moverIbEELb0EEC2ERS4_, symObjAddr: 0x132E4, symBinAddr: 0x100016448, symSize: 0x20 }
  - { offsetInCU: 0x2AD7A, offset: 0x2AD7A, size: 0x8, addend: 0x0, symName: __ZN5boost6detail7variant14invoke_visitorINS1_12direct_moverIbEELb0EE14internal_visitIRiEENS_12disable_if_cIXaaLb0Esr7is_sameIT_S9_EE5valueEbE4typeEOS9_i, symObjAddr: 0x134AC, symBinAddr: 0x100016610, symSize: 0x38 }
  - { offsetInCU: 0x2ADC3, offset: 0x2ADC3, size: 0x8, addend: 0x0, symName: __ZN5boost6detail7variant12direct_moverIbEclIiEEbRT_, symObjAddr: 0x134E4, symBinAddr: 0x100016648, symSize: 0x1C }
  - { offsetInCU: 0x2ADFD, offset: 0x2ADFD, size: 0x8, addend: 0x0, symName: __ZN5boost6detail7variant14invoke_visitorINS1_12direct_moverIbEELb0EE14internal_visitIRfEENS_12disable_if_cIXaaLb0Esr7is_sameIT_S9_EE5valueEbE4typeEOS9_i, symObjAddr: 0x1354C, symBinAddr: 0x1000166B0, symSize: 0x38 }
  - { offsetInCU: 0x2AE46, offset: 0x2AE46, size: 0x8, addend: 0x0, symName: __ZN5boost6detail7variant12direct_moverIbEclIfEEbRT_, symObjAddr: 0x13584, symBinAddr: 0x1000166E8, symSize: 0x1C }
  - { offsetInCU: 0x2AE80, offset: 0x2AE80, size: 0x8, addend: 0x0, symName: __ZN5boost6detail7variant14invoke_visitorINS1_12direct_moverIbEELb0EE14internal_visitIRbEENS_12disable_if_cIXaaLb0Esr7is_sameIT_S9_EE5valueEbE4typeEOS9_i, symObjAddr: 0x135EC, symBinAddr: 0x100016750, symSize: 0x38 }
  - { offsetInCU: 0x2AEC9, offset: 0x2AEC9, size: 0x8, addend: 0x0, symName: __ZN5boost6detail7variant12direct_moverIbEclERb, symObjAddr: 0x13624, symBinAddr: 0x100016788, symSize: 0x34 }
  - { offsetInCU: 0x2AEFE, offset: 0x2AEFE, size: 0x8, addend: 0x0, symName: __ZN5boost6detail7variant14invoke_visitorINS1_12direct_moverIbEELb0EE14internal_visitIRNSt3__112basic_stringIcNS7_11char_traitsIcEENS7_9allocatorIcEEEEEENS_12disable_if_cIXaaLb0Esr7is_sameIT_SG_EE5valueEbE4typeEOSG_i, symObjAddr: 0x136A4, symBinAddr: 0x100016808, symSize: 0x38 }
  - { offsetInCU: 0x2AF47, offset: 0x2AF47, size: 0x8, addend: 0x0, symName: __ZN5boost6detail7variant12direct_moverIbEclINSt3__112basic_stringIcNS5_11char_traitsIcEENS5_9allocatorIcEEEEEEbRT_, symObjAddr: 0x136DC, symBinAddr: 0x100016840, symSize: 0x1C }
  - { offsetInCU: 0x2B075, offset: 0x2B075, size: 0x8, addend: 0x0, symName: __ZN5boost7variantIiJfbNSt3__112basic_stringIcNS1_11char_traitsIcEENS1_9allocatorIcEEEEEE14variant_assignERKS8_, symObjAddr: 0x136F8, symBinAddr: 0x10001685C, symSize: 0x6E4 }
  - { offsetInCU: 0x2B25B, offset: 0x2B25B, size: 0x8, addend: 0x0, symName: __ZN5boost6detail7variant14assign_storageC1EPKv, symObjAddr: 0x13E7C, symBinAddr: 0x100016FE0, symSize: 0x34 }
  - { offsetInCU: 0x2B294, offset: 0x2B294, size: 0x8, addend: 0x0, symName: __ZN5boost7variantIiJfbNSt3__112basic_stringIcNS1_11char_traitsIcEENS1_9allocatorIcEEEEEE8assignerC1ERS8_i, symObjAddr: 0x13EB0, symBinAddr: 0x100017014, symSize: 0x3C }
  - { offsetInCU: 0x2B2DC, offset: 0x2B2DC, size: 0x8, addend: 0x0, symName: __ZN5boost6detail7variant14assign_storageC2EPKv, symObjAddr: 0x13EEC, symBinAddr: 0x100017050, symSize: 0x20 }
  - { offsetInCU: 0x2B31F, offset: 0x2B31F, size: 0x8, addend: 0x0, symName: __ZNK5boost6detail7variant14assign_storage14internal_visitIiEEvRT_i, symObjAddr: 0x140A0, symBinAddr: 0x100017204, symSize: 0x2C }
  - { offsetInCU: 0x2B368, offset: 0x2B368, size: 0x8, addend: 0x0, symName: __ZNK5boost6detail7variant14assign_storage14internal_visitIfEEvRT_i, symObjAddr: 0x14114, symBinAddr: 0x100017278, symSize: 0x2C }
  - { offsetInCU: 0x2B3B1, offset: 0x2B3B1, size: 0x8, addend: 0x0, symName: __ZNK5boost6detail7variant14assign_storage14internal_visitIbEEvRT_i, symObjAddr: 0x14188, symBinAddr: 0x1000172EC, symSize: 0x30 }
  - { offsetInCU: 0x2B3FA, offset: 0x2B3FA, size: 0x8, addend: 0x0, symName: __ZNK5boost6detail7variant14assign_storage14internal_visitINSt3__112basic_stringIcNS4_11char_traitsIcEENS4_9allocatorIcEEEEEEvRT_i, symObjAddr: 0x14200, symBinAddr: 0x100017364, symSize: 0x34 }
  - { offsetInCU: 0x2B443, offset: 0x2B443, size: 0x8, addend: 0x0, symName: __ZNK5boost7variantIiJfbNSt3__112basic_stringIcNS1_11char_traitsIcEENS1_9allocatorIcEEEEEE8assigner14internal_visitIiEEvRKT_i, symObjAddr: 0x143C8, symBinAddr: 0x10001752C, symSize: 0x48 }
  - { offsetInCU: 0x2B48C, offset: 0x2B48C, size: 0x8, addend: 0x0, symName: __ZNK5boost7variantIiJfbNSt3__112basic_stringIcNS1_11char_traitsIcEENS1_9allocatorIcEEEEEE8assigner11assign_implIiN4mpl_5bool_ILb1EEENS8_18has_fallback_type_EEEvRKT_SD_T0_T1_, symObjAddr: 0x14410, symBinAddr: 0x100017574, symSize: 0x6C }
  - { offsetInCU: 0x2B4FD, offset: 0x2B4FD, size: 0x8, addend: 0x0, symName: __ZNK5boost7variantIiJfbNSt3__112basic_stringIcNS1_11char_traitsIcEENS1_9allocatorIcEEEEEE8assigner14internal_visitIfEEvRKT_i, symObjAddr: 0x144C4, symBinAddr: 0x100017628, symSize: 0x48 }
  - { offsetInCU: 0x2B546, offset: 0x2B546, size: 0x8, addend: 0x0, symName: __ZNK5boost7variantIiJfbNSt3__112basic_stringIcNS1_11char_traitsIcEENS1_9allocatorIcEEEEEE8assigner11assign_implIfN4mpl_5bool_ILb1EEENS8_18has_fallback_type_EEEvRKT_SD_T0_T1_, symObjAddr: 0x1450C, symBinAddr: 0x100017670, symSize: 0x6C }
  - { offsetInCU: 0x2B5B7, offset: 0x2B5B7, size: 0x8, addend: 0x0, symName: __ZNK5boost7variantIiJfbNSt3__112basic_stringIcNS1_11char_traitsIcEENS1_9allocatorIcEEEEEE8assigner14internal_visitIbEEvRKT_i, symObjAddr: 0x145C0, symBinAddr: 0x100017724, symSize: 0x48 }
  - { offsetInCU: 0x2B600, offset: 0x2B600, size: 0x8, addend: 0x0, symName: __ZNK5boost7variantIiJfbNSt3__112basic_stringIcNS1_11char_traitsIcEENS1_9allocatorIcEEEEEE8assigner11assign_implIbN4mpl_5bool_ILb1EEENS8_18has_fallback_type_EEEvRKT_SD_T0_T1_, symObjAddr: 0x14608, symBinAddr: 0x10001776C, symSize: 0x70 }
  - { offsetInCU: 0x2B671, offset: 0x2B671, size: 0x8, addend: 0x0, symName: __ZNK5boost7variantIiJfbNSt3__112basic_stringIcNS1_11char_traitsIcEENS1_9allocatorIcEEEEEE8assigner14internal_visitIS7_EEvRKT_i, symObjAddr: 0x146C0, symBinAddr: 0x100017824, symSize: 0x48 }
  - { offsetInCU: 0x2B6BA, offset: 0x2B6BA, size: 0x8, addend: 0x0, symName: __ZNK5boost7variantIiJfbNSt3__112basic_stringIcNS1_11char_traitsIcEENS1_9allocatorIcEEEEEE8assigner11assign_implIS7_NS8_18has_fallback_type_EEEvRKT_N4mpl_5bool_ILb0EEENSG_ILb1EEET0_, symObjAddr: 0x14708, symBinAddr: 0x10001786C, symSize: 0xA0 }
  - { offsetInCU: 0x2B731, offset: 0x2B731, size: 0x8, addend: 0x0, symName: __ZN5boost7variantIiJfbNSt3__112basic_stringIcNS1_11char_traitsIcEENS1_9allocatorIcEEEEEE6assignIiEEvRKT_, symObjAddr: 0x147C4, symBinAddr: 0x100017928, symSize: 0xDC }
  - { offsetInCU: 0x2B793, offset: 0x2B793, size: 0x8, addend: 0x0, symName: __ZN5boost6detail7variant15direct_assignerIiEC1ERKi, symObjAddr: 0x148A0, symBinAddr: 0x100017A04, symSize: 0x34 }
  - { offsetInCU: 0x2B846, offset: 0x2B846, size: 0x8, addend: 0x0, symName: __ZNR5boost7variantIiJfbNSt3__112basic_stringIcNS1_11char_traitsIcEENS1_9allocatorIcEEEEEE13apply_visitorINS_6detail7variant15direct_assignerIiEEEENT_11result_typeERSE_, symObjAddr: 0x148D4, symBinAddr: 0x100017A38, symSize: 0x468 }
  - { offsetInCU: 0x2B94B, offset: 0x2B94B, size: 0x8, addend: 0x0, symName: __ZN5boost7variantIiJfbNSt3__112basic_stringIcNS1_11char_traitsIcEENS1_9allocatorIcEEEEEEC1IiEERKT_NS_9enable_ifINS_3mpl3or_INSE_4and_INSE_4not_INS_7is_sameISA_S8_EEEENS_6detail7variant29is_variant_constructible_fromISC_NSE_6l_itemIN4mpl_5long_ILl4EEEiNSO_INSQ_ILl3EEEfNSO_INSQ_ILl2EEEbNSO_INSQ_ILl1EEES7_NSE_5l_endEEEEEEEEEEENSP_5bool_ILb1EEES12_S12_EENSI_ISA_NS_18recursive_variant_EEENS11_ILb0EEES16_S16_EEbE4typeE, symObjAddr: 0x14D8C, symBinAddr: 0x100017EF0, symSize: 0x48 }
  - { offsetInCU: 0x2B998, offset: 0x2B998, size: 0x8, addend: 0x0, symName: __ZN5boost6detail7variant15direct_assignerIiEC2ERKi, symObjAddr: 0x14DD4, symBinAddr: 0x100017F38, symSize: 0x20 }
  - { offsetInCU: 0x2B9D1, offset: 0x2B9D1, size: 0x8, addend: 0x0, symName: __ZN5boost6detail7variant14invoke_visitorINS1_15direct_assignerIiEELb0EEC1ERS4_, symObjAddr: 0x14DF4, symBinAddr: 0x100017F58, symSize: 0x34 }
  - { offsetInCU: 0x2BA0A, offset: 0x2BA0A, size: 0x8, addend: 0x0, symName: __ZN5boost6detail7variant14invoke_visitorINS1_15direct_assignerIiEELb0EEC2ERS4_, symObjAddr: 0x14E28, symBinAddr: 0x100017F8C, symSize: 0x20 }
  - { offsetInCU: 0x2BA43, offset: 0x2BA43, size: 0x8, addend: 0x0, symName: __ZN5boost6detail7variant14invoke_visitorINS1_15direct_assignerIiEELb0EE14internal_visitIRiEENS_12disable_if_cIXaaLb0Esr7is_sameIT_S9_EE5valueEbE4typeEOS9_i, symObjAddr: 0x14FF0, symBinAddr: 0x100018154, symSize: 0x38 }
  - { offsetInCU: 0x2BA8C, offset: 0x2BA8C, size: 0x8, addend: 0x0, symName: __ZN5boost6detail7variant15direct_assignerIiEclERi, symObjAddr: 0x15028, symBinAddr: 0x10001818C, symSize: 0x30 }
  - { offsetInCU: 0x2BAC1, offset: 0x2BAC1, size: 0x8, addend: 0x0, symName: __ZN5boost6detail7variant14invoke_visitorINS1_15direct_assignerIiEELb0EE14internal_visitIRfEENS_12disable_if_cIXaaLb0Esr7is_sameIT_S9_EE5valueEbE4typeEOS9_i, symObjAddr: 0x150A4, symBinAddr: 0x100018208, symSize: 0x38 }
  - { offsetInCU: 0x2BB0A, offset: 0x2BB0A, size: 0x8, addend: 0x0, symName: __ZN5boost6detail7variant15direct_assignerIiEclIfEEbRT_, symObjAddr: 0x150DC, symBinAddr: 0x100018240, symSize: 0x1C }
  - { offsetInCU: 0x2BB44, offset: 0x2BB44, size: 0x8, addend: 0x0, symName: __ZN5boost6detail7variant14invoke_visitorINS1_15direct_assignerIiEELb0EE14internal_visitIRbEENS_12disable_if_cIXaaLb0Esr7is_sameIT_S9_EE5valueEbE4typeEOS9_i, symObjAddr: 0x15144, symBinAddr: 0x1000182A8, symSize: 0x38 }
  - { offsetInCU: 0x2BB8D, offset: 0x2BB8D, size: 0x8, addend: 0x0, symName: __ZN5boost6detail7variant15direct_assignerIiEclIbEEbRT_, symObjAddr: 0x1517C, symBinAddr: 0x1000182E0, symSize: 0x1C }
  - { offsetInCU: 0x2BBC7, offset: 0x2BBC7, size: 0x8, addend: 0x0, symName: __ZN5boost6detail7variant14invoke_visitorINS1_15direct_assignerIiEELb0EE14internal_visitIRNSt3__112basic_stringIcNS7_11char_traitsIcEENS7_9allocatorIcEEEEEENS_12disable_if_cIXaaLb0Esr7is_sameIT_SG_EE5valueEbE4typeEOSG_i, symObjAddr: 0x151E4, symBinAddr: 0x100018348, symSize: 0x38 }
  - { offsetInCU: 0x2BC10, offset: 0x2BC10, size: 0x8, addend: 0x0, symName: __ZN5boost6detail7variant15direct_assignerIiEclINSt3__112basic_stringIcNS5_11char_traitsIcEENS5_9allocatorIcEEEEEEbRT_, symObjAddr: 0x1521C, symBinAddr: 0x100018380, symSize: 0x1C }
  - { offsetInCU: 0x2BC4A, offset: 0x2BC4A, size: 0x8, addend: 0x0, symName: __ZN5boost7variantIiJfbNSt3__112basic_stringIcNS1_11char_traitsIcEENS1_9allocatorIcEEEEEEC2IiEERKT_NS_9enable_ifINS_3mpl3or_INSE_4and_INSE_4not_INS_7is_sameISA_S8_EEEENS_6detail7variant29is_variant_constructible_fromISC_NSE_6l_itemIN4mpl_5long_ILl4EEEiNSO_INSQ_ILl3EEEfNSO_INSQ_ILl2EEEbNSO_INSQ_ILl1EEES7_NSE_5l_endEEEEEEEEEEENSP_5bool_ILb1EEES12_S12_EENSI_ISA_NS_18recursive_variant_EEENS11_ILb0EEES16_S16_EEbE4typeE, symObjAddr: 0x15238, symBinAddr: 0x10001839C, symSize: 0x80 }
  - { offsetInCU: 0x2BC97, offset: 0x2BC97, size: 0x8, addend: 0x0, symName: __ZN5boost7variantIiJfbNSt3__112basic_stringIcNS1_11char_traitsIcEENS1_9allocatorIcEEEEEE17convert_constructIKiEEvRT_iN4mpl_5bool_ILb0EEE, symObjAddr: 0x152B8, symBinAddr: 0x10001841C, symSize: 0x48 }
  - { offsetInCU: 0x2BCEB, offset: 0x2BCEB, size: 0x8, addend: 0x0, symName: __ZN5boost6detail7variant21make_initializer_node5applyINS_3mpl4pairINS1_16initializer_rootEN4mpl_4int_ILi0EEEEENS4_6l_iterINS4_5list4IifbNSt3__112basic_stringIcNSD_11char_traitsIcEENSD_9allocatorIcEEEEEEEEE16initializer_node10initializeEPvRKi, symObjAddr: 0x15300, symBinAddr: 0x100018464, symSize: 0x28 }
  - { offsetInCU: 0x2BD96, offset: 0x2BD96, size: 0x8, addend: 0x0, symName: __ZN5boost7variantIiJfbNSt3__112basic_stringIcNS1_11char_traitsIcEENS1_9allocatorIcEEEEEEC2ERKS8_, symObjAddr: 0x15328, symBinAddr: 0x10001848C, symSize: 0x420 }
  - { offsetInCU: 0x2BE9B, offset: 0x2BE9B, size: 0x8, addend: 0x0, symName: __ZN5boost6detail7variant9copy_intoC1EPv, symObjAddr: 0x15798, symBinAddr: 0x1000188FC, symSize: 0x34 }
  - { offsetInCU: 0x2BED4, offset: 0x2BED4, size: 0x8, addend: 0x0, symName: __ZN5boost6detail7variant9copy_intoC2EPv, symObjAddr: 0x157CC, symBinAddr: 0x100018930, symSize: 0x20 }
  - { offsetInCU: 0x2BF17, offset: 0x2BF17, size: 0x8, addend: 0x0, symName: __ZNK5boost6detail7variant9copy_into14internal_visitIiEEvRKT_i, symObjAddr: 0x15980, symBinAddr: 0x100018AE4, symSize: 0x2C }
  - { offsetInCU: 0x2BF60, offset: 0x2BF60, size: 0x8, addend: 0x0, symName: __ZNK5boost6detail7variant9copy_into14internal_visitIfEEvRKT_i, symObjAddr: 0x159F4, symBinAddr: 0x100018B58, symSize: 0x2C }
  - { offsetInCU: 0x2BFA9, offset: 0x2BFA9, size: 0x8, addend: 0x0, symName: __ZNK5boost6detail7variant9copy_into14internal_visitIbEEvRKT_i, symObjAddr: 0x15A68, symBinAddr: 0x100018BCC, symSize: 0x30 }
  - { offsetInCU: 0x2BFF2, offset: 0x2BFF2, size: 0x8, addend: 0x0, symName: __ZNK5boost6detail7variant9copy_into14internal_visitINSt3__112basic_stringIcNS4_11char_traitsIcEENS4_9allocatorIcEEEEEEvRKT_i, symObjAddr: 0x15AE0, symBinAddr: 0x100018C44, symSize: 0x34 }
...
