---
triple:          'arm64-apple-darwin'
binary-path:     Zoso
relocations:
  - { offsetInCU: 0x49, offset: 0x49, size: 0x8, addend: 0x0, symName: __ZNSt3__1L19piecewise_constructE, symObjAddr: 0x1F78, symBinAddr: 0x100029B18, symSize: 0x0 }
  - { offsetInCU: 0x5895, offset: 0x5895, size: 0x8, addend: 0x0, symName: __ZNSt3__116forward_as_tupleB8ue170006IJRKiEEENS_5tupleIJDpOT_EEES6_, symObjAddr: 0x650, symBinAddr: 0x100002D1C, symSize: 0x2C }
  - { offsetInCU: 0x58CE, offset: 0x58CE, size: 0x8, addend: 0x0, symName: __ZNSt3__116forward_as_tupleB8ue170006IJEEENS_5tupleIJDpOT_EEES4_, symObjAddr: 0x67C, symBinAddr: 0x100002D48, symSize: 0x4 }
  - { offsetInCU: 0x5910, offset: 0x5910, size: 0x8, addend: 0x0, symName: __ZNSt3__117__libcpp_allocateB8ue170006Emm, symObjAddr: 0xF9C, symBinAddr: 0x100003668, symSize: 0x28 }
  - { offsetInCU: 0x594D, offset: 0x594D, size: 0x8, addend: 0x0, symName: __ZNSt3__121__libcpp_operator_newB8ue170006IJmEEEPvDpT_, symObjAddr: 0xFD8, symBinAddr: 0x1000036A4, symSize: 0x24 }
  - { offsetInCU: 0x5991, offset: 0x5991, size: 0x8, addend: 0x0, symName: __ZNSt3__13getB8ue170006ILm0EJRKiEEERNS_13tuple_elementIXT_ENS_5tupleIJDpT0_EEEE4typeERS7_, symObjAddr: 0x1258, symBinAddr: 0x100003924, symSize: 0x24 }
  - { offsetInCU: 0x59D4, offset: 0x59D4, size: 0x8, addend: 0x0, symName: __ZNSt3__127__tree_balance_after_insertB8ue170006IPNS_16__tree_node_baseIPvEEEEvT_S5_, symObjAddr: 0x14EC, symBinAddr: 0x100003BB8, symSize: 0x32C }
  - { offsetInCU: 0x5A50, offset: 0x5A50, size: 0x8, addend: 0x0, symName: __ZNSt3__120__tree_is_left_childB8ue170006IPNS_16__tree_node_baseIPvEEEEbT_, symObjAddr: 0x1858, symBinAddr: 0x100003F24, symSize: 0x2C }
  - { offsetInCU: 0x5A85, offset: 0x5A85, size: 0x8, addend: 0x0, symName: __ZNSt3__118__tree_left_rotateB8ue170006IPNS_16__tree_node_baseIPvEEEEvT_, symObjAddr: 0x1884, symBinAddr: 0x100003F50, symSize: 0xD8 }
  - { offsetInCU: 0x5AC7, offset: 0x5AC7, size: 0x8, addend: 0x0, symName: __ZNSt3__119__tree_right_rotateB8ue170006IPNS_16__tree_node_baseIPvEEEEvT_, symObjAddr: 0x195C, symBinAddr: 0x100004028, symSize: 0xCC }
  - { offsetInCU: 0x5B09, offset: 0x5B09, size: 0x8, addend: 0x0, symName: __ZNSt3__119__libcpp_deallocateB8ue170006EPvmm, symObjAddr: 0x1CF0, symBinAddr: 0x1000043BC, symSize: 0x30 }
  - { offsetInCU: 0x5B51, offset: 0x5B51, size: 0x8, addend: 0x0, symName: __ZNSt3__127__do_deallocate_handle_sizeB8ue170006IJEEEvPvmDpT_, symObjAddr: 0x1D20, symBinAddr: 0x1000043EC, symSize: 0x28 }
  - { offsetInCU: 0x5B8F, offset: 0x5B8F, size: 0x8, addend: 0x0, symName: __ZNSt3__124__libcpp_operator_deleteB8ue170006IJPvEEEvDpT_, symObjAddr: 0x1D48, symBinAddr: 0x100004414, symSize: 0x24 }
  - { offsetInCU: 0x5CB3, offset: 0x5CB3, size: 0x8, addend: 0x0, symName: __ZSt28__throw_bad_array_new_lengthB8ue170006v, symObjAddr: 0xF68, symBinAddr: 0x100003634, symSize: 0x34 }
  - { offsetInCU: 0x8575, offset: 0x8575, size: 0x8, addend: 0x0, symName: __ZN5AvailC2Ev, symObjAddr: 0x0, symBinAddr: 0x1000026CC, symSize: 0x34 }
  - { offsetInCU: 0x859F, offset: 0x859F, size: 0x8, addend: 0x0, symName: __ZNSt3__13mapIiNS_12basic_stringIcNS_11char_traitsIcEENS_9allocatorIcEEEENS_4lessIiEENS4_INS_4pairIKiS6_EEEEEC1B8ue170006Ev, symObjAddr: 0x34, symBinAddr: 0x100002700, symSize: 0x2C }
  - { offsetInCU: 0x85C7, offset: 0x85C7, size: 0x8, addend: 0x0, symName: __ZN5AvailC1Ev, symObjAddr: 0x60, symBinAddr: 0x10000272C, symSize: 0x2C }
  - { offsetInCU: 0x85F1, offset: 0x85F1, size: 0x8, addend: 0x0, symName: __ZN5Avail4nextEv, symObjAddr: 0x8C, symBinAddr: 0x100002758, symSize: 0x24 }
  - { offsetInCU: 0x8617, offset: 0x8617, size: 0x8, addend: 0x0, symName: __ZN5Avail13reset_counterEv, symObjAddr: 0xB0, symBinAddr: 0x10000277C, symSize: 0x1C }
  - { offsetInCU: 0x863D, offset: 0x863D, size: 0x8, addend: 0x0, symName: __ZN5Avail17pushValueToMemoryEi, symObjAddr: 0xCC, symBinAddr: 0x100002798, symSize: 0x44 }
  - { offsetInCU: 0x8670, offset: 0x8670, size: 0x8, addend: 0x0, symName: __ZNSt3__13mapIiNS_12basic_stringIcNS_11char_traitsIcEENS_9allocatorIcEEEENS_4lessIiEENS4_INS_4pairIKiS6_EEEEEixERSA_, symObjAddr: 0x110, symBinAddr: 0x1000027DC, symSize: 0x80 }
  - { offsetInCU: 0x86A5, offset: 0x86A5, size: 0x8, addend: 0x0, symName: __ZNSt3__13mapIiNS_12basic_stringIcNS_11char_traitsIcEENS_9allocatorIcEEEENS_4lessIiEENS4_INS_4pairIKiS6_EEEEEC2B8ue170006Ev, symObjAddr: 0x190, symBinAddr: 0x10000285C, symSize: 0x40 }
  - { offsetInCU: 0x86CD, offset: 0x86CD, size: 0x8, addend: 0x0, symName: __ZNSt3__119__map_value_compareIiNS_12__value_typeIiNS_12basic_stringIcNS_11char_traitsIcEENS_9allocatorIcEEEEEENS_4lessIiEELb1EEC1B8ue170006ESA_, symObjAddr: 0x1D0, symBinAddr: 0x10000289C, symSize: 0x2C }
  - { offsetInCU: 0x8704, offset: 0x8704, size: 0x8, addend: 0x0, symName: __ZNSt3__16__treeINS_12__value_typeIiNS_12basic_stringIcNS_11char_traitsIcEENS_9allocatorIcEEEEEENS_19__map_value_compareIiS8_NS_4lessIiEELb1EEENS5_IS8_EEEC1ERKSC_, symObjAddr: 0x1FC, symBinAddr: 0x1000028C8, symSize: 0x34 }
  - { offsetInCU: 0x873D, offset: 0x873D, size: 0x8, addend: 0x0, symName: __ZNSt3__119__map_value_compareIiNS_12__value_typeIiNS_12basic_stringIcNS_11char_traitsIcEENS_9allocatorIcEEEEEENS_4lessIiEELb1EEC2B8ue170006ESA_, symObjAddr: 0x230, symBinAddr: 0x1000028FC, symSize: 0x14 }
  - { offsetInCU: 0x8774, offset: 0x8774, size: 0x8, addend: 0x0, symName: __ZNSt3__16__treeINS_12__value_typeIiNS_12basic_stringIcNS_11char_traitsIcEENS_9allocatorIcEEEEEENS_19__map_value_compareIiS8_NS_4lessIiEELb1EEENS5_IS8_EEEC2ERKSC_, symObjAddr: 0x244, symBinAddr: 0x100002910, symSize: 0x7C }
  - { offsetInCU: 0x87AD, offset: 0x87AD, size: 0x8, addend: 0x0, symName: __ZNSt3__117__compressed_pairINS_15__tree_end_nodeIPNS_16__tree_node_baseIPvEEEENS_9allocatorINS_11__tree_nodeINS_12__value_typeIiNS_12basic_stringIcNS_11char_traitsIcEENS7_IcEEEEEES3_EEEEEC1B8ue170006ILb1EvEEv, symObjAddr: 0x2C0, symBinAddr: 0x10000298C, symSize: 0x2C }
  - { offsetInCU: 0x87E5, offset: 0x87E5, size: 0x8, addend: 0x0, symName: __ZNSt3__117__compressed_pairImNS_19__map_value_compareIiNS_12__value_typeIiNS_12basic_stringIcNS_11char_traitsIcEENS_9allocatorIcEEEEEENS_4lessIiEELb1EEEEC1B8ue170006IiRKSC_EEOT_OT0_, symObjAddr: 0x2F8, symBinAddr: 0x1000029C4, symSize: 0x3C }
  - { offsetInCU: 0x883B, offset: 0x883B, size: 0x8, addend: 0x0, symName: __ZNSt3__16__treeINS_12__value_typeIiNS_12basic_stringIcNS_11char_traitsIcEENS_9allocatorIcEEEEEENS_19__map_value_compareIiS8_NS_4lessIiEELb1EEENS5_IS8_EEE10__end_nodeB8ue170006Ev, symObjAddr: 0x334, symBinAddr: 0x100002A00, symSize: 0x2C }
  - { offsetInCU: 0x885F, offset: 0x885F, size: 0x8, addend: 0x0, symName: __ZNSt3__16__treeINS_12__value_typeIiNS_12basic_stringIcNS_11char_traitsIcEENS_9allocatorIcEEEEEENS_19__map_value_compareIiS8_NS_4lessIiEELb1EEENS5_IS8_EEE12__begin_nodeB8ue170006Ev, symObjAddr: 0x360, symBinAddr: 0x100002A2C, symSize: 0x14 }
  - { offsetInCU: 0x8883, offset: 0x8883, size: 0x8, addend: 0x0, symName: __ZNSt3__117__compressed_pairINS_15__tree_end_nodeIPNS_16__tree_node_baseIPvEEEENS_9allocatorINS_11__tree_nodeINS_12__value_typeIiNS_12basic_stringIcNS_11char_traitsIcEENS7_IcEEEEEES3_EEEEEC2B8ue170006ILb1EvEEv, symObjAddr: 0x374, symBinAddr: 0x100002A40, symSize: 0x34 }
  - { offsetInCU: 0x88B6, offset: 0x88B6, size: 0x8, addend: 0x0, symName: __ZNSt3__122__compressed_pair_elemINS_15__tree_end_nodeIPNS_16__tree_node_baseIPvEEEELi0ELb0EEC2B8ue170006ENS_16__value_init_tagE, symObjAddr: 0x3A8, symBinAddr: 0x100002A74, symSize: 0x2C }
  - { offsetInCU: 0x88E8, offset: 0x88E8, size: 0x8, addend: 0x0, symName: __ZNSt3__122__compressed_pair_elemINS_9allocatorINS_11__tree_nodeINS_12__value_typeIiNS_12basic_stringIcNS_11char_traitsIcEENS1_IcEEEEEEPvEEEELi1ELb1EEC2B8ue170006ENS_16__value_init_tagE, symObjAddr: 0x3D4, symBinAddr: 0x100002AA0, symSize: 0x2C }
  - { offsetInCU: 0x891A, offset: 0x891A, size: 0x8, addend: 0x0, symName: __ZNSt3__115__tree_end_nodeIPNS_16__tree_node_baseIPvEEEC1B8ue170006Ev, symObjAddr: 0x400, symBinAddr: 0x100002ACC, symSize: 0x2C }
  - { offsetInCU: 0x8942, offset: 0x8942, size: 0x8, addend: 0x0, symName: __ZNSt3__115__tree_end_nodeIPNS_16__tree_node_baseIPvEEEC2B8ue170006Ev, symObjAddr: 0x42C, symBinAddr: 0x100002AF8, symSize: 0x18 }
  - { offsetInCU: 0x896A, offset: 0x896A, size: 0x8, addend: 0x0, symName: __ZNSt3__19allocatorINS_11__tree_nodeINS_12__value_typeIiNS_12basic_stringIcNS_11char_traitsIcEENS0_IcEEEEEEPvEEEC2B8ue170006Ev, symObjAddr: 0x444, symBinAddr: 0x100002B10, symSize: 0x2C }
  - { offsetInCU: 0x8992, offset: 0x8992, size: 0x8, addend: 0x0, symName: __ZNSt3__116__non_trivial_ifILb1ENS_9allocatorINS_11__tree_nodeINS_12__value_typeIiNS_12basic_stringIcNS_11char_traitsIcEENS1_IcEEEEEEPvEEEEEC2B8ue170006Ev, symObjAddr: 0x470, symBinAddr: 0x100002B3C, symSize: 0x14 }
  - { offsetInCU: 0x89BA, offset: 0x89BA, size: 0x8, addend: 0x0, symName: __ZNSt3__117__compressed_pairImNS_19__map_value_compareIiNS_12__value_typeIiNS_12basic_stringIcNS_11char_traitsIcEENS_9allocatorIcEEEEEENS_4lessIiEELb1EEEEC2B8ue170006IiRKSC_EEOT_OT0_, symObjAddr: 0x484, symBinAddr: 0x100002B50, symSize: 0x44 }
  - { offsetInCU: 0x8A10, offset: 0x8A10, size: 0x8, addend: 0x0, symName: __ZNSt3__122__compressed_pair_elemImLi0ELb0EEC2B8ue170006IivEEOT_, symObjAddr: 0x4C8, symBinAddr: 0x100002B94, symSize: 0x24 }
  - { offsetInCU: 0x8A50, offset: 0x8A50, size: 0x8, addend: 0x0, symName: __ZNSt3__122__compressed_pair_elemINS_19__map_value_compareIiNS_12__value_typeIiNS_12basic_stringIcNS_11char_traitsIcEENS_9allocatorIcEEEEEENS_4lessIiEELb1EEELi1ELb1EEC2B8ue170006IRKSC_vEEOT_, symObjAddr: 0x4EC, symBinAddr: 0x100002BB8, symSize: 0x18 }
  - { offsetInCU: 0x8A90, offset: 0x8A90, size: 0x8, addend: 0x0, symName: __ZNSt3__114pointer_traitsIPNS_15__tree_end_nodeIPNS_16__tree_node_baseIPvEEEEE10pointer_toB8ue170006ERS6_, symObjAddr: 0x504, symBinAddr: 0x100002BD0, symSize: 0x14 }
  - { offsetInCU: 0x8AB2, offset: 0x8AB2, size: 0x8, addend: 0x0, symName: __ZNSt3__117__compressed_pairINS_15__tree_end_nodeIPNS_16__tree_node_baseIPvEEEENS_9allocatorINS_11__tree_nodeINS_12__value_typeIiNS_12basic_stringIcNS_11char_traitsIcEENS7_IcEEEEEES3_EEEEE5firstB8ue170006Ev, symObjAddr: 0x518, symBinAddr: 0x100002BE4, symSize: 0x24 }
  - { offsetInCU: 0x8AD6, offset: 0x8AD6, size: 0x8, addend: 0x0, symName: __ZNSt3__122__compressed_pair_elemINS_15__tree_end_nodeIPNS_16__tree_node_baseIPvEEEELi0ELb0EE5__getB8ue170006Ev, symObjAddr: 0x53C, symBinAddr: 0x100002C08, symSize: 0x14 }
  - { offsetInCU: 0x8B0E, offset: 0x8B0E, size: 0x8, addend: 0x0, symName: __ZNSt3__16__treeINS_12__value_typeIiNS_12basic_stringIcNS_11char_traitsIcEENS_9allocatorIcEEEEEENS_19__map_value_compareIiS8_NS_4lessIiEELb1EEENS5_IS8_EEE25__emplace_unique_key_argsIiJRKNS_21piecewise_construct_tENS_5tupleIJRKiEEENSJ_IJEEEEEENS_4pairINS_15__tree_iteratorIS8_PNS_11__tree_nodeIS8_PvEElEEbEERKT_DpOT0_, symObjAddr: 0x550, symBinAddr: 0x100002C1C, symSize: 0x100 }
  - { offsetInCU: 0x8BE2, offset: 0x8BE2, size: 0x8, addend: 0x0, symName: __ZNKSt3__115__tree_iteratorINS_12__value_typeIiNS_12basic_stringIcNS_11char_traitsIcEENS_9allocatorIcEEEEEEPNS_11__tree_nodeIS8_PvEElEptB8ue170006Ev, symObjAddr: 0x680, symBinAddr: 0x100002D4C, symSize: 0x2C }
  - { offsetInCU: 0x8C06, offset: 0x8C06, size: 0x8, addend: 0x0, symName: __ZNSt3__112__value_typeIiNS_12basic_stringIcNS_11char_traitsIcEENS_9allocatorIcEEEEE11__get_valueB8ue170006Ev, symObjAddr: 0x6AC, symBinAddr: 0x100002D78, symSize: 0x14 }
  - { offsetInCU: 0x8C2A, offset: 0x8C2A, size: 0x8, addend: 0x0, symName: __ZNSt3__16__treeINS_12__value_typeIiNS_12basic_stringIcNS_11char_traitsIcEENS_9allocatorIcEEEEEENS_19__map_value_compareIiS8_NS_4lessIiEELb1EEENS5_IS8_EEE12__find_equalIiEERPNS_16__tree_node_baseIPvEERPNS_15__tree_end_nodeISJ_EERKT_, symObjAddr: 0x6C0, symBinAddr: 0x100002D8C, symSize: 0x184 }
  - { offsetInCU: 0x8C95, offset: 0x8C95, size: 0x8, addend: 0x0, symName: __ZNSt3__16__treeINS_12__value_typeIiNS_12basic_stringIcNS_11char_traitsIcEENS_9allocatorIcEEEEEENS_19__map_value_compareIiS8_NS_4lessIiEELb1EEENS5_IS8_EEE16__construct_nodeIJRKNS_21piecewise_construct_tENS_5tupleIJRKiEEENSJ_IJEEEEEENS_10unique_ptrINS_11__tree_nodeIS8_PvEENS_22__tree_node_destructorINS5_ISR_EEEEEEDpOT_, symObjAddr: 0x844, symBinAddr: 0x100002F10, symSize: 0x120 }
  - { offsetInCU: 0x8D1C, offset: 0x8D1C, size: 0x8, addend: 0x0, symName: __ZNSt3__16__treeINS_12__value_typeIiNS_12basic_stringIcNS_11char_traitsIcEENS_9allocatorIcEEEEEENS_19__map_value_compareIiS8_NS_4lessIiEELb1EEENS5_IS8_EEE16__insert_node_atEPNS_15__tree_end_nodeIPNS_16__tree_node_baseIPvEEEERSJ_SJ_, symObjAddr: 0x964, symBinAddr: 0x100003030, symSize: 0xCC }
  - { offsetInCU: 0x8D6F, offset: 0x8D6F, size: 0x8, addend: 0x0, symName: __ZNKSt3__110unique_ptrINS_11__tree_nodeINS_12__value_typeIiNS_12basic_stringIcNS_11char_traitsIcEENS_9allocatorIcEEEEEEPvEENS_22__tree_node_destructorINS6_ISB_EEEEE3getB8ue170006Ev, symObjAddr: 0xA30, symBinAddr: 0x1000030FC, symSize: 0x28 }
  - { offsetInCU: 0x8D93, offset: 0x8D93, size: 0x8, addend: 0x0, symName: __ZNSt3__110unique_ptrINS_11__tree_nodeINS_12__value_typeIiNS_12basic_stringIcNS_11char_traitsIcEENS_9allocatorIcEEEEEEPvEENS_22__tree_node_destructorINS6_ISB_EEEEE7releaseB8ue170006Ev, symObjAddr: 0xA58, symBinAddr: 0x100003124, symSize: 0x44 }
  - { offsetInCU: 0x8DC6, offset: 0x8DC6, size: 0x8, addend: 0x0, symName: __ZNSt3__110unique_ptrINS_11__tree_nodeINS_12__value_typeIiNS_12basic_stringIcNS_11char_traitsIcEENS_9allocatorIcEEEEEEPvEENS_22__tree_node_destructorINS6_ISB_EEEEED1B8ue170006Ev, symObjAddr: 0xA9C, symBinAddr: 0x100003168, symSize: 0x2C }
  - { offsetInCU: 0x8DEE, offset: 0x8DEE, size: 0x8, addend: 0x0, symName: __ZNSt3__115__tree_iteratorINS_12__value_typeIiNS_12basic_stringIcNS_11char_traitsIcEENS_9allocatorIcEEEEEEPNS_11__tree_nodeIS8_PvEElEC1B8ue170006ESC_, symObjAddr: 0xAC8, symBinAddr: 0x100003194, symSize: 0x34 }
  - { offsetInCU: 0x8E2F, offset: 0x8E2F, size: 0x8, addend: 0x0, symName: __ZNSt3__14pairINS_15__tree_iteratorINS_12__value_typeIiNS_12basic_stringIcNS_11char_traitsIcEENS_9allocatorIcEEEEEEPNS_11__tree_nodeIS9_PvEElEEbEC1B8ue170006ISE_RbLSB_0EEEOT_OT0_, symObjAddr: 0xAFC, symBinAddr: 0x1000031C8, symSize: 0x3C }
  - { offsetInCU: 0x8E8B, offset: 0x8E8B, size: 0x8, addend: 0x0, symName: __ZNKSt3__16__treeINS_12__value_typeIiNS_12basic_stringIcNS_11char_traitsIcEENS_9allocatorIcEEEEEENS_19__map_value_compareIiS8_NS_4lessIiEELb1EEENS5_IS8_EEE6__rootB8ue170006Ev, symObjAddr: 0xB38, symBinAddr: 0x100003204, symSize: 0x28 }
  - { offsetInCU: 0x8EAF, offset: 0x8EAF, size: 0x8, addend: 0x0, symName: __ZNKSt3__16__treeINS_12__value_typeIiNS_12basic_stringIcNS_11char_traitsIcEENS_9allocatorIcEEEEEENS_19__map_value_compareIiS8_NS_4lessIiEELb1EEENS5_IS8_EEE10__root_ptrB8ue170006Ev, symObjAddr: 0xB60, symBinAddr: 0x10000322C, symSize: 0x24 }
  - { offsetInCU: 0x8ED3, offset: 0x8ED3, size: 0x8, addend: 0x0, symName: __ZNSt3__16__treeINS_12__value_typeIiNS_12basic_stringIcNS_11char_traitsIcEENS_9allocatorIcEEEEEENS_19__map_value_compareIiS8_NS_4lessIiEELb1EEENS5_IS8_EEE10value_compB8ue170006Ev, symObjAddr: 0xB84, symBinAddr: 0x100003250, symSize: 0x28 }
  - { offsetInCU: 0x8EF7, offset: 0x8EF7, size: 0x8, addend: 0x0, symName: __ZNKSt3__119__map_value_compareIiNS_12__value_typeIiNS_12basic_stringIcNS_11char_traitsIcEENS_9allocatorIcEEEEEENS_4lessIiEELb1EEclB8ue170006ERKiRKS8_, symObjAddr: 0xBAC, symBinAddr: 0x100003278, symSize: 0x50 }
  - { offsetInCU: 0x8F39, offset: 0x8F39, size: 0x8, addend: 0x0, symName: __ZNKSt3__119__map_value_compareIiNS_12__value_typeIiNS_12basic_stringIcNS_11char_traitsIcEENS_9allocatorIcEEEEEENS_4lessIiEELb1EEclB8ue170006ERKS8_RKi, symObjAddr: 0xBFC, symBinAddr: 0x1000032C8, symSize: 0x48 }
  - { offsetInCU: 0x8F7B, offset: 0x8F7B, size: 0x8, addend: 0x0, symName: __ZNKSt3__16__treeINS_12__value_typeIiNS_12basic_stringIcNS_11char_traitsIcEENS_9allocatorIcEEEEEENS_19__map_value_compareIiS8_NS_4lessIiEELb1EEENS5_IS8_EEE10__end_nodeB8ue170006Ev, symObjAddr: 0xC44, symBinAddr: 0x100003310, symSize: 0x2C }
  - { offsetInCU: 0x8F9F, offset: 0x8F9F, size: 0x8, addend: 0x0, symName: __ZNKSt3__117__compressed_pairINS_15__tree_end_nodeIPNS_16__tree_node_baseIPvEEEENS_9allocatorINS_11__tree_nodeINS_12__value_typeIiNS_12basic_stringIcNS_11char_traitsIcEENS7_IcEEEEEES3_EEEEE5firstB8ue170006Ev, symObjAddr: 0xC70, symBinAddr: 0x10000333C, symSize: 0x24 }
  - { offsetInCU: 0x8FC3, offset: 0x8FC3, size: 0x8, addend: 0x0, symName: __ZNKSt3__122__compressed_pair_elemINS_15__tree_end_nodeIPNS_16__tree_node_baseIPvEEEELi0ELb0EE5__getB8ue170006Ev, symObjAddr: 0xC94, symBinAddr: 0x100003360, symSize: 0x14 }
  - { offsetInCU: 0x8FE7, offset: 0x8FE7, size: 0x8, addend: 0x0, symName: __ZNSt3__117__compressed_pairImNS_19__map_value_compareIiNS_12__value_typeIiNS_12basic_stringIcNS_11char_traitsIcEENS_9allocatorIcEEEEEENS_4lessIiEELb1EEEE6secondB8ue170006Ev, symObjAddr: 0xCA8, symBinAddr: 0x100003374, symSize: 0x24 }
  - { offsetInCU: 0x900B, offset: 0x900B, size: 0x8, addend: 0x0, symName: __ZNSt3__122__compressed_pair_elemINS_19__map_value_compareIiNS_12__value_typeIiNS_12basic_stringIcNS_11char_traitsIcEENS_9allocatorIcEEEEEENS_4lessIiEELb1EEELi1ELb1EE5__getB8ue170006Ev, symObjAddr: 0xCCC, symBinAddr: 0x100003398, symSize: 0x14 }
  - { offsetInCU: 0x902F, offset: 0x902F, size: 0x8, addend: 0x0, symName: __ZNKSt3__14lessIiEclB8ue170006ERKiS3_, symObjAddr: 0xCE0, symBinAddr: 0x1000033AC, symSize: 0x34 }
  - { offsetInCU: 0x9071, offset: 0x9071, size: 0x8, addend: 0x0, symName: __ZNKSt3__112__value_typeIiNS_12basic_stringIcNS_11char_traitsIcEENS_9allocatorIcEEEEE11__get_valueB8ue170006Ev, symObjAddr: 0xD14, symBinAddr: 0x1000033E0, symSize: 0x14 }
  - { offsetInCU: 0x9095, offset: 0x9095, size: 0x8, addend: 0x0, symName: __ZNSt3__16__treeINS_12__value_typeIiNS_12basic_stringIcNS_11char_traitsIcEENS_9allocatorIcEEEEEENS_19__map_value_compareIiS8_NS_4lessIiEELb1EEENS5_IS8_EEE12__node_allocB8ue170006Ev, symObjAddr: 0xD28, symBinAddr: 0x1000033F4, symSize: 0x28 }
  - { offsetInCU: 0x90B9, offset: 0x90B9, size: 0x8, addend: 0x0, symName: __ZNSt3__116allocator_traitsINS_9allocatorINS_11__tree_nodeINS_12__value_typeIiNS_12basic_stringIcNS_11char_traitsIcEENS1_IcEEEEEEPvEEEEE8allocateB8ue170006ERSC_m, symObjAddr: 0xD50, symBinAddr: 0x10000341C, symSize: 0x2C }
  - { offsetInCU: 0x90EB, offset: 0x90EB, size: 0x8, addend: 0x0, symName: __ZNSt3__122__tree_node_destructorINS_9allocatorINS_11__tree_nodeINS_12__value_typeIiNS_12basic_stringIcNS_11char_traitsIcEENS1_IcEEEEEEPvEEEEEC1B8ue170006ERSC_b, symObjAddr: 0xD7C, symBinAddr: 0x100003448, symSize: 0x48 }
  - { offsetInCU: 0x9136, offset: 0x9136, size: 0x8, addend: 0x0, symName: __ZNSt3__110unique_ptrINS_11__tree_nodeINS_12__value_typeIiNS_12basic_stringIcNS_11char_traitsIcEENS_9allocatorIcEEEEEEPvEENS_22__tree_node_destructorINS6_ISB_EEEEEC1B8ue170006ILb1EvEEPSB_NS_16__dependent_typeINS_27__unique_ptr_deleter_sfinaeISE_EEXT_EE20__good_rval_ref_typeE, symObjAddr: 0xDC4, symBinAddr: 0x100003490, symSize: 0x3C }
  - { offsetInCU: 0x9185, offset: 0x9185, size: 0x8, addend: 0x0, symName: __ZNSt3__116allocator_traitsINS_9allocatorINS_11__tree_nodeINS_12__value_typeIiNS_12basic_stringIcNS_11char_traitsIcEENS1_IcEEEEEEPvEEEEE9constructB8ue170006INS_4pairIKiS8_EEJRKNS_21piecewise_construct_tENS_5tupleIJRSG_EEENSL_IJEEEEvEEvRSC_PT_DpOT0_, symObjAddr: 0xE00, symBinAddr: 0x1000034CC, symSize: 0x44 }
  - { offsetInCU: 0x9203, offset: 0x9203, size: 0x8, addend: 0x0, symName: __ZNSt3__122__tree_key_value_typesINS_12__value_typeIiNS_12basic_stringIcNS_11char_traitsIcEENS_9allocatorIcEEEEEEE9__get_ptrB8ue170006ERS8_, symObjAddr: 0xE44, symBinAddr: 0x100003510, symSize: 0x24 }
  - { offsetInCU: 0x9226, offset: 0x9226, size: 0x8, addend: 0x0, symName: __ZNKSt3__110unique_ptrINS_11__tree_nodeINS_12__value_typeIiNS_12basic_stringIcNS_11char_traitsIcEENS_9allocatorIcEEEEEEPvEENS_22__tree_node_destructorINS6_ISB_EEEEEptB8ue170006Ev, symObjAddr: 0xE68, symBinAddr: 0x100003534, symSize: 0x28 }
  - { offsetInCU: 0x924A, offset: 0x924A, size: 0x8, addend: 0x0, symName: __ZNSt3__110unique_ptrINS_11__tree_nodeINS_12__value_typeIiNS_12basic_stringIcNS_11char_traitsIcEENS_9allocatorIcEEEEEEPvEENS_22__tree_node_destructorINS6_ISB_EEEEE11get_deleterB8ue170006Ev, symObjAddr: 0xE90, symBinAddr: 0x10000355C, symSize: 0x24 }
  - { offsetInCU: 0x926E, offset: 0x926E, size: 0x8, addend: 0x0, symName: __ZNSt3__117__compressed_pairINS_15__tree_end_nodeIPNS_16__tree_node_baseIPvEEEENS_9allocatorINS_11__tree_nodeINS_12__value_typeIiNS_12basic_stringIcNS_11char_traitsIcEENS7_IcEEEEEES3_EEEEE6secondB8ue170006Ev, symObjAddr: 0xEB4, symBinAddr: 0x100003580, symSize: 0x24 }
  - { offsetInCU: 0x9292, offset: 0x9292, size: 0x8, addend: 0x0, symName: __ZNSt3__122__compressed_pair_elemINS_9allocatorINS_11__tree_nodeINS_12__value_typeIiNS_12basic_stringIcNS_11char_traitsIcEENS1_IcEEEEEEPvEEEELi1ELb1EE5__getB8ue170006Ev, symObjAddr: 0xED8, symBinAddr: 0x1000035A4, symSize: 0x14 }
  - { offsetInCU: 0x92B6, offset: 0x92B6, size: 0x8, addend: 0x0, symName: __ZNSt3__19allocatorINS_11__tree_nodeINS_12__value_typeIiNS_12basic_stringIcNS_11char_traitsIcEENS0_IcEEEEEEPvEEE8allocateB8ue170006Em, symObjAddr: 0xEEC, symBinAddr: 0x1000035B8, symSize: 0x58 }
  - { offsetInCU: 0x92F2, offset: 0x92F2, size: 0x8, addend: 0x0, symName: __ZNSt3__116allocator_traitsINS_9allocatorINS_11__tree_nodeINS_12__value_typeIiNS_12basic_stringIcNS_11char_traitsIcEENS1_IcEEEEEEPvEEEEE8max_sizeB8ue170006ISC_vEEmRKSC_, symObjAddr: 0xF44, symBinAddr: 0x100003610, symSize: 0x24 }
  - { offsetInCU: 0x931F, offset: 0x931F, size: 0x8, addend: 0x0, symName: __ZNKSt3__19allocatorINS_11__tree_nodeINS_12__value_typeIiNS_12basic_stringIcNS_11char_traitsIcEENS0_IcEEEEEEPvEEE8max_sizeB8ue170006Ev, symObjAddr: 0xFC4, symBinAddr: 0x100003690, symSize: 0x14 }
  - { offsetInCU: 0x9343, offset: 0x9343, size: 0x8, addend: 0x0, symName: __ZNSt3__122__tree_node_destructorINS_9allocatorINS_11__tree_nodeINS_12__value_typeIiNS_12basic_stringIcNS_11char_traitsIcEENS1_IcEEEEEEPvEEEEEC2B8ue170006ERSC_b, symObjAddr: 0xFFC, symBinAddr: 0x1000036C8, symSize: 0x38 }
  - { offsetInCU: 0x9389, offset: 0x9389, size: 0x8, addend: 0x0, symName: __ZNSt3__110unique_ptrINS_11__tree_nodeINS_12__value_typeIiNS_12basic_stringIcNS_11char_traitsIcEENS_9allocatorIcEEEEEEPvEENS_22__tree_node_destructorINS6_ISB_EEEEEC2B8ue170006ILb1EvEEPSB_NS_16__dependent_typeINS_27__unique_ptr_deleter_sfinaeISE_EEXT_EE20__good_rval_ref_typeE, symObjAddr: 0x1034, symBinAddr: 0x100003700, symSize: 0x48 }
  - { offsetInCU: 0x93D8, offset: 0x93D8, size: 0x8, addend: 0x0, symName: __ZNSt3__117__compressed_pairIPNS_11__tree_nodeINS_12__value_typeIiNS_12basic_stringIcNS_11char_traitsIcEENS_9allocatorIcEEEEEEPvEENS_22__tree_node_destructorINS6_ISB_EEEEEC1B8ue170006IRSC_SF_EEOT_OT0_, symObjAddr: 0x107C, symBinAddr: 0x100003748, symSize: 0x3C }
  - { offsetInCU: 0x942E, offset: 0x942E, size: 0x8, addend: 0x0, symName: __ZNSt3__117__compressed_pairIPNS_11__tree_nodeINS_12__value_typeIiNS_12basic_stringIcNS_11char_traitsIcEENS_9allocatorIcEEEEEEPvEENS_22__tree_node_destructorINS6_ISB_EEEEEC2B8ue170006IRSC_SF_EEOT_OT0_, symObjAddr: 0x10B8, symBinAddr: 0x100003784, symSize: 0x48 }
  - { offsetInCU: 0x9484, offset: 0x9484, size: 0x8, addend: 0x0, symName: __ZNSt3__122__compressed_pair_elemIPNS_11__tree_nodeINS_12__value_typeIiNS_12basic_stringIcNS_11char_traitsIcEENS_9allocatorIcEEEEEEPvEELi0ELb0EEC2B8ue170006IRSC_vEEOT_, symObjAddr: 0x1100, symBinAddr: 0x1000037CC, symSize: 0x24 }
  - { offsetInCU: 0x94C4, offset: 0x94C4, size: 0x8, addend: 0x0, symName: __ZNSt3__122__compressed_pair_elemINS_22__tree_node_destructorINS_9allocatorINS_11__tree_nodeINS_12__value_typeIiNS_12basic_stringIcNS_11char_traitsIcEENS2_IcEEEEEEPvEEEEEELi1ELb0EEC2B8ue170006ISE_vEEOT_, symObjAddr: 0x1124, symBinAddr: 0x1000037F0, symSize: 0x24 }
  - { offsetInCU: 0x9504, offset: 0x9504, size: 0x8, addend: 0x0, symName: __ZNSt3__19allocatorINS_11__tree_nodeINS_12__value_typeIiNS_12basic_stringIcNS_11char_traitsIcEENS0_IcEEEEEEPvEEE9constructB8ue170006INS_4pairIKiS7_EEJRKNS_21piecewise_construct_tENS_5tupleIJRSE_EEENSJ_IJEEEEEEvPT_DpOT0_, symObjAddr: 0x1148, symBinAddr: 0x100003814, symSize: 0x44 }
  - { offsetInCU: 0x957E, offset: 0x957E, size: 0x8, addend: 0x0, symName: __ZNSt3__14pairIKiNS_12basic_stringIcNS_11char_traitsIcEENS_9allocatorIcEEEEEC1B8ue170006IJRS1_EJEEENS_21piecewise_construct_tENS_5tupleIJDpT_EEENSC_IJDpT0_EEE, symObjAddr: 0x118C, symBinAddr: 0x100003858, symSize: 0x44 }
  - { offsetInCU: 0x95E3, offset: 0x95E3, size: 0x8, addend: 0x0, symName: __ZNSt3__14pairIKiNS_12basic_stringIcNS_11char_traitsIcEENS_9allocatorIcEEEEEC1B8ue170006IJRS1_EJEJLm0EEJEEENS_21piecewise_construct_tERNS_5tupleIJDpT_EEERNSC_IJDpT0_EEENS_15__tuple_indicesIJXspT1_EEEENSL_IJXspT2_EEEE, symObjAddr: 0x11D0, symBinAddr: 0x10000389C, symSize: 0x3C }
  - { offsetInCU: 0x966E, offset: 0x966E, size: 0x8, addend: 0x0, symName: __ZNSt3__14pairIKiNS_12basic_stringIcNS_11char_traitsIcEENS_9allocatorIcEEEEEC2B8ue170006IJRS1_EJEJLm0EEJEEENS_21piecewise_construct_tERNS_5tupleIJDpT_EEERNSC_IJDpT0_EEENS_15__tuple_indicesIJXspT1_EEEENSL_IJXspT2_EEEE, symObjAddr: 0x120C, symBinAddr: 0x1000038D8, symSize: 0x4C }
  - { offsetInCU: 0x96F9, offset: 0x96F9, size: 0x8, addend: 0x0, symName: __ZNSt3__112basic_stringIcNS_11char_traitsIcEENS_9allocatorIcEEEC1B8ue170006Ev, symObjAddr: 0x127C, symBinAddr: 0x100003948, symSize: 0x2C }
  - { offsetInCU: 0x9721, offset: 0x9721, size: 0x8, addend: 0x0, symName: __ZNSt3__112__tuple_leafILm0ERKiLb0EE3getB8ue170006Ev, symObjAddr: 0x12A8, symBinAddr: 0x100003974, symSize: 0x18 }
  - { offsetInCU: 0x9745, offset: 0x9745, size: 0x8, addend: 0x0, symName: __ZNSt3__112basic_stringIcNS_11char_traitsIcEENS_9allocatorIcEEEC2B8ue170006Ev, symObjAddr: 0x12C0, symBinAddr: 0x10000398C, symSize: 0x48 }
  - { offsetInCU: 0x9772, offset: 0x9772, size: 0x8, addend: 0x0, symName: __ZNSt3__117__compressed_pairINS_12basic_stringIcNS_11char_traitsIcEENS_9allocatorIcEEE5__repES5_EC1B8ue170006INS_18__default_init_tagESA_EEOT_OT0_, symObjAddr: 0x1308, symBinAddr: 0x1000039D4, symSize: 0x3C }
  - { offsetInCU: 0x97C8, offset: 0x97C8, size: 0x8, addend: 0x0, symName: __ZNSt3__112basic_stringIcNS_11char_traitsIcEENS_9allocatorIcEEE14__default_initB8ue170006Ev, symObjAddr: 0x1344, symBinAddr: 0x100003A10, symSize: 0x40 }
  - { offsetInCU: 0x97EC, offset: 0x97EC, size: 0x8, addend: 0x0, symName: __ZNSt3__117__compressed_pairINS_12basic_stringIcNS_11char_traitsIcEENS_9allocatorIcEEE5__repES5_EC2B8ue170006INS_18__default_init_tagESA_EEOT_OT0_, symObjAddr: 0x1384, symBinAddr: 0x100003A50, symSize: 0x3C }
  - { offsetInCU: 0x9842, offset: 0x9842, size: 0x8, addend: 0x0, symName: __ZNSt3__122__compressed_pair_elemINS_12basic_stringIcNS_11char_traitsIcEENS_9allocatorIcEEE5__repELi0ELb0EEC2B8ue170006ENS_18__default_init_tagE, symObjAddr: 0x13C0, symBinAddr: 0x100003A8C, symSize: 0x14 }
  - { offsetInCU: 0x9874, offset: 0x9874, size: 0x8, addend: 0x0, symName: __ZNSt3__122__compressed_pair_elemINS_9allocatorIcEELi1ELb1EEC2B8ue170006ENS_18__default_init_tagE, symObjAddr: 0x13D4, symBinAddr: 0x100003AA0, symSize: 0x2C }
  - { offsetInCU: 0x98A6, offset: 0x98A6, size: 0x8, addend: 0x0, symName: __ZNSt3__19allocatorIcEC2B8ue170006Ev, symObjAddr: 0x1400, symBinAddr: 0x100003ACC, symSize: 0x2C }
  - { offsetInCU: 0x98CE, offset: 0x98CE, size: 0x8, addend: 0x0, symName: __ZNSt3__116__non_trivial_ifILb1ENS_9allocatorIcEEEC2B8ue170006Ev, symObjAddr: 0x142C, symBinAddr: 0x100003AF8, symSize: 0x14 }
  - { offsetInCU: 0x98F6, offset: 0x98F6, size: 0x8, addend: 0x0, symName: __ZNSt3__117__compressed_pairINS_12basic_stringIcNS_11char_traitsIcEENS_9allocatorIcEEE5__repES5_E5firstB8ue170006Ev, symObjAddr: 0x1440, symBinAddr: 0x100003B0C, symSize: 0x24 }
  - { offsetInCU: 0x991A, offset: 0x991A, size: 0x8, addend: 0x0, symName: __ZNSt3__122__compressed_pair_elemINS_12basic_stringIcNS_11char_traitsIcEENS_9allocatorIcEEE5__repELi0ELb0EE5__getB8ue170006Ev, symObjAddr: 0x1464, symBinAddr: 0x100003B30, symSize: 0x14 }
  - { offsetInCU: 0x993E, offset: 0x993E, size: 0x8, addend: 0x0, symName: __ZNKSt3__117__compressed_pairIPNS_11__tree_nodeINS_12__value_typeIiNS_12basic_stringIcNS_11char_traitsIcEENS_9allocatorIcEEEEEEPvEENS_22__tree_node_destructorINS6_ISB_EEEEE5firstB8ue170006Ev, symObjAddr: 0x1478, symBinAddr: 0x100003B44, symSize: 0x24 }
  - { offsetInCU: 0x9962, offset: 0x9962, size: 0x8, addend: 0x0, symName: __ZNKSt3__122__compressed_pair_elemIPNS_11__tree_nodeINS_12__value_typeIiNS_12basic_stringIcNS_11char_traitsIcEENS_9allocatorIcEEEEEEPvEELi0ELb0EE5__getB8ue170006Ev, symObjAddr: 0x149C, symBinAddr: 0x100003B68, symSize: 0x14 }
  - { offsetInCU: 0x9986, offset: 0x9986, size: 0x8, addend: 0x0, symName: __ZNSt3__117__compressed_pairIPNS_11__tree_nodeINS_12__value_typeIiNS_12basic_stringIcNS_11char_traitsIcEENS_9allocatorIcEEEEEEPvEENS_22__tree_node_destructorINS6_ISB_EEEEE6secondB8ue170006Ev, symObjAddr: 0x14B0, symBinAddr: 0x100003B7C, symSize: 0x28 }
  - { offsetInCU: 0x99AA, offset: 0x99AA, size: 0x8, addend: 0x0, symName: __ZNSt3__122__compressed_pair_elemINS_22__tree_node_destructorINS_9allocatorINS_11__tree_nodeINS_12__value_typeIiNS_12basic_stringIcNS_11char_traitsIcEENS2_IcEEEEEEPvEEEEEELi1ELb0EE5__getB8ue170006Ev, symObjAddr: 0x14D8, symBinAddr: 0x100003BA4, symSize: 0x14 }
  - { offsetInCU: 0x99CE, offset: 0x99CE, size: 0x8, addend: 0x0, symName: __ZNSt3__16__treeINS_12__value_typeIiNS_12basic_stringIcNS_11char_traitsIcEENS_9allocatorIcEEEEEENS_19__map_value_compareIiS8_NS_4lessIiEELb1EEENS5_IS8_EEE4sizeB8ue170006Ev, symObjAddr: 0x1818, symBinAddr: 0x100003EE4, symSize: 0x28 }
  - { offsetInCU: 0x99F2, offset: 0x99F2, size: 0x8, addend: 0x0, symName: __ZNKSt3__116__tree_node_baseIPvE15__parent_unsafeB8ue170006Ev, symObjAddr: 0x1840, symBinAddr: 0x100003F0C, symSize: 0x18 }
  - { offsetInCU: 0x9A16, offset: 0x9A16, size: 0x8, addend: 0x0, symName: __ZNSt3__116__tree_node_baseIPvE12__set_parentB8ue170006EPS2_, symObjAddr: 0x1A28, symBinAddr: 0x1000040F4, symSize: 0x20 }
  - { offsetInCU: 0x9A49, offset: 0x9A49, size: 0x8, addend: 0x0, symName: __ZNSt3__117__compressed_pairImNS_19__map_value_compareIiNS_12__value_typeIiNS_12basic_stringIcNS_11char_traitsIcEENS_9allocatorIcEEEEEENS_4lessIiEELb1EEEE5firstB8ue170006Ev, symObjAddr: 0x1A48, symBinAddr: 0x100004114, symSize: 0x24 }
  - { offsetInCU: 0x9A6D, offset: 0x9A6D, size: 0x8, addend: 0x0, symName: __ZNSt3__122__compressed_pair_elemImLi0ELb0EE5__getB8ue170006Ev, symObjAddr: 0x1A6C, symBinAddr: 0x100004138, symSize: 0x14 }
  - { offsetInCU: 0x9A91, offset: 0x9A91, size: 0x8, addend: 0x0, symName: __ZNSt3__117__compressed_pairIPNS_11__tree_nodeINS_12__value_typeIiNS_12basic_stringIcNS_11char_traitsIcEENS_9allocatorIcEEEEEEPvEENS_22__tree_node_destructorINS6_ISB_EEEEE5firstB8ue170006Ev, symObjAddr: 0x1A80, symBinAddr: 0x10000414C, symSize: 0x24 }
  - { offsetInCU: 0x9AB5, offset: 0x9AB5, size: 0x8, addend: 0x0, symName: __ZNSt3__122__compressed_pair_elemIPNS_11__tree_nodeINS_12__value_typeIiNS_12basic_stringIcNS_11char_traitsIcEENS_9allocatorIcEEEEEEPvEELi0ELb0EE5__getB8ue170006Ev, symObjAddr: 0x1AA4, symBinAddr: 0x100004170, symSize: 0x14 }
  - { offsetInCU: 0x9AD9, offset: 0x9AD9, size: 0x8, addend: 0x0, symName: __ZNSt3__110unique_ptrINS_11__tree_nodeINS_12__value_typeIiNS_12basic_stringIcNS_11char_traitsIcEENS_9allocatorIcEEEEEEPvEENS_22__tree_node_destructorINS6_ISB_EEEEED2B8ue170006Ev, symObjAddr: 0x1AB8, symBinAddr: 0x100004184, symSize: 0x30 }
  - { offsetInCU: 0x9B01, offset: 0x9B01, size: 0x8, addend: 0x0, symName: __ZNSt3__110unique_ptrINS_11__tree_nodeINS_12__value_typeIiNS_12basic_stringIcNS_11char_traitsIcEENS_9allocatorIcEEEEEEPvEENS_22__tree_node_destructorINS6_ISB_EEEEE5resetB8ue170006EPSB_, symObjAddr: 0x1AE8, symBinAddr: 0x1000041B4, symSize: 0x78 }
  - { offsetInCU: 0x9B43, offset: 0x9B43, size: 0x8, addend: 0x0, symName: __ZNSt3__122__tree_node_destructorINS_9allocatorINS_11__tree_nodeINS_12__value_typeIiNS_12basic_stringIcNS_11char_traitsIcEENS1_IcEEEEEEPvEEEEEclB8ue170006EPSB_, symObjAddr: 0x1B60, symBinAddr: 0x10000422C, symSize: 0x98 }
  - { offsetInCU: 0x9B76, offset: 0x9B76, size: 0x8, addend: 0x0, symName: __ZNSt3__116allocator_traitsINS_9allocatorINS_11__tree_nodeINS_12__value_typeIiNS_12basic_stringIcNS_11char_traitsIcEENS1_IcEEEEEEPvEEEEE7destroyB8ue170006INS_4pairIKiS8_EEvvEEvRSC_PT_, symObjAddr: 0x1BF8, symBinAddr: 0x1000042C4, symSize: 0x28 }
  - { offsetInCU: 0x9BAF, offset: 0x9BAF, size: 0x8, addend: 0x0, symName: __ZNSt3__116allocator_traitsINS_9allocatorINS_11__tree_nodeINS_12__value_typeIiNS_12basic_stringIcNS_11char_traitsIcEENS1_IcEEEEEEPvEEEEE10deallocateB8ue170006ERSC_PSB_m, symObjAddr: 0x1C20, symBinAddr: 0x1000042EC, symSize: 0x34 }
  - { offsetInCU: 0x9BF0, offset: 0x9BF0, size: 0x8, addend: 0x0, symName: __ZNSt3__14pairIKiNS_12basic_stringIcNS_11char_traitsIcEENS_9allocatorIcEEEEED1Ev, symObjAddr: 0x1C54, symBinAddr: 0x100004320, symSize: 0x2C }
  - { offsetInCU: 0x9C1A, offset: 0x9C1A, size: 0x8, addend: 0x0, symName: __ZNSt3__14pairIKiNS_12basic_stringIcNS_11char_traitsIcEENS_9allocatorIcEEEEED2Ev, symObjAddr: 0x1C80, symBinAddr: 0x10000434C, symSize: 0x30 }
  - { offsetInCU: 0x9C44, offset: 0x9C44, size: 0x8, addend: 0x0, symName: __ZNSt3__19allocatorINS_11__tree_nodeINS_12__value_typeIiNS_12basic_stringIcNS_11char_traitsIcEENS0_IcEEEEEEPvEEE10deallocateB8ue170006EPSA_m, symObjAddr: 0x1CB0, symBinAddr: 0x10000437C, symSize: 0x40 }
  - { offsetInCU: 0x9C84, offset: 0x9C84, size: 0x8, addend: 0x0, symName: __ZNSt3__115__tree_iteratorINS_12__value_typeIiNS_12basic_stringIcNS_11char_traitsIcEENS_9allocatorIcEEEEEEPNS_11__tree_nodeIS8_PvEElEC2B8ue170006ESC_, symObjAddr: 0x1D6C, symBinAddr: 0x100004438, symSize: 0x20 }
  - { offsetInCU: 0x9CBB, offset: 0x9CBB, size: 0x8, addend: 0x0, symName: __ZNSt3__14pairINS_15__tree_iteratorINS_12__value_typeIiNS_12basic_stringIcNS_11char_traitsIcEENS_9allocatorIcEEEEEEPNS_11__tree_nodeIS9_PvEElEEbEC2B8ue170006ISE_RbLSB_0EEEOT_OT0_, symObjAddr: 0x1D8C, symBinAddr: 0x100004458, symSize: 0x38 }
  - { offsetInCU: 0x9D17, offset: 0x9D17, size: 0x8, addend: 0x0, symName: __ZNSt3__15tupleIJRKiEEC1B8ue170006INS_4_AndELi0EEES2_, symObjAddr: 0x1DC4, symBinAddr: 0x100004490, symSize: 0x34 }
  - { offsetInCU: 0x9D5D, offset: 0x9D5D, size: 0x8, addend: 0x0, symName: __ZNSt3__15tupleIJRKiEEC2B8ue170006INS_4_AndELi0EEES2_, symObjAddr: 0x1DF8, symBinAddr: 0x1000044C4, symSize: 0x34 }
  - { offsetInCU: 0x9DA3, offset: 0x9DA3, size: 0x8, addend: 0x0, symName: __ZNSt3__112__tuple_implINS_15__tuple_indicesIJLm0EEEEJRKiEEC1B8ue170006IJLm0EEJS4_EJEJEJS4_EEENS1_IJXspT_EEEENS_13__tuple_typesIJDpT0_EEENS1_IJXspT1_EEEENS8_IJDpT2_EEEDpOT3_, symObjAddr: 0x1E2C, symBinAddr: 0x1000044F8, symSize: 0x34 }
  - { offsetInCU: 0x9E32, offset: 0x9E32, size: 0x8, addend: 0x0, symName: __ZNSt3__112__tuple_implINS_15__tuple_indicesIJLm0EEEEJRKiEEC2B8ue170006IJLm0EEJS4_EJEJEJS4_EEENS1_IJXspT_EEEENS_13__tuple_typesIJDpT0_EEENS1_IJXspT1_EEEENS8_IJDpT2_EEEDpOT3_, symObjAddr: 0x1E60, symBinAddr: 0x10000452C, symSize: 0x34 }
  - { offsetInCU: 0x9EC1, offset: 0x9EC1, size: 0x8, addend: 0x0, symName: __ZNSt3__112__tuple_leafILm0ERKiLb0EEC2B8ue170006IS2_vEEOT_, symObjAddr: 0x1E94, symBinAddr: 0x100004560, symSize: 0x20 }
  - { offsetInCU: 0x9F02, offset: 0x9F02, size: 0x8, addend: 0x0, symName: __ZNSt3__114pointer_traitsIPNS_12__value_typeIiNS_12basic_stringIcNS_11char_traitsIcEENS_9allocatorIcEEEEEEE10pointer_toB8ue170006ERS8_, symObjAddr: 0x1EB4, symBinAddr: 0x100004580, symSize: 0x14 }
  - { offsetInCU: 0x9F24, offset: 0x9F24, size: 0x8, addend: 0x0, symName: __ZNKSt3__115__tree_iteratorINS_12__value_typeIiNS_12basic_stringIcNS_11char_traitsIcEENS_9allocatorIcEEEEEEPNS_11__tree_nodeIS8_PvEElE8__get_npB8ue170006Ev, symObjAddr: 0x1EC8, symBinAddr: 0x100004594, symSize: 0x18 }
  - { offsetInCU: 0x3F, offset: 0xA00E, size: 0x8, addend: 0x0, symName: _SemanticCube, symObjAddr: 0xF86D0, symBinAddr: 0x100030070, symSize: 0x0 }
  - { offsetInCU: 0x926B, offset: 0x1323A, size: 0x8, addend: 0x0, symName: __ZNSt3__1L19piecewise_constructE, symObjAddr: 0x17A08, symBinAddr: 0x100029B2C, symSize: 0x0 }
  - { offsetInCU: 0x12A4D, offset: 0x1CA1C, size: 0x8, addend: 0x0, symName: __ZNSt3__124__put_character_sequenceB8ue170006IwNS_11char_traitsIwEEEERNS_13basic_ostreamIT_T0_EES7_PKS4_m, symObjAddr: 0x13C58, symBinAddr: 0x100017EBC, symSize: 0x1E8 }
  - { offsetInCU: 0x13A81, offset: 0x1DA50, size: 0x8, addend: 0x0, symName: __ZNSt3__124__put_character_sequenceB8ue170006IcNS_11char_traitsIcEEEERNS_13basic_ostreamIT_T0_EES7_PKS4_m, symObjAddr: 0x14A80, symBinAddr: 0x100018CA0, symSize: 0x1E0 }
  - { offsetInCU: 0x1697F, offset: 0x2094E, size: 0x8, addend: 0x0, symName: __ZNSt3__14endlB8ue170006IcNS_11char_traitsIcEEEERNS_13basic_ostreamIT_T0_EES7_, symObjAddr: 0x2728, symBinAddr: 0x100006CC8, symSize: 0x58 }
  - { offsetInCU: 0x169BF, offset: 0x2098E, size: 0x8, addend: 0x0, symName: __ZNSt3__1neB8ue170006IPNS_6vectorIiNS_9allocatorIiEEEEEEbRKNS_11__wrap_iterIT_EESA_, symObjAddr: 0x2914, symBinAddr: 0x100006EB4, symSize: 0x34 }
  - { offsetInCU: 0x16A03, offset: 0x209D2, size: 0x8, addend: 0x0, symName: __ZNSt3__1lsB8ue170006IwNS_11char_traitsIwEEEERNS_13basic_ostreamIT_T0_EES7_PKS4_, symObjAddr: 0x2960, symBinAddr: 0x100006F00, symSize: 0x48 }
  - { offsetInCU: 0x16A52, offset: 0x20A21, size: 0x8, addend: 0x0, symName: __ZNSt3__1neB8ue170006ERKNS_14__map_iteratorINS_15__tree_iteratorINS_12__value_typeIiN5boost7variantIiJfbEEEEEPNS_11__tree_nodeIS6_PvEElEEEESE_, symObjAddr: 0x2C04, symBinAddr: 0x1000071A4, symSize: 0x30 }
  - { offsetInCU: 0x16A8F, offset: 0x20A5E, size: 0x8, addend: 0x0, symName: __ZNSt3__13getB8ue170006ILm0EKiN5boost7variantIiJfbEEEEERKNS_13tuple_elementIXT_ENS_4pairIT0_T1_EEE4typeERKS9_, symObjAddr: 0x2C5C, symBinAddr: 0x1000071FC, symSize: 0x24 }
  - { offsetInCU: 0x16AD9, offset: 0x20AA8, size: 0x8, addend: 0x0, symName: __ZNSt3__13getB8ue170006ILm1EKiN5boost7variantIiJfbEEEEERKNS_13tuple_elementIXT_ENS_4pairIT0_T1_EEE4typeERKS9_, symObjAddr: 0x2C80, symBinAddr: 0x100007220, symSize: 0x24 }
  - { offsetInCU: 0x16B23, offset: 0x20AF2, size: 0x8, addend: 0x0, symName: __ZNSt3__1lsB8ue170006INS_11char_traitsIcEEEERNS_13basic_ostreamIcT_EES6_PKc, symObjAddr: 0x2CA4, symBinAddr: 0x100007244, symSize: 0x48 }
  - { offsetInCU: 0x17395, offset: 0x21364, size: 0x8, addend: 0x0, symName: __ZNSt3__1lsB8ue170006IcNS_11char_traitsIcEENS_9allocatorIcEEEERNS_13basic_ostreamIT_T0_EES9_RKNS_12basic_stringIS6_S7_T1_EE, symObjAddr: 0x3280, symBinAddr: 0x100007820, symSize: 0x4C }
  - { offsetInCU: 0x173F8, offset: 0x213C7, size: 0x8, addend: 0x0, symName: __ZNSt3__1neB8ue170006ERKNS_16__deque_iteratorIiPiRiPS1_lLl1024EEES6_, symObjAddr: 0x3C08, symBinAddr: 0x1000081A8, symSize: 0x34 }
  - { offsetInCU: 0x17435, offset: 0x21404, size: 0x8, addend: 0x0, symName: __ZNSt3__1eqB8ue170006ERKNS_16__deque_iteratorIiPiRiPS1_lLl1024EEES6_, symObjAddr: 0x3F54, symBinAddr: 0x1000084F4, symSize: 0x30 }
  - { offsetInCU: 0x17472, offset: 0x21441, size: 0x8, addend: 0x0, symName: __ZNSt3__112__to_addressB8ue170006IiEEPT_S2_, symObjAddr: 0x45E4, symBinAddr: 0x100008B70, symSize: 0x14 }
  - { offsetInCU: 0x174A7, offset: 0x21476, size: 0x8, addend: 0x0, symName: __ZNSt3__112__to_addressB8ue170006IPiEEPT_S3_, symObjAddr: 0x4A2C, symBinAddr: 0x100008F3C, symSize: 0x14 }
  - { offsetInCU: 0x174DC, offset: 0x214AB, size: 0x8, addend: 0x0, symName: __ZNSt3__1eqB8ue170006IPNS_6vectorIiNS_9allocatorIiEEEEEEbRKNS_11__wrap_iterIT_EESA_, symObjAddr: 0x4B78, symBinAddr: 0x100009088, symSize: 0x48 }
  - { offsetInCU: 0x175B9, offset: 0x21588, size: 0x8, addend: 0x0, symName: __ZNSt3__116__constrain_hashB8ue170006Emm, symObjAddr: 0x6A40, symBinAddr: 0x10000AEFC, symSize: 0x98 }
  - { offsetInCU: 0x175F3, offset: 0x215C2, size: 0x8, addend: 0x0, symName: __ZNSt3__13maxB8ue170006ImEERKT_S3_S3_, symObjAddr: 0x6D60, symBinAddr: 0x10000B21C, symSize: 0x2C }
  - { offsetInCU: 0x17637, offset: 0x21606, size: 0x8, addend: 0x0, symName: __ZNSt3__116__is_hash_power2B8ue170006Em, symObjAddr: 0x6D8C, symBinAddr: 0x10000B248, symSize: 0x50 }
  - { offsetInCU: 0x17681, offset: 0x21650, size: 0x8, addend: 0x0, symName: __ZNSt3__116__next_hash_pow2B8ue170006Em, symObjAddr: 0x80B4, symBinAddr: 0x10000C4B4, symSize: 0x6C }
  - { offsetInCU: 0x176CC, offset: 0x2169B, size: 0x8, addend: 0x0, symName: __ZNSt3__112__libcpp_clzB8ue170006Em, symObjAddr: 0x8278, symBinAddr: 0x10000C678, symSize: 0x1C }
  - { offsetInCU: 0x176F8, offset: 0x216C7, size: 0x8, addend: 0x0, symName: __ZNSt3__13maxB8ue170006ImNS_6__lessIvvEEEERKT_S5_S5_T0_, symObjAddr: 0x8294, symBinAddr: 0x10000C694, symSize: 0x54 }
  - { offsetInCU: 0x1783C, offset: 0x2180B, size: 0x8, addend: 0x0, symName: __ZNSt3__112__to_addressB8ue170006INS_6vectorIiNS_9allocatorIiEEEEEEPT_S6_, symObjAddr: 0xCDD4, symBinAddr: 0x10001104C, symSize: 0x14 }
  - { offsetInCU: 0x178FE, offset: 0x218CD, size: 0x8, addend: 0x0, symName: __ZNSt3__1eqB8ue170006ERKNS_19__hash_map_iteratorINS_15__hash_iteratorIPNS_11__hash_nodeINS_17__hash_value_typeIiNS_13unordered_mapIiNS4_IiiNS_4hashIiEENS_8equal_toIiEENS_9allocatorINS_4pairIKiiEEEEEES6_S8_NS9_INSA_ISB_SE_EEEEEEEEPvEEEEEESP_, symObjAddr: 0xDEC8, symBinAddr: 0x10001212C, symSize: 0x30 }
  - { offsetInCU: 0x1793B, offset: 0x2190A, size: 0x8, addend: 0x0, symName: __ZNSt3__120__throw_out_of_rangeB8ue170006EPKc, symObjAddr: 0xDF30, symBinAddr: 0x100012194, symSize: 0x64 }
  - { offsetInCU: 0x17966, offset: 0x21935, size: 0x8, addend: 0x0, symName: __ZNSt3__1eqB8ue170006ERKNS_15__hash_iteratorIPNS_11__hash_nodeINS_17__hash_value_typeIiNS_13unordered_mapIiNS3_IiiNS_4hashIiEENS_8equal_toIiEENS_9allocatorINS_4pairIKiiEEEEEES5_S7_NS8_INS9_ISA_SD_EEEEEEEEPvEEEESN_, symObjAddr: 0xE1F0, symBinAddr: 0x100012454, symSize: 0x30 }
  - { offsetInCU: 0x179D6, offset: 0x219A5, size: 0x8, addend: 0x0, symName: __ZNSt3__1eqB8ue170006ERKNS_19__hash_map_iteratorINS_15__hash_iteratorIPNS_11__hash_nodeINS_17__hash_value_typeIiNS_13unordered_mapIiiNS_4hashIiEENS_8equal_toIiEENS_9allocatorINS_4pairIKiiEEEEEEEEPvEEEEEESM_, symObjAddr: 0xE2F4, symBinAddr: 0x100012558, symSize: 0x30 }
  - { offsetInCU: 0x17A13, offset: 0x219E2, size: 0x8, addend: 0x0, symName: __ZNSt3__1eqB8ue170006ERKNS_15__hash_iteratorIPNS_11__hash_nodeINS_17__hash_value_typeIiNS_13unordered_mapIiiNS_4hashIiEENS_8equal_toIiEENS_9allocatorINS_4pairIKiiEEEEEEEEPvEEEESK_, symObjAddr: 0xE5B8, symBinAddr: 0x10001281C, symSize: 0x30 }
  - { offsetInCU: 0x17A83, offset: 0x21A52, size: 0x8, addend: 0x0, symName: __ZNSt3__1eqB8ue170006ERKNS_19__hash_map_iteratorINS_15__hash_iteratorIPNS_11__hash_nodeINS_17__hash_value_typeIiiEEPvEEEEEESB_, symObjAddr: 0xE63C, symBinAddr: 0x1000128A0, symSize: 0x30 }
  - { offsetInCU: 0x17AC0, offset: 0x21A8F, size: 0x8, addend: 0x0, symName: __ZNSt3__1eqB8ue170006ERKNS_15__hash_iteratorIPNS_11__hash_nodeINS_17__hash_value_typeIiiEEPvEEEES9_, symObjAddr: 0xE900, symBinAddr: 0x100012B64, symSize: 0x30 }
  - { offsetInCU: 0x17B63, offset: 0x21B32, size: 0x8, addend: 0x0, symName: __ZNSt3__13minB8ue170006ImEERKT_S3_S3_, symObjAddr: 0xF190, symBinAddr: 0x1000133F4, symSize: 0x2C }
  - { offsetInCU: 0x17DB2, offset: 0x21D81, size: 0x8, addend: 0x0, symName: __ZNSt3__13minB8ue170006ImNS_6__lessIvvEEEERKT_S5_S5_T0_, symObjAddr: 0xF21C, symBinAddr: 0x100013480, symSize: 0x54 }
  - { offsetInCU: 0x17E0D, offset: 0x21DDC, size: 0x8, addend: 0x0, symName: __ZNSt3__120__throw_length_errorB8ue170006EPKc, symObjAddr: 0xF2C8, symBinAddr: 0x10001352C, symSize: 0x64 }
  - { offsetInCU: 0x17E38, offset: 0x21E07, size: 0x8, addend: 0x0, symName: __ZNSt3__119__allocate_at_leastB8ue170006INS_9allocatorINS_6vectorIiNS1_IiEEEEEEEENS_19__allocation_resultINS_16allocator_traitsIT_E7pointerEEERS8_m, symObjAddr: 0xF4C8, symBinAddr: 0x10001372C, symSize: 0x40 }
  - { offsetInCU: 0x17E7C, offset: 0x21E4B, size: 0x8, addend: 0x0, symName: __ZNSt3__142__uninitialized_allocator_move_if_noexceptB8ue170006INS_9allocatorINS_6vectorIiNS1_IiEEEEEENS_16reverse_iteratorIPS4_EES8_S8_EET2_RT_T0_T1_S9_, symObjAddr: 0xF680, symBinAddr: 0x1000138E4, symSize: 0x12C }
  - { offsetInCU: 0x17F1C, offset: 0x21EEB, size: 0x8, addend: 0x0, symName: __ZNSt3__14swapB8ue170006IPNS_6vectorIiNS_9allocatorIiEEEEEENS_9enable_ifIXaasr21is_move_constructibleIT_EE5valuesr18is_move_assignableIS7_EE5valueEvE4typeERS7_SA_, symObjAddr: 0xF7F8, symBinAddr: 0x100013A5C, symSize: 0x3C }
  - { offsetInCU: 0x17F6E, offset: 0x21F3D, size: 0x8, addend: 0x0, symName: __ZNSt3__122__make_exception_guardB8ue170006INS_29_AllocatorDestroyRangeReverseINS_9allocatorINS_6vectorIiNS2_IiEEEEEENS_16reverse_iteratorIPS5_EEEEEENS_28__exception_guard_exceptionsIT_EESC_, symObjAddr: 0xF8FC, symBinAddr: 0x100013B60, symSize: 0x4C }
  - { offsetInCU: 0x17FA5, offset: 0x21F74, size: 0x8, addend: 0x0, symName: __ZNSt3__1neB8ue170006IPNS_6vectorIiNS_9allocatorIiEEEES5_EEbRKNS_16reverse_iteratorIT_EERKNS6_IT0_EE, symObjAddr: 0xF98C, symBinAddr: 0x100013BF0, symSize: 0x48 }
  - { offsetInCU: 0x17FF2, offset: 0x21FC1, size: 0x8, addend: 0x0, symName: __ZNSt3__112__to_addressB8ue170006INS_16reverse_iteratorIPNS_6vectorIiNS_9allocatorIiEEEEEEvEEu7__decayIDTclsr19__to_address_helperIT_EE6__callclsr3stdE7declvalIRKS8_EEEEESA_, symObjAddr: 0xF9D4, symBinAddr: 0x100013C38, symSize: 0x24 }
  - { offsetInCU: 0x18053, offset: 0x22022, size: 0x8, addend: 0x0, symName: __ZNSt3__119__allocator_destroyB8ue170006INS_9allocatorINS_6vectorIiNS1_IiEEEEEENS_16reverse_iteratorINS6_IPS4_EEEES9_EEvRT_T0_T1_, symObjAddr: 0xFC84, symBinAddr: 0x100013EE8, symSize: 0x70 }
  - { offsetInCU: 0x180B8, offset: 0x22087, size: 0x8, addend: 0x0, symName: __ZNSt3__1neB8ue170006INS_16reverse_iteratorIPNS_6vectorIiNS_9allocatorIiEEEEEES7_EEbRKNS1_IT_EERKNS1_IT0_EE, symObjAddr: 0xFD30, symBinAddr: 0x100013F94, symSize: 0x60 }
  - { offsetInCU: 0x18105, offset: 0x220D4, size: 0x8, addend: 0x0, symName: __ZNSt3__112__to_addressB8ue170006INS_16reverse_iteratorINS1_IPNS_6vectorIiNS_9allocatorIiEEEEEEEEvEEu7__decayIDTclsr19__to_address_helperIT_EE6__callclsr3stdE7declvalIRKS9_EEEEESB_, symObjAddr: 0xFD90, symBinAddr: 0x100013FF4, symSize: 0x24 }
  - { offsetInCU: 0x18166, offset: 0x22135, size: 0x8, addend: 0x0, symName: __ZNSt3__122__make_exception_guardB8ue170006INS_6vectorIiNS_9allocatorIiEEE16__destroy_vectorEEENS_28__exception_guard_exceptionsIT_EES7_, symObjAddr: 0x10254, symBinAddr: 0x1000144B8, symSize: 0x40 }
  - { offsetInCU: 0x1819C, offset: 0x2216B, size: 0x8, addend: 0x0, symName: __ZNSt3__119__allocate_at_leastB8ue170006INS_9allocatorIiEEEENS_19__allocation_resultINS_16allocator_traitsIT_E7pointerEEERS5_m, symObjAddr: 0x105CC, symBinAddr: 0x100014830, symSize: 0x40 }
  - { offsetInCU: 0x181E0, offset: 0x221AF, size: 0x8, addend: 0x0, symName: __ZNSt3__130__uninitialized_allocator_copyB8ue170006INS_9allocatorIiEEPKiS4_PiEET2_RT_T0_T1_S6_, symObjAddr: 0x108CC, symBinAddr: 0x100014B30, symSize: 0x80 }
  - { offsetInCU: 0x1827D, offset: 0x2224C, size: 0x8, addend: 0x0, symName: __ZNSt3__114__unwrap_rangeB8ue170006IPKiS2_EENS_4pairIT0_S4_EET_S6_, symObjAddr: 0x109BC, symBinAddr: 0x100014C20, symSize: 0x60 }
  - { offsetInCU: 0x182CA, offset: 0x22299, size: 0x8, addend: 0x0, symName: __ZNSt3__135__uninitialized_allocator_copy_implB8ue170006INS_9allocatorIiEEKiiiLPv0EEEPT2_RT_PT0_SA_S6_, symObjAddr: 0x10A1C, symBinAddr: 0x100014C80, symSize: 0x38 }
  - { offsetInCU: 0x1834B, offset: 0x2231A, size: 0x8, addend: 0x0, symName: __ZNSt3__113__unwrap_iterB8ue170006IPiNS_18__unwrap_iter_implIS1_Lb1EEELi0EEEDTclsrT0_8__unwrapclsr3stdE7declvalIT_EEEES5_, symObjAddr: 0x10A54, symBinAddr: 0x100014CB8, symSize: 0x24 }
  - { offsetInCU: 0x18390, offset: 0x2235F, size: 0x8, addend: 0x0, symName: __ZNSt3__113__rewrap_iterB8ue170006IPiS1_NS_18__unwrap_iter_implIS1_Lb1EEEEET_S4_T0_, symObjAddr: 0x10A78, symBinAddr: 0x100014CDC, symSize: 0x3C }
  - { offsetInCU: 0x183E6, offset: 0x223B5, size: 0x8, addend: 0x0, symName: __ZNSt3__19make_pairB8ue170006IPKiS2_EENS_4pairINS_18__unwrap_ref_decayIT_E4typeENS4_IT0_E4typeEEEOS5_OS8_, symObjAddr: 0x10AB4, symBinAddr: 0x100014D18, symSize: 0x38 }
  - { offsetInCU: 0x18435, offset: 0x22404, size: 0x8, addend: 0x0, symName: __ZNSt3__113__unwrap_iterB8ue170006IPKiNS_18__unwrap_iter_implIS2_Lb1EEELi0EEEDTclsrT0_8__unwrapclsr3stdE7declvalIT_EEEES6_, symObjAddr: 0x10AEC, symBinAddr: 0x100014D50, symSize: 0x24 }
  - { offsetInCU: 0x185A1, offset: 0x22570, size: 0x8, addend: 0x0, symName: __ZNSt3__112__to_addressB8ue170006IKiEEPT_S3_, symObjAddr: 0x10BA4, symBinAddr: 0x100014E08, symSize: 0x14 }
  - { offsetInCU: 0x185D6, offset: 0x225A5, size: 0x8, addend: 0x0, symName: __ZNSt3__14copyB8ue170006IPKiPiEET0_T_S5_S4_, symObjAddr: 0x10BB8, symBinAddr: 0x100014E1C, symSize: 0x40 }
  - { offsetInCU: 0x18631, offset: 0x22600, size: 0x8, addend: 0x0, symName: __ZNSt3__16__copyB8ue170006INS_17_ClassicAlgPolicyEPKiS3_PiEENS_4pairIT0_T2_EES6_T1_S7_, symObjAddr: 0x10BF8, symBinAddr: 0x100014E5C, symSize: 0x44 }
  - { offsetInCU: 0x1869E, offset: 0x2266D, size: 0x8, addend: 0x0, symName: __ZNSt3__123__dispatch_copy_or_moveB8ue170006INS_17_ClassicAlgPolicyENS_11__copy_loopIS1_EENS_14__copy_trivialEPKiS6_PiEENS_4pairIT2_T4_EES9_T3_SA_, symObjAddr: 0x10C3C, symBinAddr: 0x100014EA0, symSize: 0x44 }
  - { offsetInCU: 0x1871D, offset: 0x226EC, size: 0x8, addend: 0x0, symName: __ZNSt3__121__unwrap_and_dispatchB8ue170006INS_10__overloadINS_11__copy_loopINS_17_ClassicAlgPolicyEEENS_14__copy_trivialEEEPKiS8_PiLi0EEENS_4pairIT0_T2_EESB_T1_SC_, symObjAddr: 0x10C80, symBinAddr: 0x100014EE4, symSize: 0xB4 }
  - { offsetInCU: 0x188F7, offset: 0x228C6, size: 0x8, addend: 0x0, symName: __ZNSt3__19make_pairB8ue170006IPKiPiEENS_4pairINS_18__unwrap_ref_decayIT_E4typeENS5_IT0_E4typeEEEOS6_OS9_, symObjAddr: 0x10D7C, symBinAddr: 0x100014FE0, symSize: 0x38 }
  - { offsetInCU: 0x18946, offset: 0x22915, size: 0x8, addend: 0x0, symName: __ZNSt3__114__rewrap_rangeB8ue170006IPKiS2_EET_S3_T0_, symObjAddr: 0x10DB4, symBinAddr: 0x100015018, symSize: 0x2C }
  - { offsetInCU: 0x18993, offset: 0x22962, size: 0x8, addend: 0x0, symName: __ZNSt3__119__copy_trivial_implB8ue170006IKiiEENS_4pairIPT_PT0_EES4_S4_S6_, symObjAddr: 0x10DE0, symBinAddr: 0x100015044, symSize: 0x80 }
  - { offsetInCU: 0x189FD, offset: 0x229CC, size: 0x8, addend: 0x0, symName: __ZNSt3__119__constexpr_memmoveB8ue170006IiKiLi0EEEPT_S3_PT0_NS_15__element_countE, symObjAddr: 0x10E60, symBinAddr: 0x1000150C4, symSize: 0x64 }
  - { offsetInCU: 0x18A6D, offset: 0x22A3C, size: 0x8, addend: 0x0, symName: __ZNSt3__19make_pairB8ue170006IRPKiPiEENS_4pairINS_18__unwrap_ref_decayIT_E4typeENS6_IT0_E4typeEEEOS7_OSA_, symObjAddr: 0x10EC4, symBinAddr: 0x100015128, symSize: 0x38 }
  - { offsetInCU: 0x18ABC, offset: 0x22A8B, size: 0x8, addend: 0x0, symName: __ZNSt3__113__rewrap_iterB8ue170006IPKiS2_NS_18__unwrap_iter_implIS2_Lb1EEEEET_S5_T0_, symObjAddr: 0x10FDC, symBinAddr: 0x100015240, symSize: 0x3C }
  - { offsetInCU: 0x18F0A, offset: 0x22ED9, size: 0x8, addend: 0x0, symName: __ZNSt3__14swapB8ue170006IPPiEENS_9enable_ifIXaasr21is_move_constructibleIT_EE5valuesr18is_move_assignableIS4_EE5valueEvE4typeERS4_S7_, symObjAddr: 0x125DC, symBinAddr: 0x100016840, symSize: 0x3C }
  - { offsetInCU: 0x18F5C, offset: 0x22F2B, size: 0x8, addend: 0x0, symName: __ZNSt3__14moveB8ue170006IPPiS2_EET0_T_S4_S3_, symObjAddr: 0x126C0, symBinAddr: 0x100016924, symSize: 0x40 }
  - { offsetInCU: 0x18FB7, offset: 0x22F86, size: 0x8, addend: 0x0, symName: __ZNSt3__16__moveB8ue170006INS_17_ClassicAlgPolicyEPPiS3_S3_EENS_4pairIT0_T2_EES5_T1_S6_, symObjAddr: 0x127C8, symBinAddr: 0x100016A2C, symSize: 0x44 }
  - { offsetInCU: 0x19024, offset: 0x22FF3, size: 0x8, addend: 0x0, symName: __ZNSt3__123__dispatch_copy_or_moveB8ue170006INS_17_ClassicAlgPolicyENS_11__move_loopIS1_EENS_14__move_trivialEPPiS6_S6_EENS_4pairIT2_T4_EES8_T3_S9_, symObjAddr: 0x1280C, symBinAddr: 0x100016A70, symSize: 0x44 }
  - { offsetInCU: 0x190A3, offset: 0x23072, size: 0x8, addend: 0x0, symName: __ZNSt3__121__unwrap_and_dispatchB8ue170006INS_10__overloadINS_11__move_loopINS_17_ClassicAlgPolicyEEENS_14__move_trivialEEEPPiS8_S8_Li0EEENS_4pairIT0_T2_EESA_T1_SB_, symObjAddr: 0x12850, symBinAddr: 0x100016AB4, symSize: 0xB4 }
  - { offsetInCU: 0x19134, offset: 0x23103, size: 0x8, addend: 0x0, symName: __ZNSt3__114__unwrap_rangeB8ue170006IPPiS2_EENS_4pairIT0_S4_EET_S6_, symObjAddr: 0x12904, symBinAddr: 0x100016B68, symSize: 0x60 }
  - { offsetInCU: 0x192F9, offset: 0x232C8, size: 0x8, addend: 0x0, symName: __ZNSt3__113__unwrap_iterB8ue170006IPPiNS_18__unwrap_iter_implIS2_Lb1EEELi0EEEDTclsrT0_8__unwrapclsr3stdE7declvalIT_EEEES6_, symObjAddr: 0x129AC, symBinAddr: 0x100016C10, symSize: 0x24 }
  - { offsetInCU: 0x1933E, offset: 0x2330D, size: 0x8, addend: 0x0, symName: __ZNSt3__19make_pairB8ue170006IPPiS2_EENS_4pairINS_18__unwrap_ref_decayIT_E4typeENS4_IT0_E4typeEEEOS5_OS8_, symObjAddr: 0x129D0, symBinAddr: 0x100016C34, symSize: 0x38 }
  - { offsetInCU: 0x1938D, offset: 0x2335C, size: 0x8, addend: 0x0, symName: __ZNSt3__114__rewrap_rangeB8ue170006IPPiS2_EET_S3_T0_, symObjAddr: 0x12A08, symBinAddr: 0x100016C6C, symSize: 0x2C }
  - { offsetInCU: 0x193DA, offset: 0x233A9, size: 0x8, addend: 0x0, symName: __ZNSt3__113__rewrap_iterB8ue170006IPPiS2_NS_18__unwrap_iter_implIS2_Lb1EEEEET_S5_T0_, symObjAddr: 0x12A34, symBinAddr: 0x100016C98, symSize: 0x3C }
  - { offsetInCU: 0x19430, offset: 0x233FF, size: 0x8, addend: 0x0, symName: __ZNSt3__119__copy_trivial_implB8ue170006IPiS1_EENS_4pairIPT_PT0_EES4_S4_S6_, symObjAddr: 0x12A70, symBinAddr: 0x100016CD4, symSize: 0x80 }
  - { offsetInCU: 0x1949A, offset: 0x23469, size: 0x8, addend: 0x0, symName: __ZNSt3__119__constexpr_memmoveB8ue170006IPiS1_Li0EEEPT_S3_PT0_NS_15__element_countE, symObjAddr: 0x12AF0, symBinAddr: 0x100016D54, symSize: 0x64 }
  - { offsetInCU: 0x1950A, offset: 0x234D9, size: 0x8, addend: 0x0, symName: __ZNSt3__19make_pairB8ue170006IRPPiS2_EENS_4pairINS_18__unwrap_ref_decayIT_E4typeENS5_IT0_E4typeEEEOS6_OS9_, symObjAddr: 0x12B54, symBinAddr: 0x100016DB8, symSize: 0x38 }
  - { offsetInCU: 0x195AC, offset: 0x2357B, size: 0x8, addend: 0x0, symName: __ZNSt3__18distanceB8ue170006INS_13move_iteratorIPPiEEEENS_15iterator_traitsIT_E15difference_typeES6_S6_, symObjAddr: 0x12DBC, symBinAddr: 0x100017020, symSize: 0x3C }
  - { offsetInCU: 0x195F0, offset: 0x235BF, size: 0x8, addend: 0x0, symName: __ZNSt3__110__distanceB8ue170006INS_13move_iteratorIPPiEEEENS_15iterator_traitsIT_E15difference_typeES6_S6_NS_26random_access_iterator_tagE, symObjAddr: 0x12FC0, symBinAddr: 0x100017224, symSize: 0x30 }
  - { offsetInCU: 0x1963E, offset: 0x2360D, size: 0x8, addend: 0x0, symName: __ZNSt3__1miB8ue170006IPPiS2_EEDTmicldtfp_4baseEcldtfp0_4baseEERKNS_13move_iteratorIT_EERKNS4_IT0_EE, symObjAddr: 0x12FF0, symBinAddr: 0x100017254, symSize: 0x48 }
  - { offsetInCU: 0x1968D, offset: 0x2365C, size: 0x8, addend: 0x0, symName: __ZNSt3__113move_backwardB8ue170006IPPiS2_EET0_T_S4_S3_, symObjAddr: 0x13098, symBinAddr: 0x1000172FC, symSize: 0x40 }
  - { offsetInCU: 0x196E8, offset: 0x236B7, size: 0x8, addend: 0x0, symName: __ZNSt3__115__move_backwardB8ue170006INS_17_ClassicAlgPolicyEPPiS3_S3_EENS_4pairIT0_T2_EES5_T1_S6_, symObjAddr: 0x130D8, symBinAddr: 0x10001733C, symSize: 0x44 }
  - { offsetInCU: 0x19755, offset: 0x23724, size: 0x8, addend: 0x0, symName: __ZNSt3__123__dispatch_copy_or_moveB8ue170006INS_17_ClassicAlgPolicyENS_20__move_backward_loopIS1_EENS_23__move_backward_trivialEPPiS6_S6_EENS_4pairIT2_T4_EES8_T3_S9_, symObjAddr: 0x1311C, symBinAddr: 0x100017380, symSize: 0x44 }
  - { offsetInCU: 0x197D4, offset: 0x237A3, size: 0x8, addend: 0x0, symName: __ZNSt3__121__unwrap_and_dispatchB8ue170006INS_10__overloadINS_20__move_backward_loopINS_17_ClassicAlgPolicyEEENS_23__move_backward_trivialEEEPPiS8_S8_Li0EEENS_4pairIT0_T2_EESA_T1_SB_, symObjAddr: 0x13160, symBinAddr: 0x1000173C4, symSize: 0xB4 }
  - { offsetInCU: 0x198AB, offset: 0x2387A, size: 0x8, addend: 0x0, symName: __ZNSt3__128__copy_backward_trivial_implB8ue170006IPiS1_EENS_4pairIPT_PT0_EES4_S4_S6_, symObjAddr: 0x1325C, symBinAddr: 0x1000174C0, symSize: 0x90 }
  - { offsetInCU: 0x19915, offset: 0x238E4, size: 0x8, addend: 0x0, symName: __ZNSt3__19make_pairB8ue170006IRPPiS3_EENS_4pairINS_18__unwrap_ref_decayIT_E4typeENS5_IT0_E4typeEEEOS6_OS9_, symObjAddr: 0x132EC, symBinAddr: 0x100017550, symSize: 0x38 }
  - { offsetInCU: 0x19964, offset: 0x23933, size: 0x8, addend: 0x0, symName: __ZNSt3__119__allocate_at_leastB8ue170006INS_9allocatorIPiEEEENS_19__allocation_resultINS_16allocator_traitsIT_E7pointerEEERS6_m, symObjAddr: 0x134A4, symBinAddr: 0x100017708, symSize: 0x40 }
  - { offsetInCU: 0x199A8, offset: 0x23977, size: 0x8, addend: 0x0, symName: __ZNSt3__19use_facetB8ue170006INS_5ctypeIcEEEERKT_RKNS_6localeE, symObjAddr: 0x13B70, symBinAddr: 0x100017DD4, symSize: 0x2C }
  - { offsetInCU: 0x19E80, offset: 0x23E4F, size: 0x8, addend: 0x0, symName: __ZNSt3__116__pad_and_outputB8ue170006IwNS_11char_traitsIwEEEENS_19ostreambuf_iteratorIT_T0_EES6_PKS4_S8_S8_RNS_8ios_baseES4_, symObjAddr: 0x13E90, symBinAddr: 0x1000180F4, symSize: 0x258 }
  - { offsetInCU: 0x1C07F, offset: 0x2604E, size: 0x8, addend: 0x0, symName: __ZNSt3__112__to_addressB8ue170006IKwEEPT_S3_, symObjAddr: 0x14408, symBinAddr: 0x10001866C, symSize: 0x14 }
  - { offsetInCU: 0x1C0E7, offset: 0x260B6, size: 0x8, addend: 0x0, symName: __ZNSt3__19use_facetB8ue170006INS_5ctypeIwEEEERKT_RKNS_6localeE, symObjAddr: 0x14684, symBinAddr: 0x1000188E8, symSize: 0x2C }
  - { offsetInCU: 0x1C52C, offset: 0x264FB, size: 0x8, addend: 0x0, symName: __ZNSt3__118__constexpr_wcslenB8ue170006EPKw, symObjAddr: 0x14718, symBinAddr: 0x10001897C, symSize: 0x24 }
  - { offsetInCU: 0x1C559, offset: 0x26528, size: 0x8, addend: 0x0, symName: __ZNSt3__1neB8ue170006ERKNS_15__tree_iteratorINS_12__value_typeIiN5boost7variantIiJfbEEEEEPNS_11__tree_nodeIS5_PvEElEESC_, symObjAddr: 0x1484C, symBinAddr: 0x100018AB0, symSize: 0x34 }
  - { offsetInCU: 0x1C596, offset: 0x26565, size: 0x8, addend: 0x0, symName: __ZNSt3__1eqB8ue170006ERKNS_15__tree_iteratorINS_12__value_typeIiN5boost7variantIiJfbEEEEEPNS_11__tree_nodeIS5_PvEElEESC_, symObjAddr: 0x14880, symBinAddr: 0x100018AE4, symSize: 0x30 }
  - { offsetInCU: 0x1C5D3, offset: 0x265A2, size: 0x8, addend: 0x0, symName: __ZNSt3__116__tree_next_iterB8ue170006IPNS_15__tree_end_nodeIPNS_16__tree_node_baseIPvEEEES5_EET_T0_, symObjAddr: 0x148E8, symBinAddr: 0x100018B4C, symSize: 0x90 }
  - { offsetInCU: 0x1C612, offset: 0x265E1, size: 0x8, addend: 0x0, symName: __ZNSt3__110__tree_minB8ue170006IPNS_16__tree_node_baseIPvEEEET_S5_, symObjAddr: 0x14978, symBinAddr: 0x100018BDC, symSize: 0x40 }
  - { offsetInCU: 0x1C6F4, offset: 0x266C3, size: 0x8, addend: 0x0, symName: __ZNSt3__116__pad_and_outputB8ue170006IcNS_11char_traitsIcEEEENS_19ostreambuf_iteratorIT_T0_EES6_PKS4_S8_S8_RNS_8ios_baseES4_, symObjAddr: 0x14CB0, symBinAddr: 0x100018ED0, symSize: 0x240 }
  - { offsetInCU: 0x1C7C3, offset: 0x26792, size: 0x8, addend: 0x0, symName: __ZNSt3__112__to_addressB8ue170006IKcEEPT_S3_, symObjAddr: 0x151BC, symBinAddr: 0x1000192E4, symSize: 0x14 }
  - { offsetInCU: 0x1C82B, offset: 0x267FA, size: 0x8, addend: 0x0, symName: __ZNSt3__118__constexpr_strlenB8ue170006EPKc, symObjAddr: 0x153A0, symBinAddr: 0x1000194C8, symSize: 0x24 }
  - { offsetInCU: 0x1E99D, offset: 0x2896C, size: 0x8, addend: 0x0, symName: __ZN5boost6detail7variant22visitation_impl_invokeINS1_9destroyerEPviNS_7variantIiJfbEE18has_fallback_type_EEENT_11result_typeEiRS8_T0_PT1_T2_i, symObjAddr: 0xD718, symBinAddr: 0x100011990, symSize: 0x40 }
  - { offsetInCU: 0x1EA2C, offset: 0x289FB, size: 0x8, addend: 0x0, symName: __ZN5boost6detail7variant22visitation_impl_invokeINS1_9destroyerEPvfNS_7variantIiJfbEE18has_fallback_type_EEENT_11result_typeEiRS8_T0_PT1_T2_i, symObjAddr: 0xD758, symBinAddr: 0x1000119D0, symSize: 0x40 }
  - { offsetInCU: 0x1EABB, offset: 0x28A8A, size: 0x8, addend: 0x0, symName: __ZN5boost6detail7variant22visitation_impl_invokeINS1_9destroyerEPvbNS_7variantIiJfbEE18has_fallback_type_EEENT_11result_typeEiRS8_T0_PT1_T2_i, symObjAddr: 0xD798, symBinAddr: 0x100011A10, symSize: 0x40 }
  - { offsetInCU: 0x1EB4A, offset: 0x28B19, size: 0x8, addend: 0x0, symName: __ZN5boost6detail7variant22visitation_impl_invokeINS1_9destroyerEPvNS_7variantIiJfbEE18has_fallback_type_EEENT_11result_typeEiRS8_T0_PNS1_22apply_visitor_unrolledET1_l, symObjAddr: 0xD7D8, symBinAddr: 0x100011A50, symSize: 0x24 }
  - { offsetInCU: 0x1EBC0, offset: 0x28B8F, size: 0x8, addend: 0x0, symName: __ZN5boost6detail7variant15visitation_implIN4mpl_4int_ILi20EEENS1_20visitation_impl_stepINS_3mpl6l_iterINS7_5l_endEEESA_EENS1_9destroyerEPvNS_7variantIiJfbEE18has_fallback_type_EEENT1_11result_typeEiiRSH_T2_NS3_5bool_ILb1EEET3_PT_PT0_, symObjAddr: 0xD7FC, symBinAddr: 0x100011A74, symSize: 0x28 }
  - { offsetInCU: 0x1EC5C, offset: 0x28C2B, size: 0x8, addend: 0x0, symName: __ZN5boost6detail7variant27visitation_impl_invoke_implINS1_9destroyerEPviEENT_11result_typeEiRS5_T0_PT1_N4mpl_5bool_ILb1EEE, symObjAddr: 0xD840, symBinAddr: 0x100011AB8, symSize: 0x48 }
  - { offsetInCU: 0x1ECD0, offset: 0x28C9F, size: 0x8, addend: 0x0, symName: __ZN5boost6detail7variant12cast_storageIiEERT_Pv, symObjAddr: 0xD8A0, symBinAddr: 0x100011B18, symSize: 0x14 }
  - { offsetInCU: 0x1ED05, offset: 0x28CD4, size: 0x8, addend: 0x0, symName: __ZN5boost6detail7variant27visitation_impl_invoke_implINS1_9destroyerEPvfEENT_11result_typeEiRS5_T0_PT1_N4mpl_5bool_ILb1EEE, symObjAddr: 0xD8B4, symBinAddr: 0x100011B2C, symSize: 0x48 }
  - { offsetInCU: 0x1ED79, offset: 0x28D48, size: 0x8, addend: 0x0, symName: __ZN5boost6detail7variant12cast_storageIfEERT_Pv, symObjAddr: 0xD914, symBinAddr: 0x100011B8C, symSize: 0x14 }
  - { offsetInCU: 0x1EDAE, offset: 0x28D7D, size: 0x8, addend: 0x0, symName: __ZN5boost6detail7variant27visitation_impl_invoke_implINS1_9destroyerEPvbEENT_11result_typeEiRS5_T0_PT1_N4mpl_5bool_ILb1EEE, symObjAddr: 0xD928, symBinAddr: 0x100011BA0, symSize: 0x48 }
  - { offsetInCU: 0x1EE22, offset: 0x28DF1, size: 0x8, addend: 0x0, symName: __ZN5boost6detail7variant12cast_storageIbEERT_Pv, symObjAddr: 0xD988, symBinAddr: 0x100011C00, symSize: 0x14 }
  - { offsetInCU: 0x1EE58, offset: 0x28E27, size: 0x8, addend: 0x0, symName: __ZN5boost6detail7variant13forced_returnIvEET_v, symObjAddr: 0xD99C, symBinAddr: 0x100011C14, symSize: 0x2C }
  - { offsetInCU: 0x1EEF7, offset: 0x28EC6, size: 0x8, addend: 0x0, symName: __ZN5boost6detail7variant22visitation_impl_invokeINS1_14invoke_visitorINS1_11get_visitorIKiEELb0EEEPKviNS_7variantIiJfbEE18has_fallback_type_EEENT_11result_typeEiRSD_T0_PT1_T2_i, symObjAddr: 0x158CC, symBinAddr: 0x1000199F4, symSize: 0x40 }
  - { offsetInCU: 0x1EF86, offset: 0x28F55, size: 0x8, addend: 0x0, symName: __ZN5boost6detail7variant22visitation_impl_invokeINS1_14invoke_visitorINS1_11get_visitorIKiEELb0EEEPKvfNS_7variantIiJfbEE18has_fallback_type_EEENT_11result_typeEiRSD_T0_PT1_T2_i, symObjAddr: 0x1590C, symBinAddr: 0x100019A34, symSize: 0x40 }
  - { offsetInCU: 0x1F015, offset: 0x28FE4, size: 0x8, addend: 0x0, symName: __ZN5boost6detail7variant22visitation_impl_invokeINS1_14invoke_visitorINS1_11get_visitorIKiEELb0EEEPKvbNS_7variantIiJfbEE18has_fallback_type_EEENT_11result_typeEiRSD_T0_PT1_T2_i, symObjAddr: 0x1594C, symBinAddr: 0x100019A74, symSize: 0x40 }
  - { offsetInCU: 0x1F0A4, offset: 0x29073, size: 0x8, addend: 0x0, symName: __ZN5boost6detail7variant22visitation_impl_invokeINS1_14invoke_visitorINS1_11get_visitorIKiEELb0EEEPKvNS_7variantIiJfbEE18has_fallback_type_EEENT_11result_typeEiRSD_T0_PNS1_22apply_visitor_unrolledET1_l, symObjAddr: 0x1598C, symBinAddr: 0x100019AB4, symSize: 0x24 }
  - { offsetInCU: 0x1F11A, offset: 0x290E9, size: 0x8, addend: 0x0, symName: __ZN5boost6detail7variant15visitation_implIN4mpl_4int_ILi20EEENS1_20visitation_impl_stepINS_3mpl6l_iterINS7_5l_endEEESA_EENS1_14invoke_visitorINS1_11get_visitorIKiEELb0EEEPKvNS_7variantIiJfbEE18has_fallback_type_EEENT1_11result_typeEiiRSM_T2_NS3_5bool_ILb1EEET3_PT_PT0_, symObjAddr: 0x159B0, symBinAddr: 0x100019AD8, symSize: 0x28 }
  - { offsetInCU: 0x1F1B6, offset: 0x29185, size: 0x8, addend: 0x0, symName: __ZN5boost6detail7variant27visitation_impl_invoke_implINS1_14invoke_visitorINS1_11get_visitorIKiEELb0EEEPKviEENT_11result_typeEiRSA_T0_PT1_N4mpl_5bool_ILb1EEE, symObjAddr: 0x159D8, symBinAddr: 0x100019B00, symSize: 0x48 }
  - { offsetInCU: 0x1F22A, offset: 0x291F9, size: 0x8, addend: 0x0, symName: __ZN5boost6detail7variant12cast_storageIiEERKT_PKv, symObjAddr: 0x15A54, symBinAddr: 0x100019B7C, symSize: 0x14 }
  - { offsetInCU: 0x1F25F, offset: 0x2922E, size: 0x8, addend: 0x0, symName: __ZN5boost6detail7variant27visitation_impl_invoke_implINS1_14invoke_visitorINS1_11get_visitorIKiEELb0EEEPKvfEENT_11result_typeEiRSA_T0_PT1_N4mpl_5bool_ILb1EEE, symObjAddr: 0x15AA4, symBinAddr: 0x100019BCC, symSize: 0x48 }
  - { offsetInCU: 0x1F2D3, offset: 0x292A2, size: 0x8, addend: 0x0, symName: __ZN5boost6detail7variant12cast_storageIfEERKT_PKv, symObjAddr: 0x15B20, symBinAddr: 0x100019C48, symSize: 0x14 }
  - { offsetInCU: 0x1F308, offset: 0x292D7, size: 0x8, addend: 0x0, symName: __ZN5boost6detail7variant27visitation_impl_invoke_implINS1_14invoke_visitorINS1_11get_visitorIKiEELb0EEEPKvbEENT_11result_typeEiRSA_T0_PT1_N4mpl_5bool_ILb1EEE, symObjAddr: 0x15B4C, symBinAddr: 0x100019C74, symSize: 0x48 }
  - { offsetInCU: 0x1F37C, offset: 0x2934B, size: 0x8, addend: 0x0, symName: __ZN5boost6detail7variant12cast_storageIbEERKT_PKv, symObjAddr: 0x15BC8, symBinAddr: 0x100019CF0, symSize: 0x14 }
  - { offsetInCU: 0x1F3B2, offset: 0x29381, size: 0x8, addend: 0x0, symName: __ZN5boost6detail7variant13forced_returnIPKiEET_v, symObjAddr: 0x15BF4, symBinAddr: 0x100019D1C, symSize: 0x2C }
  - { offsetInCU: 0x1F458, offset: 0x29427, size: 0x8, addend: 0x0, symName: __ZN5boost6detail7variant22visitation_impl_invokeINS1_14invoke_visitorINS1_11get_visitorIKfEELb0EEEPKviNS_7variantIiJfbEE18has_fallback_type_EEENT_11result_typeEiRSD_T0_PT1_T2_i, symObjAddr: 0x16104, symBinAddr: 0x10001A22C, symSize: 0x40 }
  - { offsetInCU: 0x1F4E7, offset: 0x294B6, size: 0x8, addend: 0x0, symName: __ZN5boost6detail7variant22visitation_impl_invokeINS1_14invoke_visitorINS1_11get_visitorIKfEELb0EEEPKvfNS_7variantIiJfbEE18has_fallback_type_EEENT_11result_typeEiRSD_T0_PT1_T2_i, symObjAddr: 0x16144, symBinAddr: 0x10001A26C, symSize: 0x40 }
  - { offsetInCU: 0x1F576, offset: 0x29545, size: 0x8, addend: 0x0, symName: __ZN5boost6detail7variant22visitation_impl_invokeINS1_14invoke_visitorINS1_11get_visitorIKfEELb0EEEPKvbNS_7variantIiJfbEE18has_fallback_type_EEENT_11result_typeEiRSD_T0_PT1_T2_i, symObjAddr: 0x16184, symBinAddr: 0x10001A2AC, symSize: 0x40 }
  - { offsetInCU: 0x1F605, offset: 0x295D4, size: 0x8, addend: 0x0, symName: __ZN5boost6detail7variant22visitation_impl_invokeINS1_14invoke_visitorINS1_11get_visitorIKfEELb0EEEPKvNS_7variantIiJfbEE18has_fallback_type_EEENT_11result_typeEiRSD_T0_PNS1_22apply_visitor_unrolledET1_l, symObjAddr: 0x161C4, symBinAddr: 0x10001A2EC, symSize: 0x24 }
  - { offsetInCU: 0x1F67B, offset: 0x2964A, size: 0x8, addend: 0x0, symName: __ZN5boost6detail7variant15visitation_implIN4mpl_4int_ILi20EEENS1_20visitation_impl_stepINS_3mpl6l_iterINS7_5l_endEEESA_EENS1_14invoke_visitorINS1_11get_visitorIKfEELb0EEEPKvNS_7variantIiJfbEE18has_fallback_type_EEENT1_11result_typeEiiRSM_T2_NS3_5bool_ILb1EEET3_PT_PT0_, symObjAddr: 0x161E8, symBinAddr: 0x10001A310, symSize: 0x28 }
  - { offsetInCU: 0x1F717, offset: 0x296E6, size: 0x8, addend: 0x0, symName: __ZN5boost6detail7variant27visitation_impl_invoke_implINS1_14invoke_visitorINS1_11get_visitorIKfEELb0EEEPKviEENT_11result_typeEiRSA_T0_PT1_N4mpl_5bool_ILb1EEE, symObjAddr: 0x16210, symBinAddr: 0x10001A338, symSize: 0x48 }
  - { offsetInCU: 0x1F78B, offset: 0x2975A, size: 0x8, addend: 0x0, symName: __ZN5boost6detail7variant27visitation_impl_invoke_implINS1_14invoke_visitorINS1_11get_visitorIKfEELb0EEEPKvfEENT_11result_typeEiRSA_T0_PT1_N4mpl_5bool_ILb1EEE, symObjAddr: 0x162A4, symBinAddr: 0x10001A3CC, symSize: 0x48 }
  - { offsetInCU: 0x1F7FF, offset: 0x297CE, size: 0x8, addend: 0x0, symName: __ZN5boost6detail7variant27visitation_impl_invoke_implINS1_14invoke_visitorINS1_11get_visitorIKfEELb0EEEPKvbEENT_11result_typeEiRSA_T0_PT1_N4mpl_5bool_ILb1EEE, symObjAddr: 0x1635C, symBinAddr: 0x10001A484, symSize: 0x48 }
  - { offsetInCU: 0x1F874, offset: 0x29843, size: 0x8, addend: 0x0, symName: __ZN5boost6detail7variant13forced_returnIPKfEET_v, symObjAddr: 0x163F0, symBinAddr: 0x10001A518, symSize: 0x2C }
  - { offsetInCU: 0x1F91A, offset: 0x298E9, size: 0x8, addend: 0x0, symName: __ZN5boost6detail7variant22visitation_impl_invokeINS1_14invoke_visitorINS1_11get_visitorIKbEELb0EEEPKviNS_7variantIiJfbEE18has_fallback_type_EEENT_11result_typeEiRSD_T0_PT1_T2_i, symObjAddr: 0x16900, symBinAddr: 0x10001AA28, symSize: 0x40 }
  - { offsetInCU: 0x1F9A9, offset: 0x29978, size: 0x8, addend: 0x0, symName: __ZN5boost6detail7variant22visitation_impl_invokeINS1_14invoke_visitorINS1_11get_visitorIKbEELb0EEEPKvfNS_7variantIiJfbEE18has_fallback_type_EEENT_11result_typeEiRSD_T0_PT1_T2_i, symObjAddr: 0x16940, symBinAddr: 0x10001AA68, symSize: 0x40 }
  - { offsetInCU: 0x1FA38, offset: 0x29A07, size: 0x8, addend: 0x0, symName: __ZN5boost6detail7variant22visitation_impl_invokeINS1_14invoke_visitorINS1_11get_visitorIKbEELb0EEEPKvbNS_7variantIiJfbEE18has_fallback_type_EEENT_11result_typeEiRSD_T0_PT1_T2_i, symObjAddr: 0x16980, symBinAddr: 0x10001AAA8, symSize: 0x40 }
  - { offsetInCU: 0x1FAC7, offset: 0x29A96, size: 0x8, addend: 0x0, symName: __ZN5boost6detail7variant22visitation_impl_invokeINS1_14invoke_visitorINS1_11get_visitorIKbEELb0EEEPKvNS_7variantIiJfbEE18has_fallback_type_EEENT_11result_typeEiRSD_T0_PNS1_22apply_visitor_unrolledET1_l, symObjAddr: 0x169C0, symBinAddr: 0x10001AAE8, symSize: 0x24 }
  - { offsetInCU: 0x1FB3D, offset: 0x29B0C, size: 0x8, addend: 0x0, symName: __ZN5boost6detail7variant15visitation_implIN4mpl_4int_ILi20EEENS1_20visitation_impl_stepINS_3mpl6l_iterINS7_5l_endEEESA_EENS1_14invoke_visitorINS1_11get_visitorIKbEELb0EEEPKvNS_7variantIiJfbEE18has_fallback_type_EEENT1_11result_typeEiiRSM_T2_NS3_5bool_ILb1EEET3_PT_PT0_, symObjAddr: 0x169E4, symBinAddr: 0x10001AB0C, symSize: 0x28 }
  - { offsetInCU: 0x1FBD9, offset: 0x29BA8, size: 0x8, addend: 0x0, symName: __ZN5boost6detail7variant27visitation_impl_invoke_implINS1_14invoke_visitorINS1_11get_visitorIKbEELb0EEEPKviEENT_11result_typeEiRSA_T0_PT1_N4mpl_5bool_ILb1EEE, symObjAddr: 0x16A0C, symBinAddr: 0x10001AB34, symSize: 0x48 }
  - { offsetInCU: 0x1FC4D, offset: 0x29C1C, size: 0x8, addend: 0x0, symName: __ZN5boost6detail7variant27visitation_impl_invoke_implINS1_14invoke_visitorINS1_11get_visitorIKbEELb0EEEPKvfEENT_11result_typeEiRSA_T0_PT1_N4mpl_5bool_ILb1EEE, symObjAddr: 0x16AA0, symBinAddr: 0x10001ABC8, symSize: 0x48 }
  - { offsetInCU: 0x1FCC1, offset: 0x29C90, size: 0x8, addend: 0x0, symName: __ZN5boost6detail7variant27visitation_impl_invoke_implINS1_14invoke_visitorINS1_11get_visitorIKbEELb0EEEPKvbEENT_11result_typeEiRSA_T0_PT1_N4mpl_5bool_ILb1EEE, symObjAddr: 0x16B34, symBinAddr: 0x10001AC5C, symSize: 0x48 }
  - { offsetInCU: 0x1FD36, offset: 0x29D05, size: 0x8, addend: 0x0, symName: __ZN5boost6detail7variant13forced_returnIPKbEET_v, symObjAddr: 0x16BEC, symBinAddr: 0x10001AD14, symSize: 0x2C }
  - { offsetInCU: 0x2037A, offset: 0x2A349, size: 0x8, addend: 0x0, symName: __ZN5boost11relaxed_getIiiJfbEEENS_11add_pointerIKT_E4typeEPKNS_7variantIT0_JDpT1_EEE, symObjAddr: 0x153E8, symBinAddr: 0x100019510, symSize: 0x60 }
  - { offsetInCU: 0x20448, offset: 0x2A417, size: 0x8, addend: 0x0, symName: __ZN5boost11relaxed_getIfiJfbEEENS_11add_pointerIKT_E4typeEPKNS_7variantIT0_JDpT1_EEE, symObjAddr: 0x15C44, symBinAddr: 0x100019D6C, symSize: 0x60 }
  - { offsetInCU: 0x20516, offset: 0x2A4E5, size: 0x8, addend: 0x0, symName: __ZN5boost11relaxed_getIbiJfbEEENS_11add_pointerIKT_E4typeEPKNS_7variantIT0_JDpT1_EEE, symObjAddr: 0x16440, symBinAddr: 0x10001A568, symSize: 0x60 }
  - { offsetInCU: 0x206AA, offset: 0x2A679, size: 0x8, addend: 0x0, symName: __ZN5boost3getIiiJfbEEENS_11add_pointerIKT_E4typeEPKNS_7variantIT0_JDpT1_EEE, symObjAddr: 0x2CEC, symBinAddr: 0x10000728C, symSize: 0x24 }
  - { offsetInCU: 0x206FA, offset: 0x2A6C9, size: 0x8, addend: 0x0, symName: __ZN5boost3getIfiJfbEEENS_11add_pointerIKT_E4typeEPKNS_7variantIT0_JDpT1_EEE, symObjAddr: 0x2D10, symBinAddr: 0x1000072B0, symSize: 0x24 }
  - { offsetInCU: 0x2074A, offset: 0x2A719, size: 0x8, addend: 0x0, symName: __ZN5boost3getIbiJfbEEENS_11add_pointerIKT_E4typeEPKNS_7variantIT0_JDpT1_EEE, symObjAddr: 0x2D34, symBinAddr: 0x1000072D4, symSize: 0x24 }
  - { offsetInCU: 0x2079A, offset: 0x2A769, size: 0x8, addend: 0x0, symName: __ZN5boost10strict_getIiiJfbEEENS_11add_pointerIKT_E4typeEPKNS_7variantIT0_JDpT1_EEE, symObjAddr: 0x153C4, symBinAddr: 0x1000194EC, symSize: 0x24 }
  - { offsetInCU: 0x20811, offset: 0x2A7E0, size: 0x8, addend: 0x0, symName: __ZN5boost9addressofIKiEEPT_RS2_, symObjAddr: 0x15A90, symBinAddr: 0x100019BB8, symSize: 0x14 }
  - { offsetInCU: 0x20846, offset: 0x2A815, size: 0x8, addend: 0x0, symName: __ZN5boost10strict_getIfiJfbEEENS_11add_pointerIKT_E4typeEPKNS_7variantIT0_JDpT1_EEE, symObjAddr: 0x15C20, symBinAddr: 0x100019D48, symSize: 0x24 }
  - { offsetInCU: 0x208BD, offset: 0x2A88C, size: 0x8, addend: 0x0, symName: __ZN5boost9addressofIKfEEPT_RS2_, symObjAddr: 0x16348, symBinAddr: 0x10001A470, symSize: 0x14 }
  - { offsetInCU: 0x208F2, offset: 0x2A8C1, size: 0x8, addend: 0x0, symName: __ZN5boost10strict_getIbiJfbEEENS_11add_pointerIKT_E4typeEPKNS_7variantIT0_JDpT1_EEE, symObjAddr: 0x1641C, symBinAddr: 0x10001A544, symSize: 0x24 }
  - { offsetInCU: 0x20969, offset: 0x2A938, size: 0x8, addend: 0x0, symName: __ZN5boost9addressofIKbEEPT_RS2_, symObjAddr: 0x16BD8, symBinAddr: 0x10001AD00, symSize: 0x14 }
  - { offsetInCU: 0x20C63, offset: 0x2AC32, size: 0x8, addend: 0x0, symName: __ZNK5boost17integral_constantIbLb1EEcvRKN4mpl_5bool_ILb1EEEEv, symObjAddr: 0xD824, symBinAddr: 0x100011A9C, symSize: 0x1C }
  - { offsetInCU: 0x20C85, offset: 0x2AC54, size: 0x8, addend: 0x0, symName: __ZZNK5boost17integral_constantIbLb1EEcvRKN4mpl_5bool_ILb1EEEEvE4data, symObjAddr: 0x17A09, symBinAddr: 0x100029B2D, symSize: 0x0 }
  - { offsetInCU: 0x20C9A, offset: 0x2AC69, size: 0x8, addend: 0x0, symName: __ZZNK5boost17integral_constantIbLb1EEcvRKN4mpl_5bool_ILb1EEEEvE5pdata, symObjAddr: 0x17A18, symBinAddr: 0x100030000, symSize: 0x0 }
  - { offsetInCU: 0x21690, offset: 0x2B65F, size: 0x8, addend: 0x0, symName: __ZNSt3__16vectorINS0_IiNS_9allocatorIiEEEENS1_IS3_EEE26__swap_out_circular_bufferERNS_14__split_bufferIS3_RS4_EE, symObjAddr: 0xEFD8, symBinAddr: 0x10001323C, symSize: 0x110 }
  - { offsetInCU: 0x23795, offset: 0x2D764, size: 0x8, addend: 0x0, symName: __ZNSt3__113unordered_mapIiNS0_IiNS0_IiiNS_4hashIiEENS_8equal_toIiEENS_9allocatorINS_4pairIKiiEEEEEES2_S4_NS5_INS6_IS7_SA_EEEEEES2_S4_NS5_INS6_IS7_SD_EEEEEC1B8ue170006Ev, symObjAddr: 0x0, symBinAddr: 0x1000045AC, symSize: 0x2C }
  - { offsetInCU: 0x237BD, offset: 0x2D78C, size: 0x8, addend: 0x0, symName: __ZNSt3__113unordered_mapIiNS0_IiNS0_IiiNS_4hashIiEENS_8equal_toIiEENS_9allocatorINS_4pairIKiiEEEEEES2_S4_NS5_INS6_IS7_SA_EEEEEES2_S4_NS5_INS6_IS7_SD_EEEEED1B8ue170006Ev, symObjAddr: 0x2C, symBinAddr: 0x1000045D8, symSize: 0x2C }
  - { offsetInCU: 0x237E5, offset: 0x2D7B4, size: 0x8, addend: 0x0, symName: __Z22initializeSemanticCubev, symObjAddr: 0x58, symBinAddr: 0x100004604, symSize: 0xEA8 }
  - { offsetInCU: 0x238E0, offset: 0x2D8AF, size: 0x8, addend: 0x0, symName: __ZNSt3__14pairIKiiEC1B8ue170006IRiS4_LPv0EEEOT_OT0_, symObjAddr: 0xF00, symBinAddr: 0x1000054AC, symSize: 0x3C }
  - { offsetInCU: 0x2393C, offset: 0x2D90B, size: 0x8, addend: 0x0, symName: __ZNSt3__113unordered_mapIiNS0_IiNS0_IiiNS_4hashIiEENS_8equal_toIiEENS_9allocatorINS_4pairIKiiEEEEEES2_S4_NS5_INS6_IS7_SA_EEEEEES2_S4_NS5_INS6_IS7_SD_EEEEEixERS7_, symObjAddr: 0xF3C, symBinAddr: 0x1000054E8, symSize: 0x80 }
  - { offsetInCU: 0x23971, offset: 0x2D940, size: 0x8, addend: 0x0, symName: __ZNSt3__113unordered_mapIiNS0_IiiNS_4hashIiEENS_8equal_toIiEENS_9allocatorINS_4pairIKiiEEEEEES2_S4_NS5_INS6_IS7_SA_EEEEEixERS7_, symObjAddr: 0xFBC, symBinAddr: 0x100005568, symSize: 0x80 }
  - { offsetInCU: 0x239A6, offset: 0x2D975, size: 0x8, addend: 0x0, symName: __ZNSt3__113unordered_mapIiiNS_4hashIiEENS_8equal_toIiEENS_9allocatorINS_4pairIKiiEEEEEaSESt16initializer_listIS8_E, symObjAddr: 0x103C, symBinAddr: 0x1000055E8, symSize: 0x60 }
  - { offsetInCU: 0x23EBB, offset: 0x2DE8A, size: 0x8, addend: 0x0, symName: __ZN4Zoso13CodeGeneratorC2Ev, symObjAddr: 0x109C, symBinAddr: 0x100005648, symSize: 0x434 }
  - { offsetInCU: 0x23EE5, offset: 0x2DEB4, size: 0x8, addend: 0x0, symName: __ZNSt3__15stackIiNS_5dequeIiNS_9allocatorIiEEEEEC1B8ue170006Ev, symObjAddr: 0x14D0, symBinAddr: 0x100005A7C, symSize: 0x2C }
  - { offsetInCU: 0x23F0D, offset: 0x2DEDC, size: 0x8, addend: 0x0, symName: __ZNSt3__16vectorINS0_IiNS_9allocatorIiEEEENS1_IS3_EEEC1B8ue170006Ev, symObjAddr: 0x14FC, symBinAddr: 0x100005AA8, symSize: 0x2C }
  - { offsetInCU: 0x23F35, offset: 0x2DF04, size: 0x8, addend: 0x0, symName: __ZNSt3__13mapIiN5boost7variantIiJfbEEENS_4lessIiEENS_9allocatorINS_4pairIKiS3_EEEEEC1B8ue170006Ev, symObjAddr: 0x1528, symBinAddr: 0x100005AD4, symSize: 0x2C }
  - { offsetInCU: 0x23F5D, offset: 0x2DF2C, size: 0x8, addend: 0x0, symName: __ZNSt3__13mapIiN5boost7variantIiJfbEEENS_4lessIiEENS_9allocatorINS_4pairIKiS3_EEEEED1B8ue170006Ev, symObjAddr: 0x1554, symBinAddr: 0x100005B00, symSize: 0x2C }
  - { offsetInCU: 0x23F85, offset: 0x2DF54, size: 0x8, addend: 0x0, symName: __ZNSt3__16vectorINS0_IiNS_9allocatorIiEEEENS1_IS3_EEED1B8ue170006Ev, symObjAddr: 0x1580, symBinAddr: 0x100005B2C, symSize: 0x2C }
  - { offsetInCU: 0x23FAD, offset: 0x2DF7C, size: 0x8, addend: 0x0, symName: __ZNSt3__15stackIiNS_5dequeIiNS_9allocatorIiEEEEED1Ev, symObjAddr: 0x15AC, symBinAddr: 0x100005B58, symSize: 0x2C }
  - { offsetInCU: 0x23FD7, offset: 0x2DFA6, size: 0x8, addend: 0x0, symName: __ZN4Zoso13CodeGeneratorC1Ev, symObjAddr: 0x15D8, symBinAddr: 0x100005B84, symSize: 0x2C }
  - { offsetInCU: 0x24001, offset: 0x2DFD0, size: 0x8, addend: 0x0, symName: __ZN4Zoso13CodeGeneratorD2Ev, symObjAddr: 0x1604, symBinAddr: 0x100005BB0, symSize: 0x1A0 }
  - { offsetInCU: 0x2402B, offset: 0x2DFFA, size: 0x8, addend: 0x0, symName: __ZN4Zoso13CodeGeneratorD1Ev, symObjAddr: 0x17B0, symBinAddr: 0x100005D50, symSize: 0x2C }
  - { offsetInCU: 0x24055, offset: 0x2E024, size: 0x8, addend: 0x0, symName: __ZN4Zoso13CodeGenerator18getAddOpResultTypeERi, symObjAddr: 0x17DC, symBinAddr: 0x100005D7C, symSize: 0x2FC }
  - { offsetInCU: 0x240E5, offset: 0x2E0B4, size: 0x8, addend: 0x0, symName: __ZNKSt3__15stackIiNS_5dequeIiNS_9allocatorIiEEEEE5emptyB8ue170006Ev, symObjAddr: 0x1AD8, symBinAddr: 0x100006078, symSize: 0x28 }
  - { offsetInCU: 0x24109, offset: 0x2E0D8, size: 0x8, addend: 0x0, symName: __ZNSt3__15stackIiNS_5dequeIiNS_9allocatorIiEEEEE3topB8ue170006Ev, symObjAddr: 0x1B00, symBinAddr: 0x1000060A0, symSize: 0x24 }
  - { offsetInCU: 0x2412D, offset: 0x2E0FC, size: 0x8, addend: 0x0, symName: __ZNSt3__15stackIiNS_5dequeIiNS_9allocatorIiEEEEE3popB8ue170006Ev, symObjAddr: 0x1B24, symBinAddr: 0x1000060C4, symSize: 0x24 }
  - { offsetInCU: 0x24151, offset: 0x2E120, size: 0x8, addend: 0x0, symName: __ZNSt3__113unordered_mapIiNS0_IiNS0_IiiNS_4hashIiEENS_8equal_toIiEENS_9allocatorINS_4pairIKiiEEEEEES2_S4_NS5_INS6_IS7_SA_EEEEEES2_S4_NS5_INS6_IS7_SD_EEEEE2atERS7_, symObjAddr: 0x1B48, symBinAddr: 0x1000060E8, symSize: 0x7C }
  - { offsetInCU: 0x24195, offset: 0x2E164, size: 0x8, addend: 0x0, symName: __ZNSt3__113unordered_mapIiNS0_IiiNS_4hashIiEENS_8equal_toIiEENS_9allocatorINS_4pairIKiiEEEEEES2_S4_NS5_INS6_IS7_SA_EEEEE2atERS7_, symObjAddr: 0x1BC4, symBinAddr: 0x100006164, symSize: 0x7C }
  - { offsetInCU: 0x241D9, offset: 0x2E1A8, size: 0x8, addend: 0x0, symName: __ZNSt3__113unordered_mapIiiNS_4hashIiEENS_8equal_toIiEENS_9allocatorINS_4pairIKiiEEEEE2atERS7_, symObjAddr: 0x1C40, symBinAddr: 0x1000061E0, symSize: 0x7C }
  - { offsetInCU: 0x2421D, offset: 0x2E1EC, size: 0x8, addend: 0x0, symName: __ZNSt16invalid_argumentC1B8ue170006EPKc, symObjAddr: 0x1CBC, symBinAddr: 0x10000625C, symSize: 0x34 }
  - { offsetInCU: 0x24253, offset: 0x2E222, size: 0x8, addend: 0x0, symName: __ZNSt3__16vectorINS0_IiNS_9allocatorIiEEEENS1_IS3_EEE9push_backB8ue170006EOS3_, symObjAddr: 0x1CF0, symBinAddr: 0x100006290, symSize: 0x6C }
  - { offsetInCU: 0x24288, offset: 0x2E257, size: 0x8, addend: 0x0, symName: __ZNSt3__16vectorIiNS_9allocatorIiEEEC1B8ue170006ESt16initializer_listIiE, symObjAddr: 0x1D5C, symBinAddr: 0x1000062FC, symSize: 0x3C }
  - { offsetInCU: 0x242C1, offset: 0x2E290, size: 0x8, addend: 0x0, symName: __ZNSt3__16vectorIiNS_9allocatorIiEEED1B8ue170006Ev, symObjAddr: 0x1D98, symBinAddr: 0x100006338, symSize: 0x2C }
  - { offsetInCU: 0x242E9, offset: 0x2E2B8, size: 0x8, addend: 0x0, symName: __ZNSt3__15stackIiNS_5dequeIiNS_9allocatorIiEEEEE4pushB8ue170006ERKi, symObjAddr: 0x1DC4, symBinAddr: 0x100006364, symSize: 0x2C }
  - { offsetInCU: 0x2431C, offset: 0x2E2EB, size: 0x8, addend: 0x0, symName: __ZN4Zoso13CodeGenerator18getRelOpResultTypeERi, symObjAddr: 0x1DF0, symBinAddr: 0x100006390, symSize: 0x34C }
  - { offsetInCU: 0x243AC, offset: 0x2E37B, size: 0x8, addend: 0x0, symName: __ZN4Zoso13CodeGenerator18getMulOpResultTypeERi, symObjAddr: 0x213C, symBinAddr: 0x1000066DC, symSize: 0x2FC }
  - { offsetInCU: 0x2443C, offset: 0x2E40B, size: 0x8, addend: 0x0, symName: __ZN4Zoso13CodeGenerator19getAssignResultTypeERi, symObjAddr: 0x2438, symBinAddr: 0x1000069D8, symSize: 0x2C4 }
  - { offsetInCU: 0x244BC, offset: 0x2E48B, size: 0x8, addend: 0x0, symName: __ZNSt3__113basic_ostreamIcNS_11char_traitsIcEEElsB8ue170006EPFRS3_S4_E, symObjAddr: 0x26FC, symBinAddr: 0x100006C9C, symSize: 0x2C }
  - { offsetInCU: 0x244EE, offset: 0x2E4BD, size: 0x8, addend: 0x0, symName: __ZN4Zoso13CodeGenerator10printQuadsEv, symObjAddr: 0x2780, symBinAddr: 0x100006D20, symSize: 0x134 }
  - { offsetInCU: 0x24567, offset: 0x2E536, size: 0x8, addend: 0x0, symName: __ZNSt3__16vectorINS0_IiNS_9allocatorIiEEEENS1_IS3_EEE5beginB8ue170006Ev, symObjAddr: 0x28B4, symBinAddr: 0x100006E54, symSize: 0x30 }
  - { offsetInCU: 0x2458D, offset: 0x2E55C, size: 0x8, addend: 0x0, symName: __ZNSt3__16vectorINS0_IiNS_9allocatorIiEEEENS1_IS3_EEE3endB8ue170006Ev, symObjAddr: 0x28E4, symBinAddr: 0x100006E84, symSize: 0x30 }
  - { offsetInCU: 0x245B3, offset: 0x2E582, size: 0x8, addend: 0x0, symName: __ZNKSt3__111__wrap_iterIPNS_6vectorIiNS_9allocatorIiEEEEEdeB8ue170006Ev, symObjAddr: 0x2948, symBinAddr: 0x100006EE8, symSize: 0x18 }
  - { offsetInCU: 0x245D7, offset: 0x2E5A6, size: 0x8, addend: 0x0, symName: __ZNKSt3__16vectorIiNS_9allocatorIiEEEixB8ue170006Em, symObjAddr: 0x29A8, symBinAddr: 0x100006F48, symSize: 0x24 }
  - { offsetInCU: 0x2460D, offset: 0x2E5DC, size: 0x8, addend: 0x0, symName: __ZNSt3__111__wrap_iterIPNS_6vectorIiNS_9allocatorIiEEEEEppB8ue170006Ev, symObjAddr: 0x29CC, symBinAddr: 0x100006F6C, symSize: 0x20 }
  - { offsetInCU: 0x24631, offset: 0x2E600, size: 0x8, addend: 0x0, symName: __ZN4Zoso13CodeGenerator16printConstantMapEv, symObjAddr: 0x29EC, symBinAddr: 0x100006F8C, symSize: 0x1A8 }
  - { offsetInCU: 0x246FF, offset: 0x2E6CE, size: 0x8, addend: 0x0, symName: __ZNSt3__13mapIiN5boost7variantIiJfbEEENS_4lessIiEENS_9allocatorINS_4pairIKiS3_EEEEE5beginB8ue170006Ev, symObjAddr: 0x2B94, symBinAddr: 0x100007134, symSize: 0x38 }
  - { offsetInCU: 0x24723, offset: 0x2E6F2, size: 0x8, addend: 0x0, symName: __ZNSt3__13mapIiN5boost7variantIiJfbEEENS_4lessIiEENS_9allocatorINS_4pairIKiS3_EEEEE3endB8ue170006Ev, symObjAddr: 0x2BCC, symBinAddr: 0x10000716C, symSize: 0x38 }
  - { offsetInCU: 0x24747, offset: 0x2E716, size: 0x8, addend: 0x0, symName: __ZNKSt3__114__map_iteratorINS_15__tree_iteratorINS_12__value_typeIiN5boost7variantIiJfbEEEEEPNS_11__tree_nodeIS6_PvEElEEEdeB8ue170006Ev, symObjAddr: 0x2C34, symBinAddr: 0x1000071D4, symSize: 0x28 }
  - { offsetInCU: 0x2476B, offset: 0x2E73A, size: 0x8, addend: 0x0, symName: __ZNSt3__114__map_iteratorINS_15__tree_iteratorINS_12__value_typeIiN5boost7variantIiJfbEEEEEPNS_11__tree_nodeIS6_PvEElEEEppB8ue170006Ev, symObjAddr: 0x2D58, symBinAddr: 0x1000072F8, symSize: 0x2C }
  - { offsetInCU: 0x2478F, offset: 0x2E75E, size: 0x8, addend: 0x0, symName: __ZN4Zoso13CodeGenerator22printConstantMapToFileERKNSt3__112basic_stringIcNS1_11char_traitsIcEENS1_9allocatorIcEEEE, symObjAddr: 0x2D84, symBinAddr: 0x100007324, symSize: 0x368 }
  - { offsetInCU: 0x2491E, offset: 0x2E8ED, size: 0x8, addend: 0x0, symName: __ZNSt3__114basic_ofstreamIcNS_11char_traitsIcEEEC1ERKNS_12basic_stringIcS2_NS_9allocatorIcEEEEj, symObjAddr: 0x30EC, symBinAddr: 0x10000768C, symSize: 0x16C }
  - { offsetInCU: 0x24966, offset: 0x2E935, size: 0x8, addend: 0x0, symName: __ZNKSt3__19basic_iosIcNS_11char_traitsIcEEEntB8ue170006Ev, symObjAddr: 0x3258, symBinAddr: 0x1000077F8, symSize: 0x28 }
  - { offsetInCU: 0x2498A, offset: 0x2E959, size: 0x8, addend: 0x0, symName: __ZNSt3__114basic_ofstreamIcNS_11char_traitsIcEEE5closeEv, symObjAddr: 0x32CC, symBinAddr: 0x10000786C, symSize: 0x58 }
  - { offsetInCU: 0x249B5, offset: 0x2E984, size: 0x8, addend: 0x0, symName: __ZNSt3__114basic_ofstreamIcNS_11char_traitsIcEEED1Ev, symObjAddr: 0x3324, symBinAddr: 0x1000078C4, symSize: 0x40 }
  - { offsetInCU: 0x249E0, offset: 0x2E9AF, size: 0x8, addend: 0x0, symName: __ZN4Zoso13CodeGenerator21printCodeVectorToFileERKNSt3__112basic_stringIcNS1_11char_traitsIcEENS1_9allocatorIcEEEE, symObjAddr: 0x3364, symBinAddr: 0x100007904, symSize: 0x300 }
  - { offsetInCU: 0x24A7F, offset: 0x2EA4E, size: 0x8, addend: 0x0, symName: __ZNSt3__15stackIiNS_5dequeIiNS_9allocatorIiEEEEED2Ev, symObjAddr: 0x3664, symBinAddr: 0x100007C04, symSize: 0x2C }
  - { offsetInCU: 0x24AA9, offset: 0x2EA78, size: 0x8, addend: 0x0, symName: __ZNSt3__15dequeIiNS_9allocatorIiEEED1B8ue170006Ev, symObjAddr: 0x3690, symBinAddr: 0x100007C30, symSize: 0x2C }
  - { offsetInCU: 0x24AD1, offset: 0x2EAA0, size: 0x8, addend: 0x0, symName: __ZNSt3__15dequeIiNS_9allocatorIiEEED2B8ue170006Ev, symObjAddr: 0x36BC, symBinAddr: 0x100007C5C, symSize: 0xA4 }
  - { offsetInCU: 0x24B25, offset: 0x2EAF4, size: 0x8, addend: 0x0, symName: __ZNSt3__15dequeIiNS_9allocatorIiEEE5clearEv, symObjAddr: 0x3760, symBinAddr: 0x100007D00, symSize: 0x194 }
  - { offsetInCU: 0x24B7E, offset: 0x2EB4D, size: 0x8, addend: 0x0, symName: __ZNKSt3__15dequeIiNS_9allocatorIiEEE17__annotate_deleteB8ue170006Ev, symObjAddr: 0x38F4, symBinAddr: 0x100007E94, symSize: 0xE8 }
  - { offsetInCU: 0x24BBF, offset: 0x2EB8E, size: 0x8, addend: 0x0, symName: __ZNSt3__114__split_bufferIPiNS_9allocatorIS1_EEE5beginB8ue170006Ev, symObjAddr: 0x39DC, symBinAddr: 0x100007F7C, symSize: 0x18 }
  - { offsetInCU: 0x24BE3, offset: 0x2EBB2, size: 0x8, addend: 0x0, symName: __ZNSt3__114__split_bufferIPiNS_9allocatorIS1_EEE3endB8ue170006Ev, symObjAddr: 0x39F4, symBinAddr: 0x100007F94, symSize: 0x18 }
  - { offsetInCU: 0x24C07, offset: 0x2EBD6, size: 0x8, addend: 0x0, symName: __ZNSt3__116allocator_traitsINS_9allocatorIiEEE10deallocateB8ue170006ERS2_Pim, symObjAddr: 0x3A0C, symBinAddr: 0x100007FAC, symSize: 0x34 }
  - { offsetInCU: 0x24C48, offset: 0x2EC17, size: 0x8, addend: 0x0, symName: __ZNSt3__15dequeIiNS_9allocatorIiEEE7__allocB8ue170006Ev, symObjAddr: 0x3A40, symBinAddr: 0x100007FE0, symSize: 0x28 }
  - { offsetInCU: 0x24C6C, offset: 0x2EC3B, size: 0x8, addend: 0x0, symName: __ZNSt3__114__split_bufferIPiNS_9allocatorIS1_EEED1Ev, symObjAddr: 0x3A68, symBinAddr: 0x100008008, symSize: 0x2C }
  - { offsetInCU: 0x24C96, offset: 0x2EC65, size: 0x8, addend: 0x0, symName: __ZNSt3__15dequeIiNS_9allocatorIiEEE5beginB8ue170006Ev, symObjAddr: 0x3A94, symBinAddr: 0x100008034, symSize: 0xB8 }
  - { offsetInCU: 0x24CC9, offset: 0x2EC98, size: 0x8, addend: 0x0, symName: __ZNSt3__15dequeIiNS_9allocatorIiEEE3endB8ue170006Ev, symObjAddr: 0x3B4C, symBinAddr: 0x1000080EC, symSize: 0xBC }
  - { offsetInCU: 0x24D0B, offset: 0x2ECDA, size: 0x8, addend: 0x0, symName: __ZNSt3__116allocator_traitsINS_9allocatorIiEEE7destroyB8ue170006IivEEvRS2_PT_, symObjAddr: 0x3C3C, symBinAddr: 0x1000081DC, symSize: 0x2C }
  - { offsetInCU: 0x24D47, offset: 0x2ED16, size: 0x8, addend: 0x0, symName: __ZNKSt3__116__deque_iteratorIiPiRiPS1_lLl1024EEdeB8ue170006Ev, symObjAddr: 0x3C68, symBinAddr: 0x100008208, symSize: 0x18 }
  - { offsetInCU: 0x24D6B, offset: 0x2ED3A, size: 0x8, addend: 0x0, symName: __ZNSt3__116__deque_iteratorIiPiRiPS1_lLl1024EEppB8ue170006Ev, symObjAddr: 0x3C80, symBinAddr: 0x100008220, symSize: 0x70 }
  - { offsetInCU: 0x24D8F, offset: 0x2ED5E, size: 0x8, addend: 0x0, symName: __ZNSt3__15dequeIiNS_9allocatorIiEEE6__sizeB8ue170006Ev, symObjAddr: 0x3CF0, symBinAddr: 0x100008290, symSize: 0x28 }
  - { offsetInCU: 0x24DB3, offset: 0x2ED82, size: 0x8, addend: 0x0, symName: __ZNKSt3__114__split_bufferIPiNS_9allocatorIS1_EEE4sizeB8ue170006Ev, symObjAddr: 0x3D18, symBinAddr: 0x1000082B8, symSize: 0x28 }
  - { offsetInCU: 0x24DD7, offset: 0x2EDA6, size: 0x8, addend: 0x0, symName: __ZNSt3__114__split_bufferIPiNS_9allocatorIS1_EEE5frontB8ue170006Ev, symObjAddr: 0x3D40, symBinAddr: 0x1000082E0, symSize: 0x18 }
  - { offsetInCU: 0x24DFB, offset: 0x2EDCA, size: 0x8, addend: 0x0, symName: __ZNSt3__114__split_bufferIPiNS_9allocatorIS1_EEE9pop_frontB8ue170006Ev, symObjAddr: 0x3D58, symBinAddr: 0x1000082F8, symSize: 0x2C }
  - { offsetInCU: 0x24E1F, offset: 0x2EDEE, size: 0x8, addend: 0x0, symName: __ZNKSt3__15dequeIiNS_9allocatorIiEEE14__annotate_newB8ue170006Em, symObjAddr: 0x3D84, symBinAddr: 0x100008324, symSize: 0xB8 }
  - { offsetInCU: 0x24E52, offset: 0x2EE21, size: 0x8, addend: 0x0, symName: __ZNKSt3__114__split_bufferIPiNS_9allocatorIS1_EEE5emptyB8ue170006Ev, symObjAddr: 0x3E3C, symBinAddr: 0x1000083DC, symSize: 0x28 }
  - { offsetInCU: 0x24E76, offset: 0x2EE45, size: 0x8, addend: 0x0, symName: __ZNSt3__116__deque_iteratorIiPiRiPS1_lLl1024EEC1B8ue170006ES3_S1_, symObjAddr: 0x3E64, symBinAddr: 0x100008404, symSize: 0x3C }
  - { offsetInCU: 0x24EBC, offset: 0x2EE8B, size: 0x8, addend: 0x0, symName: __ZNSt3__116__deque_iteratorIiPiRiPS1_lLl1024EEC2B8ue170006ES3_S1_, symObjAddr: 0x3EA0, symBinAddr: 0x100008440, symSize: 0x2C }
  - { offsetInCU: 0x24F02, offset: 0x2EED1, size: 0x8, addend: 0x0, symName: __ZNKSt3__15dequeIiNS_9allocatorIiEEE4sizeB8ue170006Ev, symObjAddr: 0x3ECC, symBinAddr: 0x10000846C, symSize: 0x28 }
  - { offsetInCU: 0x24F26, offset: 0x2EEF5, size: 0x8, addend: 0x0, symName: __ZNKSt3__15dequeIiNS_9allocatorIiEEE6__sizeB8ue170006Ev, symObjAddr: 0x3EF4, symBinAddr: 0x100008494, symSize: 0x28 }
  - { offsetInCU: 0x24F4A, offset: 0x2EF19, size: 0x8, addend: 0x0, symName: __ZNKSt3__117__compressed_pairImNS_9allocatorIiEEE5firstB8ue170006Ev, symObjAddr: 0x3F1C, symBinAddr: 0x1000084BC, symSize: 0x24 }
  - { offsetInCU: 0x24F6E, offset: 0x2EF3D, size: 0x8, addend: 0x0, symName: __ZNKSt3__122__compressed_pair_elemImLi0ELb0EE5__getB8ue170006Ev, symObjAddr: 0x3F40, symBinAddr: 0x1000084E0, symSize: 0x14 }
  - { offsetInCU: 0x24F92, offset: 0x2EF61, size: 0x8, addend: 0x0, symName: __ZNSt3__19allocatorIiE7destroyB8ue170006EPi, symObjAddr: 0x3F84, symBinAddr: 0x100008524, symSize: 0x14 }
  - { offsetInCU: 0x24FC4, offset: 0x2EF93, size: 0x8, addend: 0x0, symName: __ZNSt3__117__compressed_pairImNS_9allocatorIiEEE5firstB8ue170006Ev, symObjAddr: 0x3F98, symBinAddr: 0x100008538, symSize: 0x24 }
  - { offsetInCU: 0x24FE8, offset: 0x2EFB7, size: 0x8, addend: 0x0, symName: __ZNSt3__114__split_bufferIPiNS_9allocatorIS1_EEE19__destruct_at_beginB8ue170006EPS1_, symObjAddr: 0x3FD0, symBinAddr: 0x10000855C, symSize: 0x2C }
  - { offsetInCU: 0x2501A, offset: 0x2EFE9, size: 0x8, addend: 0x0, symName: __ZNSt3__114__split_bufferIPiNS_9allocatorIS1_EEE19__destruct_at_beginEPS1_NS_17integral_constantIbLb1EEE, symObjAddr: 0x3FFC, symBinAddr: 0x100008588, symSize: 0x20 }
  - { offsetInCU: 0x25059, offset: 0x2F028, size: 0x8, addend: 0x0, symName: __ZNKSt3__15dequeIiNS_9allocatorIiEEE18__annotate_from_toB8ue170006EmmNS3_22__asan_annotation_typeENS3_23__asan_annotation_placeE, symObjAddr: 0x401C, symBinAddr: 0x1000085A8, symSize: 0x580 }
  - { offsetInCU: 0x25213, offset: 0x2F1E2, size: 0x8, addend: 0x0, symName: __ZNKSt3__114__split_bufferIPiNS_9allocatorIS1_EEE5beginB8ue170006Ev, symObjAddr: 0x459C, symBinAddr: 0x100008B28, symSize: 0x18 }
  - { offsetInCU: 0x25237, offset: 0x2F206, size: 0x8, addend: 0x0, symName: __ZNKSt3__15dequeIiNS_9allocatorIiEEE5emptyB8ue170006Ev, symObjAddr: 0x45B4, symBinAddr: 0x100008B40, symSize: 0x30 }
  - { offsetInCU: 0x2525B, offset: 0x2F22A, size: 0x8, addend: 0x0, symName: __ZNKSt3__15dequeIiNS_9allocatorIiEEE44__annotate_double_ended_contiguous_containerB8ue170006EPKvS5_S5_S5_S5_S5_, symObjAddr: 0x45F8, symBinAddr: 0x100008B84, symSize: 0x28 }
  - { offsetInCU: 0x252C1, offset: 0x2F290, size: 0x8, addend: 0x0, symName: __ZNKSt3__15dequeIiNS_9allocatorIiEEE22__annotate_whole_blockB8ue170006EmNS3_22__asan_annotation_typeE, symObjAddr: 0x4620, symBinAddr: 0x100008BAC, symSize: 0xAC }
  - { offsetInCU: 0x25330, offset: 0x2F2FF, size: 0x8, addend: 0x0, symName: __ZNKSt3__15dequeIiNS_9allocatorIiEEE23__annotate_poison_blockB8ue170006EPKvS5_, symObjAddr: 0x46CC, symBinAddr: 0x100008C58, symSize: 0x44 }
  - { offsetInCU: 0x25372, offset: 0x2F341, size: 0x8, addend: 0x0, symName: __ZNSt3__19allocatorIiE10deallocateB8ue170006EPim, symObjAddr: 0x4710, symBinAddr: 0x100008C9C, symSize: 0x40 }
  - { offsetInCU: 0x253B2, offset: 0x2F381, size: 0x8, addend: 0x0, symName: __ZNSt3__117__compressed_pairImNS_9allocatorIiEEE6secondB8ue170006Ev, symObjAddr: 0x47CC, symBinAddr: 0x100008CDC, symSize: 0x24 }
  - { offsetInCU: 0x253D6, offset: 0x2F3A5, size: 0x8, addend: 0x0, symName: __ZNSt3__122__compressed_pair_elemINS_9allocatorIiEELi1ELb1EE5__getB8ue170006Ev, symObjAddr: 0x47F0, symBinAddr: 0x100008D00, symSize: 0x14 }
  - { offsetInCU: 0x253FA, offset: 0x2F3C9, size: 0x8, addend: 0x0, symName: __ZNSt3__114__split_bufferIPiNS_9allocatorIS1_EEED2Ev, symObjAddr: 0x4804, symBinAddr: 0x100008D14, symSize: 0x8C }
  - { offsetInCU: 0x25424, offset: 0x2F3F3, size: 0x8, addend: 0x0, symName: __ZNSt3__114__split_bufferIPiNS_9allocatorIS1_EEE5clearB8ue170006Ev, symObjAddr: 0x4890, symBinAddr: 0x100008DA0, symSize: 0x28 }
  - { offsetInCU: 0x25448, offset: 0x2F417, size: 0x8, addend: 0x0, symName: __ZNSt3__116allocator_traitsINS_9allocatorIPiEEE10deallocateB8ue170006ERS3_PS2_m, symObjAddr: 0x48B8, symBinAddr: 0x100008DC8, symSize: 0x34 }
  - { offsetInCU: 0x25489, offset: 0x2F458, size: 0x8, addend: 0x0, symName: __ZNSt3__114__split_bufferIPiNS_9allocatorIS1_EEE7__allocB8ue170006Ev, symObjAddr: 0x48EC, symBinAddr: 0x100008DFC, symSize: 0x28 }
  - { offsetInCU: 0x254AD, offset: 0x2F47C, size: 0x8, addend: 0x0, symName: __ZNKSt3__114__split_bufferIPiNS_9allocatorIS1_EEE8capacityB8ue170006Ev, symObjAddr: 0x4914, symBinAddr: 0x100008E24, symSize: 0x40 }
  - { offsetInCU: 0x254D1, offset: 0x2F4A0, size: 0x8, addend: 0x0, symName: __ZNSt3__114__split_bufferIPiNS_9allocatorIS1_EEE17__destruct_at_endB8ue170006EPS1_, symObjAddr: 0x4954, symBinAddr: 0x100008E64, symSize: 0x2C }
  - { offsetInCU: 0x25503, offset: 0x2F4D2, size: 0x8, addend: 0x0, symName: __ZNSt3__114__split_bufferIPiNS_9allocatorIS1_EEE17__destruct_at_endB8ue170006EPS1_NS_17integral_constantIbLb0EEE, symObjAddr: 0x4980, symBinAddr: 0x100008E90, symSize: 0x80 }
  - { offsetInCU: 0x25541, offset: 0x2F510, size: 0x8, addend: 0x0, symName: __ZNSt3__116allocator_traitsINS_9allocatorIPiEEE7destroyB8ue170006IS2_vEEvRS3_PT_, symObjAddr: 0x4A00, symBinAddr: 0x100008F10, symSize: 0x2C }
  - { offsetInCU: 0x2557D, offset: 0x2F54C, size: 0x8, addend: 0x0, symName: __ZNSt3__19allocatorIPiE7destroyB8ue170006EPS1_, symObjAddr: 0x4A40, symBinAddr: 0x100008F50, symSize: 0x14 }
  - { offsetInCU: 0x255AF, offset: 0x2F57E, size: 0x8, addend: 0x0, symName: __ZNSt3__19allocatorIPiE10deallocateB8ue170006EPS1_m, symObjAddr: 0x4A54, symBinAddr: 0x100008F64, symSize: 0x40 }
  - { offsetInCU: 0x255EF, offset: 0x2F5BE, size: 0x8, addend: 0x0, symName: __ZNSt3__117__compressed_pairIPPiNS_9allocatorIS1_EEE6secondB8ue170006Ev, symObjAddr: 0x4A94, symBinAddr: 0x100008FA4, symSize: 0x24 }
  - { offsetInCU: 0x25613, offset: 0x2F5E2, size: 0x8, addend: 0x0, symName: __ZNSt3__122__compressed_pair_elemINS_9allocatorIPiEELi1ELb1EE5__getB8ue170006Ev, symObjAddr: 0x4AB8, symBinAddr: 0x100008FC8, symSize: 0x14 }
  - { offsetInCU: 0x25637, offset: 0x2F606, size: 0x8, addend: 0x0, symName: __ZNKSt3__114__split_bufferIPiNS_9allocatorIS1_EEE9__end_capB8ue170006Ev, symObjAddr: 0x4ACC, symBinAddr: 0x100008FDC, symSize: 0x28 }
  - { offsetInCU: 0x2565B, offset: 0x2F62A, size: 0x8, addend: 0x0, symName: __ZNKSt3__117__compressed_pairIPPiNS_9allocatorIS1_EEE5firstB8ue170006Ev, symObjAddr: 0x4AF4, symBinAddr: 0x100009004, symSize: 0x24 }
  - { offsetInCU: 0x2567F, offset: 0x2F64E, size: 0x8, addend: 0x0, symName: __ZNKSt3__122__compressed_pair_elemIPPiLi0ELb0EE5__getB8ue170006Ev, symObjAddr: 0x4B18, symBinAddr: 0x100009028, symSize: 0x14 }
  - { offsetInCU: 0x256A3, offset: 0x2F672, size: 0x8, addend: 0x0, symName: __ZNSt16invalid_argumentC2B8ue170006EPKc, symObjAddr: 0x4B2C, symBinAddr: 0x10000903C, symSize: 0x4C }
  - { offsetInCU: 0x256D9, offset: 0x2F6A8, size: 0x8, addend: 0x0, symName: __ZNKSt3__111__wrap_iterIPNS_6vectorIiNS_9allocatorIiEEEEE4baseB8ue170006Ev, symObjAddr: 0x4BC0, symBinAddr: 0x1000090D0, symSize: 0x18 }
  - { offsetInCU: 0x256FD, offset: 0x2F6CC, size: 0x8, addend: 0x0, symName: __ZNSt3__114basic_ofstreamIcNS_11char_traitsIcEEED2Ev, symObjAddr: 0x4BD8, symBinAddr: 0x1000090E8, symSize: 0x64 }
  - { offsetInCU: 0x25734, offset: 0x2F703, size: 0x8, addend: 0x0, symName: __ZTv0_n24_NSt3__114basic_ofstreamIcNS_11char_traitsIcEEED1Ev, symObjAddr: 0x4C3C, symBinAddr: 0x10000914C, symSize: 0x28 }
  - { offsetInCU: 0x2574B, offset: 0x2F71A, size: 0x8, addend: 0x0, symName: __ZNSt3__113unordered_mapIiNS0_IiNS0_IiiNS_4hashIiEENS_8equal_toIiEENS_9allocatorINS_4pairIKiiEEEEEES2_S4_NS5_INS6_IS7_SA_EEEEEES2_S4_NS5_INS6_IS7_SD_EEEEEC2B8ue170006Ev, symObjAddr: 0x4C64, symBinAddr: 0x100009174, symSize: 0x2C }
  - { offsetInCU: 0x25773, offset: 0x2F742, size: 0x8, addend: 0x0, symName: __ZNSt3__112__hash_tableINS_17__hash_value_typeIiNS_13unordered_mapIiNS2_IiiNS_4hashIiEENS_8equal_toIiEENS_9allocatorINS_4pairIKiiEEEEEES4_S6_NS7_INS8_IS9_SC_EEEEEEEENS_22__unordered_map_hasherIiSG_S4_S6_Lb1EEENS_21__unordered_map_equalIiSG_S6_S4_Lb1EEENS7_ISG_EEEC1Ev, symObjAddr: 0x4C90, symBinAddr: 0x1000091A0, symSize: 0x2C }
  - { offsetInCU: 0x2579D, offset: 0x2F76C, size: 0x8, addend: 0x0, symName: __ZNSt3__112__hash_tableINS_17__hash_value_typeIiNS_13unordered_mapIiNS2_IiiNS_4hashIiEENS_8equal_toIiEENS_9allocatorINS_4pairIKiiEEEEEES4_S6_NS7_INS8_IS9_SC_EEEEEEEENS_22__unordered_map_hasherIiSG_S4_S6_Lb1EEENS_21__unordered_map_equalIiSG_S6_S4_Lb1EEENS7_ISG_EEEC2Ev, symObjAddr: 0x4CBC, symBinAddr: 0x1000091CC, symSize: 0x7C }
  - { offsetInCU: 0x257C7, offset: 0x2F796, size: 0x8, addend: 0x0, symName: __ZNSt3__110unique_ptrIA_PNS_16__hash_node_baseIPNS_11__hash_nodeINS_17__hash_value_typeIiNS_13unordered_mapIiNS4_IiiNS_4hashIiEENS_8equal_toIiEENS_9allocatorINS_4pairIKiiEEEEEES6_S8_NS9_INSA_ISB_SE_EEEEEEEEPvEEEENS_25__bucket_list_deallocatorINS9_ISN_EEEEEC1B8ue170006ILb1EvEEv, symObjAddr: 0x4D38, symBinAddr: 0x100009248, symSize: 0x2C }
  - { offsetInCU: 0x257FA, offset: 0x2F7C9, size: 0x8, addend: 0x0, symName: __ZNSt3__117__compressed_pairINS_16__hash_node_baseIPNS_11__hash_nodeINS_17__hash_value_typeIiNS_13unordered_mapIiNS4_IiiNS_4hashIiEENS_8equal_toIiEENS_9allocatorINS_4pairIKiiEEEEEES6_S8_NS9_INSA_ISB_SE_EEEEEEEEPvEEEENS9_ISK_EEEC1B8ue170006ILb1EvEEv, symObjAddr: 0x4D64, symBinAddr: 0x100009274, symSize: 0x2C }
  - { offsetInCU: 0x25837, offset: 0x2F806, size: 0x8, addend: 0x0, symName: __ZNSt3__117__compressed_pairImNS_22__unordered_map_hasherIiNS_17__hash_value_typeIiNS_13unordered_mapIiNS3_IiiNS_4hashIiEENS_8equal_toIiEENS_9allocatorINS_4pairIKiiEEEEEES5_S7_NS8_INS9_ISA_SD_EEEEEEEES5_S7_Lb1EEEEC1B8ue170006IiNS_18__default_init_tagEEEOT_OT0_, symObjAddr: 0x4D90, symBinAddr: 0x1000092A0, symSize: 0x3C }
  - { offsetInCU: 0x25892, offset: 0x2F861, size: 0x8, addend: 0x0, symName: __ZNSt3__117__compressed_pairIfNS_21__unordered_map_equalIiNS_17__hash_value_typeIiNS_13unordered_mapIiNS3_IiiNS_4hashIiEENS_8equal_toIiEENS_9allocatorINS_4pairIKiiEEEEEES5_S7_NS8_INS9_ISA_SD_EEEEEEEES7_S5_Lb1EEEEC1B8ue170006IfNS_18__default_init_tagEEEOT_OT0_, symObjAddr: 0x4DCC, symBinAddr: 0x1000092DC, symSize: 0x3C }
  - { offsetInCU: 0x258E8, offset: 0x2F8B7, size: 0x8, addend: 0x0, symName: __ZNSt3__110unique_ptrIA_PNS_16__hash_node_baseIPNS_11__hash_nodeINS_17__hash_value_typeIiNS_13unordered_mapIiNS4_IiiNS_4hashIiEENS_8equal_toIiEENS_9allocatorINS_4pairIKiiEEEEEES6_S8_NS9_INSA_ISB_SE_EEEEEEEEPvEEEENS_25__bucket_list_deallocatorINS9_ISN_EEEEEC2B8ue170006ILb1EvEEv, symObjAddr: 0x4E08, symBinAddr: 0x100009318, symSize: 0x3C }
  - { offsetInCU: 0x25920, offset: 0x2F8EF, size: 0x8, addend: 0x0, symName: __ZNSt3__117__compressed_pairIPPNS_16__hash_node_baseIPNS_11__hash_nodeINS_17__hash_value_typeIiNS_13unordered_mapIiNS4_IiiNS_4hashIiEENS_8equal_toIiEENS_9allocatorINS_4pairIKiiEEEEEES6_S8_NS9_INSA_ISB_SE_EEEEEEEEPvEEEENS_25__bucket_list_deallocatorINS9_ISN_EEEEEC1B8ue170006INS_16__value_init_tagESU_EEOT_OT0_, symObjAddr: 0x4E44, symBinAddr: 0x100009354, symSize: 0x3C }
  - { offsetInCU: 0x25976, offset: 0x2F945, size: 0x8, addend: 0x0, symName: __ZNSt3__117__compressed_pairIPPNS_16__hash_node_baseIPNS_11__hash_nodeINS_17__hash_value_typeIiNS_13unordered_mapIiNS4_IiiNS_4hashIiEENS_8equal_toIiEENS_9allocatorINS_4pairIKiiEEEEEES6_S8_NS9_INSA_ISB_SE_EEEEEEEEPvEEEENS_25__bucket_list_deallocatorINS9_ISN_EEEEEC2B8ue170006INS_16__value_init_tagESU_EEOT_OT0_, symObjAddr: 0x4E80, symBinAddr: 0x100009390, symSize: 0x40 }
  - { offsetInCU: 0x259CC, offset: 0x2F99B, size: 0x8, addend: 0x0, symName: __ZNSt3__122__compressed_pair_elemIPPNS_16__hash_node_baseIPNS_11__hash_nodeINS_17__hash_value_typeIiNS_13unordered_mapIiNS4_IiiNS_4hashIiEENS_8equal_toIiEENS_9allocatorINS_4pairIKiiEEEEEES6_S8_NS9_INSA_ISB_SE_EEEEEEEEPvEEEELi0ELb0EEC2B8ue170006ENS_16__value_init_tagE, symObjAddr: 0x4EC0, symBinAddr: 0x1000093D0, symSize: 0x18 }
  - { offsetInCU: 0x259FE, offset: 0x2F9CD, size: 0x8, addend: 0x0, symName: __ZNSt3__122__compressed_pair_elemINS_25__bucket_list_deallocatorINS_9allocatorIPNS_16__hash_node_baseIPNS_11__hash_nodeINS_17__hash_value_typeIiNS_13unordered_mapIiNS6_IiiNS_4hashIiEENS_8equal_toIiEENS2_INS_4pairIKiiEEEEEES8_SA_NS2_INSB_ISC_SF_EEEEEEEEPvEEEEEEEELi1ELb0EEC2B8ue170006ENS_16__value_init_tagE, symObjAddr: 0x4ED8, symBinAddr: 0x1000093E8, symSize: 0x2C }
  - { offsetInCU: 0x25A30, offset: 0x2F9FF, size: 0x8, addend: 0x0, symName: __ZNSt3__125__bucket_list_deallocatorINS_9allocatorIPNS_16__hash_node_baseIPNS_11__hash_nodeINS_17__hash_value_typeIiNS_13unordered_mapIiNS5_IiiNS_4hashIiEENS_8equal_toIiEENS1_INS_4pairIKiiEEEEEES7_S9_NS1_INSA_ISB_SE_EEEEEEEEPvEEEEEEEC1B8ue170006Ev, symObjAddr: 0x4F04, symBinAddr: 0x100009414, symSize: 0x2C }
  - { offsetInCU: 0x25A58, offset: 0x2FA27, size: 0x8, addend: 0x0, symName: __ZNSt3__125__bucket_list_deallocatorINS_9allocatorIPNS_16__hash_node_baseIPNS_11__hash_nodeINS_17__hash_value_typeIiNS_13unordered_mapIiNS5_IiiNS_4hashIiEENS_8equal_toIiEENS1_INS_4pairIKiiEEEEEES7_S9_NS1_INSA_ISB_SE_EEEEEEEEPvEEEEEEEC2B8ue170006Ev, symObjAddr: 0x4F30, symBinAddr: 0x100009440, symSize: 0x40 }
  - { offsetInCU: 0x25A80, offset: 0x2FA4F, size: 0x8, addend: 0x0, symName: __ZNSt3__117__compressed_pairImNS_9allocatorIPNS_16__hash_node_baseIPNS_11__hash_nodeINS_17__hash_value_typeIiNS_13unordered_mapIiNS5_IiiNS_4hashIiEENS_8equal_toIiEENS1_INS_4pairIKiiEEEEEES7_S9_NS1_INSA_ISB_SE_EEEEEEEEPvEEEEEEEC1B8ue170006IiNS_18__default_init_tagEEEOT_OT0_, symObjAddr: 0x4F70, symBinAddr: 0x100009480, symSize: 0x3C }
  - { offsetInCU: 0x25AD6, offset: 0x2FAA5, size: 0x8, addend: 0x0, symName: __ZNSt3__117__compressed_pairImNS_9allocatorIPNS_16__hash_node_baseIPNS_11__hash_nodeINS_17__hash_value_typeIiNS_13unordered_mapIiNS5_IiiNS_4hashIiEENS_8equal_toIiEENS1_INS_4pairIKiiEEEEEES7_S9_NS1_INSA_ISB_SE_EEEEEEEEPvEEEEEEEC2B8ue170006IiNS_18__default_init_tagEEEOT_OT0_, symObjAddr: 0x4FAC, symBinAddr: 0x1000094BC, symSize: 0x40 }
  - { offsetInCU: 0x25B2C, offset: 0x2FAFB, size: 0x8, addend: 0x0, symName: __ZNSt3__122__compressed_pair_elemINS_9allocatorIPNS_16__hash_node_baseIPNS_11__hash_nodeINS_17__hash_value_typeIiNS_13unordered_mapIiNS5_IiiNS_4hashIiEENS_8equal_toIiEENS1_INS_4pairIKiiEEEEEES7_S9_NS1_INSA_ISB_SE_EEEEEEEEPvEEEEEELi1ELb1EEC2B8ue170006ENS_18__default_init_tagE, symObjAddr: 0x5010, symBinAddr: 0x1000094FC, symSize: 0x2C }
  - { offsetInCU: 0x25B5E, offset: 0x2FB2D, size: 0x8, addend: 0x0, symName: __ZNSt3__19allocatorIPNS_16__hash_node_baseIPNS_11__hash_nodeINS_17__hash_value_typeIiNS_13unordered_mapIiNS4_IiiNS_4hashIiEENS_8equal_toIiEENS0_INS_4pairIKiiEEEEEES6_S8_NS0_INS9_ISA_SD_EEEEEEEEPvEEEEEC2B8ue170006Ev, symObjAddr: 0x503C, symBinAddr: 0x100009528, symSize: 0x2C }
  - { offsetInCU: 0x25B86, offset: 0x2FB55, size: 0x8, addend: 0x0, symName: __ZNSt3__116__non_trivial_ifILb1ENS_9allocatorIPNS_16__hash_node_baseIPNS_11__hash_nodeINS_17__hash_value_typeIiNS_13unordered_mapIiNS5_IiiNS_4hashIiEENS_8equal_toIiEENS1_INS_4pairIKiiEEEEEES7_S9_NS1_INSA_ISB_SE_EEEEEEEEPvEEEEEEEC2B8ue170006Ev, symObjAddr: 0x5068, symBinAddr: 0x100009554, symSize: 0x14 }
  - { offsetInCU: 0x25BAE, offset: 0x2FB7D, size: 0x8, addend: 0x0, symName: __ZNSt3__117__compressed_pairINS_16__hash_node_baseIPNS_11__hash_nodeINS_17__hash_value_typeIiNS_13unordered_mapIiNS4_IiiNS_4hashIiEENS_8equal_toIiEENS_9allocatorINS_4pairIKiiEEEEEES6_S8_NS9_INSA_ISB_SE_EEEEEEEEPvEEEENS9_ISK_EEEC2B8ue170006ILb1EvEEv, symObjAddr: 0x507C, symBinAddr: 0x100009568, symSize: 0x34 }
  - { offsetInCU: 0x25BE1, offset: 0x2FBB0, size: 0x8, addend: 0x0, symName: __ZNSt3__122__compressed_pair_elemINS_16__hash_node_baseIPNS_11__hash_nodeINS_17__hash_value_typeIiNS_13unordered_mapIiNS4_IiiNS_4hashIiEENS_8equal_toIiEENS_9allocatorINS_4pairIKiiEEEEEES6_S8_NS9_INSA_ISB_SE_EEEEEEEEPvEEEELi0ELb0EEC2B8ue170006ENS_16__value_init_tagE, symObjAddr: 0x50B0, symBinAddr: 0x10000959C, symSize: 0x2C }
  - { offsetInCU: 0x25C13, offset: 0x2FBE2, size: 0x8, addend: 0x0, symName: __ZNSt3__122__compressed_pair_elemINS_9allocatorINS_11__hash_nodeINS_17__hash_value_typeIiNS_13unordered_mapIiNS4_IiiNS_4hashIiEENS_8equal_toIiEENS1_INS_4pairIKiiEEEEEES6_S8_NS1_INS9_ISA_SD_EEEEEEEEPvEEEELi1ELb1EEC2B8ue170006ENS_16__value_init_tagE, symObjAddr: 0x50DC, symBinAddr: 0x1000095C8, symSize: 0x2C }
  - { offsetInCU: 0x25C45, offset: 0x2FC14, size: 0x8, addend: 0x0, symName: __ZNSt3__116__hash_node_baseIPNS_11__hash_nodeINS_17__hash_value_typeIiNS_13unordered_mapIiNS3_IiiNS_4hashIiEENS_8equal_toIiEENS_9allocatorINS_4pairIKiiEEEEEES5_S7_NS8_INS9_ISA_SD_EEEEEEEEPvEEEC1B8ue170006Ev, symObjAddr: 0x5108, symBinAddr: 0x1000095F4, symSize: 0x2C }
  - { offsetInCU: 0x25C6D, offset: 0x2FC3C, size: 0x8, addend: 0x0, symName: __ZNSt3__116__hash_node_baseIPNS_11__hash_nodeINS_17__hash_value_typeIiNS_13unordered_mapIiNS3_IiiNS_4hashIiEENS_8equal_toIiEENS_9allocatorINS_4pairIKiiEEEEEES5_S7_NS8_INS9_ISA_SD_EEEEEEEEPvEEEC2B8ue170006Ev, symObjAddr: 0x5134, symBinAddr: 0x100009620, symSize: 0x18 }
  - { offsetInCU: 0x25C95, offset: 0x2FC64, size: 0x8, addend: 0x0, symName: __ZNSt3__19allocatorINS_11__hash_nodeINS_17__hash_value_typeIiNS_13unordered_mapIiNS3_IiiNS_4hashIiEENS_8equal_toIiEENS0_INS_4pairIKiiEEEEEES5_S7_NS0_INS8_IS9_SC_EEEEEEEEPvEEEC2B8ue170006Ev, symObjAddr: 0x514C, symBinAddr: 0x100009638, symSize: 0x2C }
  - { offsetInCU: 0x25CBD, offset: 0x2FC8C, size: 0x8, addend: 0x0, symName: __ZNSt3__116__non_trivial_ifILb1ENS_9allocatorINS_11__hash_nodeINS_17__hash_value_typeIiNS_13unordered_mapIiNS4_IiiNS_4hashIiEENS_8equal_toIiEENS1_INS_4pairIKiiEEEEEES6_S8_NS1_INS9_ISA_SD_EEEEEEEEPvEEEEEC2B8ue170006Ev, symObjAddr: 0x5178, symBinAddr: 0x100009664, symSize: 0x14 }
  - { offsetInCU: 0x25CE5, offset: 0x2FCB4, size: 0x8, addend: 0x0, symName: __ZNSt3__117__compressed_pairImNS_22__unordered_map_hasherIiNS_17__hash_value_typeIiNS_13unordered_mapIiNS3_IiiNS_4hashIiEENS_8equal_toIiEENS_9allocatorINS_4pairIKiiEEEEEES5_S7_NS8_INS9_ISA_SD_EEEEEEEES5_S7_Lb1EEEEC2B8ue170006IiNS_18__default_init_tagEEEOT_OT0_, symObjAddr: 0x518C, symBinAddr: 0x100009678, symSize: 0x40 }
  - { offsetInCU: 0x25D3B, offset: 0x2FD0A, size: 0x8, addend: 0x0, symName: __ZNSt3__122__compressed_pair_elemINS_22__unordered_map_hasherIiNS_17__hash_value_typeIiNS_13unordered_mapIiNS3_IiiNS_4hashIiEENS_8equal_toIiEENS_9allocatorINS_4pairIKiiEEEEEES5_S7_NS8_INS9_ISA_SD_EEEEEEEES5_S7_Lb1EEELi1ELb1EEC2B8ue170006ENS_18__default_init_tagE, symObjAddr: 0x51CC, symBinAddr: 0x1000096B8, symSize: 0x2C }
  - { offsetInCU: 0x25D6D, offset: 0x2FD3C, size: 0x8, addend: 0x0, symName: __ZNSt3__122__unordered_map_hasherIiNS_17__hash_value_typeIiNS_13unordered_mapIiNS2_IiiNS_4hashIiEENS_8equal_toIiEENS_9allocatorINS_4pairIKiiEEEEEES4_S6_NS7_INS8_IS9_SC_EEEEEEEES4_S6_Lb1EEC2B8ue170006Ev, symObjAddr: 0x51F8, symBinAddr: 0x1000096E4, symSize: 0x14 }
  - { offsetInCU: 0x25D95, offset: 0x2FD64, size: 0x8, addend: 0x0, symName: __ZNSt3__117__compressed_pairIfNS_21__unordered_map_equalIiNS_17__hash_value_typeIiNS_13unordered_mapIiNS3_IiiNS_4hashIiEENS_8equal_toIiEENS_9allocatorINS_4pairIKiiEEEEEES5_S7_NS8_INS9_ISA_SD_EEEEEEEES7_S5_Lb1EEEEC2B8ue170006IfNS_18__default_init_tagEEEOT_OT0_, symObjAddr: 0x520C, symBinAddr: 0x1000096F8, symSize: 0x40 }
  - { offsetInCU: 0x25DEB, offset: 0x2FDBA, size: 0x8, addend: 0x0, symName: __ZNSt3__122__compressed_pair_elemIfLi0ELb0EEC2B8ue170006IfvEEOT_, symObjAddr: 0x524C, symBinAddr: 0x100009738, symSize: 0x24 }
  - { offsetInCU: 0x25E2B, offset: 0x2FDFA, size: 0x8, addend: 0x0, symName: __ZNSt3__122__compressed_pair_elemINS_21__unordered_map_equalIiNS_17__hash_value_typeIiNS_13unordered_mapIiNS3_IiiNS_4hashIiEENS_8equal_toIiEENS_9allocatorINS_4pairIKiiEEEEEES5_S7_NS8_INS9_ISA_SD_EEEEEEEES7_S5_Lb1EEELi1ELb1EEC2B8ue170006ENS_18__default_init_tagE, symObjAddr: 0x5270, symBinAddr: 0x10000975C, symSize: 0x2C }
  - { offsetInCU: 0x25E5D, offset: 0x2FE2C, size: 0x8, addend: 0x0, symName: __ZNSt3__121__unordered_map_equalIiNS_17__hash_value_typeIiNS_13unordered_mapIiNS2_IiiNS_4hashIiEENS_8equal_toIiEENS_9allocatorINS_4pairIKiiEEEEEES4_S6_NS7_INS8_IS9_SC_EEEEEEEES6_S4_Lb1EEC2B8ue170006Ev, symObjAddr: 0x529C, symBinAddr: 0x100009788, symSize: 0x14 }
  - { offsetInCU: 0x25E85, offset: 0x2FE54, size: 0x8, addend: 0x0, symName: __ZNSt3__113unordered_mapIiNS0_IiNS0_IiiNS_4hashIiEENS_8equal_toIiEENS_9allocatorINS_4pairIKiiEEEEEES2_S4_NS5_INS6_IS7_SA_EEEEEES2_S4_NS5_INS6_IS7_SD_EEEEED2B8ue170006Ev, symObjAddr: 0x52B0, symBinAddr: 0x10000979C, symSize: 0x2C }
  - { offsetInCU: 0x25EAD, offset: 0x2FE7C, size: 0x8, addend: 0x0, symName: __ZNSt3__112__hash_tableINS_17__hash_value_typeIiNS_13unordered_mapIiNS2_IiiNS_4hashIiEENS_8equal_toIiEENS_9allocatorINS_4pairIKiiEEEEEES4_S6_NS7_INS8_IS9_SC_EEEEEEEENS_22__unordered_map_hasherIiSG_S4_S6_Lb1EEENS_21__unordered_map_equalIiSG_S6_S4_Lb1EEENS7_ISG_EEED1Ev, symObjAddr: 0x52DC, symBinAddr: 0x1000097C8, symSize: 0x2C }
  - { offsetInCU: 0x25ED7, offset: 0x2FEA6, size: 0x8, addend: 0x0, symName: __ZNSt3__112__hash_tableINS_17__hash_value_typeIiNS_13unordered_mapIiNS2_IiiNS_4hashIiEENS_8equal_toIiEENS_9allocatorINS_4pairIKiiEEEEEES4_S6_NS7_INS8_IS9_SC_EEEEEEEENS_22__unordered_map_hasherIiSG_S4_S6_Lb1EEENS_21__unordered_map_equalIiSG_S6_S4_Lb1EEENS7_ISG_EEED2Ev, symObjAddr: 0x5308, symBinAddr: 0x1000097F4, symSize: 0x48 }
  - { offsetInCU: 0x25F01, offset: 0x2FED0, size: 0x8, addend: 0x0, symName: __ZNSt3__112__hash_tableINS_17__hash_value_typeIiNS_13unordered_mapIiNS2_IiiNS_4hashIiEENS_8equal_toIiEENS_9allocatorINS_4pairIKiiEEEEEES4_S6_NS7_INS8_IS9_SC_EEEEEEEENS_22__unordered_map_hasherIiSG_S4_S6_Lb1EEENS_21__unordered_map_equalIiSG_S6_S4_Lb1EEENS7_ISG_EEE17__deallocate_nodeEPNS_16__hash_node_baseIPNS_11__hash_nodeISG_PvEEEE, symObjAddr: 0x5350, symBinAddr: 0x10000983C, symSize: 0xA8 }
  - { offsetInCU: 0x25F69, offset: 0x2FF38, size: 0x8, addend: 0x0, symName: __ZNSt3__117__compressed_pairINS_16__hash_node_baseIPNS_11__hash_nodeINS_17__hash_value_typeIiNS_13unordered_mapIiNS4_IiiNS_4hashIiEENS_8equal_toIiEENS_9allocatorINS_4pairIKiiEEEEEES6_S8_NS9_INSA_ISB_SE_EEEEEEEEPvEEEENS9_ISK_EEE5firstB8ue170006Ev, symObjAddr: 0x53F8, symBinAddr: 0x1000098E4, symSize: 0x24 }
  - { offsetInCU: 0x25F8D, offset: 0x2FF5C, size: 0x8, addend: 0x0, symName: __ZNSt3__110unique_ptrIA_PNS_16__hash_node_baseIPNS_11__hash_nodeINS_17__hash_value_typeIiNS_13unordered_mapIiNS4_IiiNS_4hashIiEENS_8equal_toIiEENS_9allocatorINS_4pairIKiiEEEEEES6_S8_NS9_INSA_ISB_SE_EEEEEEEEPvEEEENS_25__bucket_list_deallocatorINS9_ISN_EEEEED1B8ue170006Ev, symObjAddr: 0x541C, symBinAddr: 0x100009908, symSize: 0x2C }
  - { offsetInCU: 0x25FB5, offset: 0x2FF84, size: 0x8, addend: 0x0, symName: __ZNSt3__112__hash_tableINS_17__hash_value_typeIiNS_13unordered_mapIiNS2_IiiNS_4hashIiEENS_8equal_toIiEENS_9allocatorINS_4pairIKiiEEEEEES4_S6_NS7_INS8_IS9_SC_EEEEEEEENS_22__unordered_map_hasherIiSG_S4_S6_Lb1EEENS_21__unordered_map_equalIiSG_S6_S4_Lb1EEENS7_ISG_EEE12__node_allocB8ue170006Ev, symObjAddr: 0x5448, symBinAddr: 0x100009934, symSize: 0x28 }
  - { offsetInCU: 0x25FD9, offset: 0x2FFA8, size: 0x8, addend: 0x0, symName: __ZNSt3__116__hash_node_baseIPNS_11__hash_nodeINS_17__hash_value_typeIiNS_13unordered_mapIiNS3_IiiNS_4hashIiEENS_8equal_toIiEENS_9allocatorINS_4pairIKiiEEEEEES5_S7_NS8_INS9_ISA_SD_EEEEEEEEPvEEE8__upcastB8ue170006Ev, symObjAddr: 0x5470, symBinAddr: 0x10000995C, symSize: 0x24 }
  - { offsetInCU: 0x25FFD, offset: 0x2FFCC, size: 0x8, addend: 0x0, symName: __ZNSt3__116allocator_traitsINS_9allocatorINS_11__hash_nodeINS_17__hash_value_typeIiNS_13unordered_mapIiNS4_IiiNS_4hashIiEENS_8equal_toIiEENS1_INS_4pairIKiiEEEEEES6_S8_NS1_INS9_ISA_SD_EEEEEEEEPvEEEEE7destroyB8ue170006INS9_ISA_SG_EEvvEEvRSK_PT_, symObjAddr: 0x5494, symBinAddr: 0x100009980, symSize: 0x28 }
  - { offsetInCU: 0x26036, offset: 0x30005, size: 0x8, addend: 0x0, symName: __ZNSt3__122__hash_key_value_typesINS_17__hash_value_typeIiNS_13unordered_mapIiNS2_IiiNS_4hashIiEENS_8equal_toIiEENS_9allocatorINS_4pairIKiiEEEEEES4_S6_NS7_INS8_IS9_SC_EEEEEEEEE9__get_ptrB8ue170006ERSG_, symObjAddr: 0x54BC, symBinAddr: 0x1000099A8, symSize: 0x24 }
  - { offsetInCU: 0x26058, offset: 0x30027, size: 0x8, addend: 0x0, symName: __ZNSt3__116allocator_traitsINS_9allocatorINS_11__hash_nodeINS_17__hash_value_typeIiNS_13unordered_mapIiNS4_IiiNS_4hashIiEENS_8equal_toIiEENS1_INS_4pairIKiiEEEEEES6_S8_NS1_INS9_ISA_SD_EEEEEEEEPvEEEEE10deallocateB8ue170006ERSK_PSJ_m, symObjAddr: 0x54E0, symBinAddr: 0x1000099CC, symSize: 0x34 }
  - { offsetInCU: 0x26099, offset: 0x30068, size: 0x8, addend: 0x0, symName: __ZNSt3__117__compressed_pairINS_16__hash_node_baseIPNS_11__hash_nodeINS_17__hash_value_typeIiNS_13unordered_mapIiNS4_IiiNS_4hashIiEENS_8equal_toIiEENS_9allocatorINS_4pairIKiiEEEEEES6_S8_NS9_INSA_ISB_SE_EEEEEEEEPvEEEENS9_ISK_EEE6secondB8ue170006Ev, symObjAddr: 0x5514, symBinAddr: 0x100009A00, symSize: 0x24 }
  - { offsetInCU: 0x260BD, offset: 0x3008C, size: 0x8, addend: 0x0, symName: __ZNSt3__122__compressed_pair_elemINS_9allocatorINS_11__hash_nodeINS_17__hash_value_typeIiNS_13unordered_mapIiNS4_IiiNS_4hashIiEENS_8equal_toIiEENS1_INS_4pairIKiiEEEEEES6_S8_NS1_INS9_ISA_SD_EEEEEEEEPvEEEELi1ELb1EE5__getB8ue170006Ev, symObjAddr: 0x5538, symBinAddr: 0x100009A24, symSize: 0x14 }
  - { offsetInCU: 0x260E1, offset: 0x300B0, size: 0x8, addend: 0x0, symName: __ZNSt3__114pointer_traitsIPNS_16__hash_node_baseIPNS_11__hash_nodeINS_17__hash_value_typeIiNS_13unordered_mapIiNS4_IiiNS_4hashIiEENS_8equal_toIiEENS_9allocatorINS_4pairIKiiEEEEEES6_S8_NS9_INSA_ISB_SE_EEEEEEEEPvEEEEE10pointer_toB8ue170006ERSM_, symObjAddr: 0x554C, symBinAddr: 0x100009A38, symSize: 0x14 }
  - { offsetInCU: 0x26103, offset: 0x300D2, size: 0x8, addend: 0x0, symName: __ZNSt3__14pairIKiNS_13unordered_mapIiNS2_IiiNS_4hashIiEENS_8equal_toIiEENS_9allocatorINS0_IS1_iEEEEEES4_S6_NS7_INS0_IS1_SA_EEEEEEED1Ev, symObjAddr: 0x5560, symBinAddr: 0x100009A4C, symSize: 0x2C }
  - { offsetInCU: 0x2612D, offset: 0x300FC, size: 0x8, addend: 0x0, symName: __ZNSt3__14pairIKiNS_13unordered_mapIiNS2_IiiNS_4hashIiEENS_8equal_toIiEENS_9allocatorINS0_IS1_iEEEEEES4_S6_NS7_INS0_IS1_SA_EEEEEEED2Ev, symObjAddr: 0x558C, symBinAddr: 0x100009A78, symSize: 0x30 }
  - { offsetInCU: 0x26157, offset: 0x30126, size: 0x8, addend: 0x0, symName: __ZNSt3__113unordered_mapIiNS0_IiiNS_4hashIiEENS_8equal_toIiEENS_9allocatorINS_4pairIKiiEEEEEES2_S4_NS5_INS6_IS7_SA_EEEEED1B8ue170006Ev, symObjAddr: 0x55BC, symBinAddr: 0x100009AA8, symSize: 0x2C }
  - { offsetInCU: 0x2617F, offset: 0x3014E, size: 0x8, addend: 0x0, symName: __ZNSt3__113unordered_mapIiNS0_IiiNS_4hashIiEENS_8equal_toIiEENS_9allocatorINS_4pairIKiiEEEEEES2_S4_NS5_INS6_IS7_SA_EEEEED2B8ue170006Ev, symObjAddr: 0x55E8, symBinAddr: 0x100009AD4, symSize: 0x2C }
  - { offsetInCU: 0x261A7, offset: 0x30176, size: 0x8, addend: 0x0, symName: __ZNSt3__112__hash_tableINS_17__hash_value_typeIiNS_13unordered_mapIiiNS_4hashIiEENS_8equal_toIiEENS_9allocatorINS_4pairIKiiEEEEEEEENS_22__unordered_map_hasherIiSD_S4_S6_Lb1EEENS_21__unordered_map_equalIiSD_S6_S4_Lb1EEENS7_ISD_EEED1Ev, symObjAddr: 0x5614, symBinAddr: 0x100009B00, symSize: 0x2C }
  - { offsetInCU: 0x261D1, offset: 0x301A0, size: 0x8, addend: 0x0, symName: __ZNSt3__112__hash_tableINS_17__hash_value_typeIiNS_13unordered_mapIiiNS_4hashIiEENS_8equal_toIiEENS_9allocatorINS_4pairIKiiEEEEEEEENS_22__unordered_map_hasherIiSD_S4_S6_Lb1EEENS_21__unordered_map_equalIiSD_S6_S4_Lb1EEENS7_ISD_EEED2Ev, symObjAddr: 0x5640, symBinAddr: 0x100009B2C, symSize: 0x48 }
  - { offsetInCU: 0x261FB, offset: 0x301CA, size: 0x8, addend: 0x0, symName: __ZNSt3__112__hash_tableINS_17__hash_value_typeIiNS_13unordered_mapIiiNS_4hashIiEENS_8equal_toIiEENS_9allocatorINS_4pairIKiiEEEEEEEENS_22__unordered_map_hasherIiSD_S4_S6_Lb1EEENS_21__unordered_map_equalIiSD_S6_S4_Lb1EEENS7_ISD_EEE17__deallocate_nodeEPNS_16__hash_node_baseIPNS_11__hash_nodeISD_PvEEEE, symObjAddr: 0x5688, symBinAddr: 0x100009B74, symSize: 0xA8 }
  - { offsetInCU: 0x26263, offset: 0x30232, size: 0x8, addend: 0x0, symName: __ZNSt3__117__compressed_pairINS_16__hash_node_baseIPNS_11__hash_nodeINS_17__hash_value_typeIiNS_13unordered_mapIiiNS_4hashIiEENS_8equal_toIiEENS_9allocatorINS_4pairIKiiEEEEEEEEPvEEEENS9_ISH_EEE5firstB8ue170006Ev, symObjAddr: 0x5730, symBinAddr: 0x100009C1C, symSize: 0x24 }
  - { offsetInCU: 0x26287, offset: 0x30256, size: 0x8, addend: 0x0, symName: __ZNSt3__110unique_ptrIA_PNS_16__hash_node_baseIPNS_11__hash_nodeINS_17__hash_value_typeIiNS_13unordered_mapIiiNS_4hashIiEENS_8equal_toIiEENS_9allocatorINS_4pairIKiiEEEEEEEEPvEEEENS_25__bucket_list_deallocatorINS9_ISK_EEEEED1B8ue170006Ev, symObjAddr: 0x5754, symBinAddr: 0x100009C40, symSize: 0x2C }
  - { offsetInCU: 0x262AF, offset: 0x3027E, size: 0x8, addend: 0x0, symName: __ZNSt3__112__hash_tableINS_17__hash_value_typeIiNS_13unordered_mapIiiNS_4hashIiEENS_8equal_toIiEENS_9allocatorINS_4pairIKiiEEEEEEEENS_22__unordered_map_hasherIiSD_S4_S6_Lb1EEENS_21__unordered_map_equalIiSD_S6_S4_Lb1EEENS7_ISD_EEE12__node_allocB8ue170006Ev, symObjAddr: 0x5780, symBinAddr: 0x100009C6C, symSize: 0x28 }
  - { offsetInCU: 0x262D3, offset: 0x302A2, size: 0x8, addend: 0x0, symName: __ZNSt3__116__hash_node_baseIPNS_11__hash_nodeINS_17__hash_value_typeIiNS_13unordered_mapIiiNS_4hashIiEENS_8equal_toIiEENS_9allocatorINS_4pairIKiiEEEEEEEEPvEEE8__upcastB8ue170006Ev, symObjAddr: 0x57A8, symBinAddr: 0x100009C94, symSize: 0x24 }
  - { offsetInCU: 0x262F7, offset: 0x302C6, size: 0x8, addend: 0x0, symName: __ZNSt3__116allocator_traitsINS_9allocatorINS_11__hash_nodeINS_17__hash_value_typeIiNS_13unordered_mapIiiNS_4hashIiEENS_8equal_toIiEENS1_INS_4pairIKiiEEEEEEEEPvEEEEE7destroyB8ue170006INS9_ISA_SD_EEvvEEvRSH_PT_, symObjAddr: 0x57CC, symBinAddr: 0x100009CB8, symSize: 0x28 }
  - { offsetInCU: 0x26330, offset: 0x302FF, size: 0x8, addend: 0x0, symName: __ZNSt3__122__hash_key_value_typesINS_17__hash_value_typeIiNS_13unordered_mapIiiNS_4hashIiEENS_8equal_toIiEENS_9allocatorINS_4pairIKiiEEEEEEEEE9__get_ptrB8ue170006ERSD_, symObjAddr: 0x57F4, symBinAddr: 0x100009CE0, symSize: 0x24 }
  - { offsetInCU: 0x26352, offset: 0x30321, size: 0x8, addend: 0x0, symName: __ZNSt3__116allocator_traitsINS_9allocatorINS_11__hash_nodeINS_17__hash_value_typeIiNS_13unordered_mapIiiNS_4hashIiEENS_8equal_toIiEENS1_INS_4pairIKiiEEEEEEEEPvEEEEE10deallocateB8ue170006ERSH_PSG_m, symObjAddr: 0x5818, symBinAddr: 0x100009D04, symSize: 0x34 }
  - { offsetInCU: 0x26393, offset: 0x30362, size: 0x8, addend: 0x0, symName: __ZNSt3__117__compressed_pairINS_16__hash_node_baseIPNS_11__hash_nodeINS_17__hash_value_typeIiNS_13unordered_mapIiiNS_4hashIiEENS_8equal_toIiEENS_9allocatorINS_4pairIKiiEEEEEEEEPvEEEENS9_ISH_EEE6secondB8ue170006Ev, symObjAddr: 0x584C, symBinAddr: 0x100009D38, symSize: 0x24 }
  - { offsetInCU: 0x263B7, offset: 0x30386, size: 0x8, addend: 0x0, symName: __ZNSt3__122__compressed_pair_elemINS_9allocatorINS_11__hash_nodeINS_17__hash_value_typeIiNS_13unordered_mapIiiNS_4hashIiEENS_8equal_toIiEENS1_INS_4pairIKiiEEEEEEEEPvEEEELi1ELb1EE5__getB8ue170006Ev, symObjAddr: 0x5870, symBinAddr: 0x100009D5C, symSize: 0x14 }
  - { offsetInCU: 0x263DB, offset: 0x303AA, size: 0x8, addend: 0x0, symName: __ZNSt3__114pointer_traitsIPNS_16__hash_node_baseIPNS_11__hash_nodeINS_17__hash_value_typeIiNS_13unordered_mapIiiNS_4hashIiEENS_8equal_toIiEENS_9allocatorINS_4pairIKiiEEEEEEEEPvEEEEE10pointer_toB8ue170006ERSJ_, symObjAddr: 0x5884, symBinAddr: 0x100009D70, symSize: 0x14 }
  - { offsetInCU: 0x263FD, offset: 0x303CC, size: 0x8, addend: 0x0, symName: __ZNSt3__14pairIKiNS_13unordered_mapIiiNS_4hashIiEENS_8equal_toIiEENS_9allocatorINS0_IS1_iEEEEEEED1Ev, symObjAddr: 0x5898, symBinAddr: 0x100009D84, symSize: 0x2C }
  - { offsetInCU: 0x26427, offset: 0x303F6, size: 0x8, addend: 0x0, symName: __ZNSt3__14pairIKiNS_13unordered_mapIiiNS_4hashIiEENS_8equal_toIiEENS_9allocatorINS0_IS1_iEEEEEEED2Ev, symObjAddr: 0x58C4, symBinAddr: 0x100009DB0, symSize: 0x30 }
  - { offsetInCU: 0x26451, offset: 0x30420, size: 0x8, addend: 0x0, symName: __ZNSt3__113unordered_mapIiiNS_4hashIiEENS_8equal_toIiEENS_9allocatorINS_4pairIKiiEEEEED1B8ue170006Ev, symObjAddr: 0x58F4, symBinAddr: 0x100009DE0, symSize: 0x2C }
  - { offsetInCU: 0x26479, offset: 0x30448, size: 0x8, addend: 0x0, symName: __ZNSt3__113unordered_mapIiiNS_4hashIiEENS_8equal_toIiEENS_9allocatorINS_4pairIKiiEEEEED2B8ue170006Ev, symObjAddr: 0x5920, symBinAddr: 0x100009E0C, symSize: 0x2C }
  - { offsetInCU: 0x264A1, offset: 0x30470, size: 0x8, addend: 0x0, symName: __ZNSt3__112__hash_tableINS_17__hash_value_typeIiiEENS_22__unordered_map_hasherIiS2_NS_4hashIiEENS_8equal_toIiEELb1EEENS_21__unordered_map_equalIiS2_S7_S5_Lb1EEENS_9allocatorIS2_EEED1Ev, symObjAddr: 0x594C, symBinAddr: 0x100009E38, symSize: 0x2C }
  - { offsetInCU: 0x264CB, offset: 0x3049A, size: 0x8, addend: 0x0, symName: __ZNSt3__112__hash_tableINS_17__hash_value_typeIiiEENS_22__unordered_map_hasherIiS2_NS_4hashIiEENS_8equal_toIiEELb1EEENS_21__unordered_map_equalIiS2_S7_S5_Lb1EEENS_9allocatorIS2_EEED2Ev, symObjAddr: 0x5978, symBinAddr: 0x100009E64, symSize: 0x48 }
  - { offsetInCU: 0x264F5, offset: 0x304C4, size: 0x8, addend: 0x0, symName: __ZNSt3__112__hash_tableINS_17__hash_value_typeIiiEENS_22__unordered_map_hasherIiS2_NS_4hashIiEENS_8equal_toIiEELb1EEENS_21__unordered_map_equalIiS2_S7_S5_Lb1EEENS_9allocatorIS2_EEE17__deallocate_nodeEPNS_16__hash_node_baseIPNS_11__hash_nodeIS2_PvEEEE, symObjAddr: 0x59C0, symBinAddr: 0x100009EAC, symSize: 0xA8 }
  - { offsetInCU: 0x2655D, offset: 0x3052C, size: 0x8, addend: 0x0, symName: __ZNSt3__117__compressed_pairINS_16__hash_node_baseIPNS_11__hash_nodeINS_17__hash_value_typeIiiEEPvEEEENS_9allocatorIS6_EEE5firstB8ue170006Ev, symObjAddr: 0x5A68, symBinAddr: 0x100009F54, symSize: 0x24 }
  - { offsetInCU: 0x26581, offset: 0x30550, size: 0x8, addend: 0x0, symName: __ZNSt3__110unique_ptrIA_PNS_16__hash_node_baseIPNS_11__hash_nodeINS_17__hash_value_typeIiiEEPvEEEENS_25__bucket_list_deallocatorINS_9allocatorIS9_EEEEED1B8ue170006Ev, symObjAddr: 0x5A8C, symBinAddr: 0x100009F78, symSize: 0x2C }
  - { offsetInCU: 0x265A9, offset: 0x30578, size: 0x8, addend: 0x0, symName: __ZNSt3__112__hash_tableINS_17__hash_value_typeIiiEENS_22__unordered_map_hasherIiS2_NS_4hashIiEENS_8equal_toIiEELb1EEENS_21__unordered_map_equalIiS2_S7_S5_Lb1EEENS_9allocatorIS2_EEE12__node_allocB8ue170006Ev, symObjAddr: 0x5AB8, symBinAddr: 0x100009FA4, symSize: 0x28 }
  - { offsetInCU: 0x265CD, offset: 0x3059C, size: 0x8, addend: 0x0, symName: __ZNSt3__116__hash_node_baseIPNS_11__hash_nodeINS_17__hash_value_typeIiiEEPvEEE8__upcastB8ue170006Ev, symObjAddr: 0x5AE0, symBinAddr: 0x100009FCC, symSize: 0x24 }
  - { offsetInCU: 0x265F1, offset: 0x305C0, size: 0x8, addend: 0x0, symName: __ZNSt3__116allocator_traitsINS_9allocatorINS_11__hash_nodeINS_17__hash_value_typeIiiEEPvEEEEE7destroyB8ue170006INS_4pairIKiiEEvvEEvRS7_PT_, symObjAddr: 0x5B04, symBinAddr: 0x100009FF0, symSize: 0x14 }
  - { offsetInCU: 0x2662A, offset: 0x305F9, size: 0x8, addend: 0x0, symName: __ZNSt3__122__hash_key_value_typesINS_17__hash_value_typeIiiEEE9__get_ptrB8ue170006ERS2_, symObjAddr: 0x5B18, symBinAddr: 0x10000A004, symSize: 0x24 }
  - { offsetInCU: 0x2664C, offset: 0x3061B, size: 0x8, addend: 0x0, symName: __ZNSt3__116allocator_traitsINS_9allocatorINS_11__hash_nodeINS_17__hash_value_typeIiiEEPvEEEEE10deallocateB8ue170006ERS7_PS6_m, symObjAddr: 0x5B3C, symBinAddr: 0x10000A028, symSize: 0x34 }
  - { offsetInCU: 0x2668D, offset: 0x3065C, size: 0x8, addend: 0x0, symName: __ZNSt3__117__compressed_pairINS_16__hash_node_baseIPNS_11__hash_nodeINS_17__hash_value_typeIiiEEPvEEEENS_9allocatorIS6_EEE6secondB8ue170006Ev, symObjAddr: 0x5B70, symBinAddr: 0x10000A05C, symSize: 0x24 }
  - { offsetInCU: 0x266B1, offset: 0x30680, size: 0x8, addend: 0x0, symName: __ZNSt3__122__compressed_pair_elemINS_9allocatorINS_11__hash_nodeINS_17__hash_value_typeIiiEEPvEEEELi1ELb1EE5__getB8ue170006Ev, symObjAddr: 0x5B94, symBinAddr: 0x10000A080, symSize: 0x14 }
  - { offsetInCU: 0x266D5, offset: 0x306A4, size: 0x8, addend: 0x0, symName: __ZNSt3__114pointer_traitsIPNS_16__hash_node_baseIPNS_11__hash_nodeINS_17__hash_value_typeIiiEEPvEEEEE10pointer_toB8ue170006ERS8_, symObjAddr: 0x5BA8, symBinAddr: 0x10000A094, symSize: 0x14 }
  - { offsetInCU: 0x266F7, offset: 0x306C6, size: 0x8, addend: 0x0, symName: __ZNSt3__117__hash_value_typeIiiE11__get_valueB8ue170006Ev, symObjAddr: 0x5BBC, symBinAddr: 0x10000A0A8, symSize: 0x14 }
  - { offsetInCU: 0x2671B, offset: 0x306EA, size: 0x8, addend: 0x0, symName: __ZNSt3__19allocatorINS_11__hash_nodeINS_17__hash_value_typeIiiEEPvEEE10deallocateB8ue170006EPS5_m, symObjAddr: 0x5BD0, symBinAddr: 0x10000A0BC, symSize: 0x44 }
  - { offsetInCU: 0x2675B, offset: 0x3072A, size: 0x8, addend: 0x0, symName: __ZNSt3__122__compressed_pair_elemINS_16__hash_node_baseIPNS_11__hash_nodeINS_17__hash_value_typeIiiEEPvEEEELi0ELb0EE5__getB8ue170006Ev, symObjAddr: 0x5C14, symBinAddr: 0x10000A100, symSize: 0x14 }
  - { offsetInCU: 0x2677F, offset: 0x3074E, size: 0x8, addend: 0x0, symName: __ZNSt3__110unique_ptrIA_PNS_16__hash_node_baseIPNS_11__hash_nodeINS_17__hash_value_typeIiiEEPvEEEENS_25__bucket_list_deallocatorINS_9allocatorIS9_EEEEED2B8ue170006Ev, symObjAddr: 0x5C28, symBinAddr: 0x10000A114, symSize: 0x30 }
  - { offsetInCU: 0x267A7, offset: 0x30776, size: 0x8, addend: 0x0, symName: __ZNSt3__110unique_ptrIA_PNS_16__hash_node_baseIPNS_11__hash_nodeINS_17__hash_value_typeIiiEEPvEEEENS_25__bucket_list_deallocatorINS_9allocatorIS9_EEEEE5resetB8ue170006EDn, symObjAddr: 0x5C58, symBinAddr: 0x10000A144, symSize: 0x6C }
  - { offsetInCU: 0x267E5, offset: 0x307B4, size: 0x8, addend: 0x0, symName: __ZNSt3__117__compressed_pairIPPNS_16__hash_node_baseIPNS_11__hash_nodeINS_17__hash_value_typeIiiEEPvEEEENS_25__bucket_list_deallocatorINS_9allocatorIS9_EEEEE5firstB8ue170006Ev, symObjAddr: 0x5CC4, symBinAddr: 0x10000A1B0, symSize: 0x24 }
  - { offsetInCU: 0x26809, offset: 0x307D8, size: 0x8, addend: 0x0, symName: __ZNSt3__117__compressed_pairIPPNS_16__hash_node_baseIPNS_11__hash_nodeINS_17__hash_value_typeIiiEEPvEEEENS_25__bucket_list_deallocatorINS_9allocatorIS9_EEEEE6secondB8ue170006Ev, symObjAddr: 0x5CE8, symBinAddr: 0x10000A1D4, symSize: 0x28 }
  - { offsetInCU: 0x2682D, offset: 0x307FC, size: 0x8, addend: 0x0, symName: __ZNSt3__125__bucket_list_deallocatorINS_9allocatorIPNS_16__hash_node_baseIPNS_11__hash_nodeINS_17__hash_value_typeIiiEEPvEEEEEEEclB8ue170006EPSA_, symObjAddr: 0x5D10, symBinAddr: 0x10000A1FC, symSize: 0x58 }
  - { offsetInCU: 0x26860, offset: 0x3082F, size: 0x8, addend: 0x0, symName: __ZNSt3__122__compressed_pair_elemIPPNS_16__hash_node_baseIPNS_11__hash_nodeINS_17__hash_value_typeIiiEEPvEEEELi0ELb0EE5__getB8ue170006Ev, symObjAddr: 0x5D68, symBinAddr: 0x10000A254, symSize: 0x14 }
  - { offsetInCU: 0x26884, offset: 0x30853, size: 0x8, addend: 0x0, symName: __ZNSt3__122__compressed_pair_elemINS_25__bucket_list_deallocatorINS_9allocatorIPNS_16__hash_node_baseIPNS_11__hash_nodeINS_17__hash_value_typeIiiEEPvEEEEEEEELi1ELb0EE5__getB8ue170006Ev, symObjAddr: 0x5D7C, symBinAddr: 0x10000A268, symSize: 0x14 }
  - { offsetInCU: 0x268A8, offset: 0x30877, size: 0x8, addend: 0x0, symName: __ZNSt3__116allocator_traitsINS_9allocatorIPNS_16__hash_node_baseIPNS_11__hash_nodeINS_17__hash_value_typeIiiEEPvEEEEEEE10deallocateB8ue170006ERSB_PSA_m, symObjAddr: 0x5D90, symBinAddr: 0x10000A27C, symSize: 0x34 }
  - { offsetInCU: 0x268E9, offset: 0x308B8, size: 0x8, addend: 0x0, symName: __ZNSt3__125__bucket_list_deallocatorINS_9allocatorIPNS_16__hash_node_baseIPNS_11__hash_nodeINS_17__hash_value_typeIiiEEPvEEEEEEE7__allocB8ue170006Ev, symObjAddr: 0x5DC4, symBinAddr: 0x10000A2B0, symSize: 0x24 }
  - { offsetInCU: 0x2690D, offset: 0x308DC, size: 0x8, addend: 0x0, symName: __ZNSt3__125__bucket_list_deallocatorINS_9allocatorIPNS_16__hash_node_baseIPNS_11__hash_nodeINS_17__hash_value_typeIiiEEPvEEEEEEE4sizeB8ue170006Ev, symObjAddr: 0x5DE8, symBinAddr: 0x10000A2D4, symSize: 0x24 }
  - { offsetInCU: 0x26931, offset: 0x30900, size: 0x8, addend: 0x0, symName: __ZNSt3__19allocatorIPNS_16__hash_node_baseIPNS_11__hash_nodeINS_17__hash_value_typeIiiEEPvEEEEE10deallocateB8ue170006EPS9_m, symObjAddr: 0x5E0C, symBinAddr: 0x10000A2F8, symSize: 0x40 }
  - { offsetInCU: 0x26971, offset: 0x30940, size: 0x8, addend: 0x0, symName: __ZNSt3__117__compressed_pairImNS_9allocatorIPNS_16__hash_node_baseIPNS_11__hash_nodeINS_17__hash_value_typeIiiEEPvEEEEEEE6secondB8ue170006Ev, symObjAddr: 0x5E4C, symBinAddr: 0x10000A338, symSize: 0x24 }
  - { offsetInCU: 0x26995, offset: 0x30964, size: 0x8, addend: 0x0, symName: __ZNSt3__122__compressed_pair_elemINS_9allocatorIPNS_16__hash_node_baseIPNS_11__hash_nodeINS_17__hash_value_typeIiiEEPvEEEEEELi1ELb1EE5__getB8ue170006Ev, symObjAddr: 0x5E70, symBinAddr: 0x10000A35C, symSize: 0x14 }
  - { offsetInCU: 0x269B9, offset: 0x30988, size: 0x8, addend: 0x0, symName: __ZNSt3__117__compressed_pairImNS_9allocatorIPNS_16__hash_node_baseIPNS_11__hash_nodeINS_17__hash_value_typeIiiEEPvEEEEEEE5firstB8ue170006Ev, symObjAddr: 0x5E84, symBinAddr: 0x10000A370, symSize: 0x24 }
  - { offsetInCU: 0x269DD, offset: 0x309AC, size: 0x8, addend: 0x0, symName: __ZNSt3__117__hash_value_typeIiNS_13unordered_mapIiiNS_4hashIiEENS_8equal_toIiEENS_9allocatorINS_4pairIKiiEEEEEEE11__get_valueB8ue170006Ev, symObjAddr: 0x5EA8, symBinAddr: 0x10000A394, symSize: 0x14 }
  - { offsetInCU: 0x26A01, offset: 0x309D0, size: 0x8, addend: 0x0, symName: __ZNSt3__19allocatorINS_11__hash_nodeINS_17__hash_value_typeIiNS_13unordered_mapIiiNS_4hashIiEENS_8equal_toIiEENS0_INS_4pairIKiiEEEEEEEEPvEEE10deallocateB8ue170006EPSF_m, symObjAddr: 0x5EBC, symBinAddr: 0x10000A3A8, symSize: 0x40 }
  - { offsetInCU: 0x26A41, offset: 0x30A10, size: 0x8, addend: 0x0, symName: __ZNSt3__122__compressed_pair_elemINS_16__hash_node_baseIPNS_11__hash_nodeINS_17__hash_value_typeIiNS_13unordered_mapIiiNS_4hashIiEENS_8equal_toIiEENS_9allocatorINS_4pairIKiiEEEEEEEEPvEEEELi0ELb0EE5__getB8ue170006Ev, symObjAddr: 0x5EFC, symBinAddr: 0x10000A3E8, symSize: 0x14 }
  - { offsetInCU: 0x26A65, offset: 0x30A34, size: 0x8, addend: 0x0, symName: __ZNSt3__110unique_ptrIA_PNS_16__hash_node_baseIPNS_11__hash_nodeINS_17__hash_value_typeIiNS_13unordered_mapIiiNS_4hashIiEENS_8equal_toIiEENS_9allocatorINS_4pairIKiiEEEEEEEEPvEEEENS_25__bucket_list_deallocatorINS9_ISK_EEEEED2B8ue170006Ev, symObjAddr: 0x5F10, symBinAddr: 0x10000A3FC, symSize: 0x30 }
  - { offsetInCU: 0x26A8D, offset: 0x30A5C, size: 0x8, addend: 0x0, symName: __ZNSt3__110unique_ptrIA_PNS_16__hash_node_baseIPNS_11__hash_nodeINS_17__hash_value_typeIiNS_13unordered_mapIiiNS_4hashIiEENS_8equal_toIiEENS_9allocatorINS_4pairIKiiEEEEEEEEPvEEEENS_25__bucket_list_deallocatorINS9_ISK_EEEEE5resetB8ue170006EDn, symObjAddr: 0x5F40, symBinAddr: 0x10000A42C, symSize: 0x6C }
  - { offsetInCU: 0x26ACB, offset: 0x30A9A, size: 0x8, addend: 0x0, symName: __ZNSt3__117__compressed_pairIPPNS_16__hash_node_baseIPNS_11__hash_nodeINS_17__hash_value_typeIiNS_13unordered_mapIiiNS_4hashIiEENS_8equal_toIiEENS_9allocatorINS_4pairIKiiEEEEEEEEPvEEEENS_25__bucket_list_deallocatorINS9_ISK_EEEEE5firstB8ue170006Ev, symObjAddr: 0x5FAC, symBinAddr: 0x10000A498, symSize: 0x24 }
  - { offsetInCU: 0x26AEF, offset: 0x30ABE, size: 0x8, addend: 0x0, symName: __ZNSt3__117__compressed_pairIPPNS_16__hash_node_baseIPNS_11__hash_nodeINS_17__hash_value_typeIiNS_13unordered_mapIiiNS_4hashIiEENS_8equal_toIiEENS_9allocatorINS_4pairIKiiEEEEEEEEPvEEEENS_25__bucket_list_deallocatorINS9_ISK_EEEEE6secondB8ue170006Ev, symObjAddr: 0x5FD0, symBinAddr: 0x10000A4BC, symSize: 0x28 }
  - { offsetInCU: 0x26B13, offset: 0x30AE2, size: 0x8, addend: 0x0, symName: __ZNSt3__125__bucket_list_deallocatorINS_9allocatorIPNS_16__hash_node_baseIPNS_11__hash_nodeINS_17__hash_value_typeIiNS_13unordered_mapIiiNS_4hashIiEENS_8equal_toIiEENS1_INS_4pairIKiiEEEEEEEEPvEEEEEEEclB8ue170006EPSK_, symObjAddr: 0x5FF8, symBinAddr: 0x10000A4E4, symSize: 0x58 }
  - { offsetInCU: 0x26B46, offset: 0x30B15, size: 0x8, addend: 0x0, symName: __ZNSt3__122__compressed_pair_elemIPPNS_16__hash_node_baseIPNS_11__hash_nodeINS_17__hash_value_typeIiNS_13unordered_mapIiiNS_4hashIiEENS_8equal_toIiEENS_9allocatorINS_4pairIKiiEEEEEEEEPvEEEELi0ELb0EE5__getB8ue170006Ev, symObjAddr: 0x6050, symBinAddr: 0x10000A53C, symSize: 0x14 }
  - { offsetInCU: 0x26B6A, offset: 0x30B39, size: 0x8, addend: 0x0, symName: __ZNSt3__122__compressed_pair_elemINS_25__bucket_list_deallocatorINS_9allocatorIPNS_16__hash_node_baseIPNS_11__hash_nodeINS_17__hash_value_typeIiNS_13unordered_mapIiiNS_4hashIiEENS_8equal_toIiEENS2_INS_4pairIKiiEEEEEEEEPvEEEEEEEELi1ELb0EE5__getB8ue170006Ev, symObjAddr: 0x6064, symBinAddr: 0x10000A550, symSize: 0x14 }
  - { offsetInCU: 0x26B8E, offset: 0x30B5D, size: 0x8, addend: 0x0, symName: __ZNSt3__116allocator_traitsINS_9allocatorIPNS_16__hash_node_baseIPNS_11__hash_nodeINS_17__hash_value_typeIiNS_13unordered_mapIiiNS_4hashIiEENS_8equal_toIiEENS1_INS_4pairIKiiEEEEEEEEPvEEEEEEE10deallocateB8ue170006ERSL_PSK_m, symObjAddr: 0x6078, symBinAddr: 0x10000A564, symSize: 0x34 }
  - { offsetInCU: 0x26BCF, offset: 0x30B9E, size: 0x8, addend: 0x0, symName: __ZNSt3__125__bucket_list_deallocatorINS_9allocatorIPNS_16__hash_node_baseIPNS_11__hash_nodeINS_17__hash_value_typeIiNS_13unordered_mapIiiNS_4hashIiEENS_8equal_toIiEENS1_INS_4pairIKiiEEEEEEEEPvEEEEEEE7__allocB8ue170006Ev, symObjAddr: 0x60AC, symBinAddr: 0x10000A598, symSize: 0x24 }
  - { offsetInCU: 0x26BF3, offset: 0x30BC2, size: 0x8, addend: 0x0, symName: __ZNSt3__125__bucket_list_deallocatorINS_9allocatorIPNS_16__hash_node_baseIPNS_11__hash_nodeINS_17__hash_value_typeIiNS_13unordered_mapIiiNS_4hashIiEENS_8equal_toIiEENS1_INS_4pairIKiiEEEEEEEEPvEEEEEEE4sizeB8ue170006Ev, symObjAddr: 0x60D0, symBinAddr: 0x10000A5BC, symSize: 0x24 }
  - { offsetInCU: 0x26C17, offset: 0x30BE6, size: 0x8, addend: 0x0, symName: __ZNSt3__19allocatorIPNS_16__hash_node_baseIPNS_11__hash_nodeINS_17__hash_value_typeIiNS_13unordered_mapIiiNS_4hashIiEENS_8equal_toIiEENS0_INS_4pairIKiiEEEEEEEEPvEEEEE10deallocateB8ue170006EPSJ_m, symObjAddr: 0x60F4, symBinAddr: 0x10000A5E0, symSize: 0x40 }
  - { offsetInCU: 0x26C57, offset: 0x30C26, size: 0x8, addend: 0x0, symName: __ZNSt3__117__compressed_pairImNS_9allocatorIPNS_16__hash_node_baseIPNS_11__hash_nodeINS_17__hash_value_typeIiNS_13unordered_mapIiiNS_4hashIiEENS_8equal_toIiEENS1_INS_4pairIKiiEEEEEEEEPvEEEEEEE6secondB8ue170006Ev, symObjAddr: 0x6134, symBinAddr: 0x10000A620, symSize: 0x24 }
  - { offsetInCU: 0x26C7B, offset: 0x30C4A, size: 0x8, addend: 0x0, symName: __ZNSt3__122__compressed_pair_elemINS_9allocatorIPNS_16__hash_node_baseIPNS_11__hash_nodeINS_17__hash_value_typeIiNS_13unordered_mapIiiNS_4hashIiEENS_8equal_toIiEENS1_INS_4pairIKiiEEEEEEEEPvEEEEEELi1ELb1EE5__getB8ue170006Ev, symObjAddr: 0x6158, symBinAddr: 0x10000A644, symSize: 0x14 }
  - { offsetInCU: 0x26C9F, offset: 0x30C6E, size: 0x8, addend: 0x0, symName: __ZNSt3__117__compressed_pairImNS_9allocatorIPNS_16__hash_node_baseIPNS_11__hash_nodeINS_17__hash_value_typeIiNS_13unordered_mapIiiNS_4hashIiEENS_8equal_toIiEENS1_INS_4pairIKiiEEEEEEEEPvEEEEEEE5firstB8ue170006Ev, symObjAddr: 0x616C, symBinAddr: 0x10000A658, symSize: 0x24 }
  - { offsetInCU: 0x26CC3, offset: 0x30C92, size: 0x8, addend: 0x0, symName: __ZNSt3__117__hash_value_typeIiNS_13unordered_mapIiNS1_IiiNS_4hashIiEENS_8equal_toIiEENS_9allocatorINS_4pairIKiiEEEEEES3_S5_NS6_INS7_IS8_SB_EEEEEEE11__get_valueB8ue170006Ev, symObjAddr: 0x6190, symBinAddr: 0x10000A67C, symSize: 0x14 }
  - { offsetInCU: 0x26CE7, offset: 0x30CB6, size: 0x8, addend: 0x0, symName: __ZNSt3__19allocatorINS_11__hash_nodeINS_17__hash_value_typeIiNS_13unordered_mapIiNS3_IiiNS_4hashIiEENS_8equal_toIiEENS0_INS_4pairIKiiEEEEEES5_S7_NS0_INS8_IS9_SC_EEEEEEEEPvEEE10deallocateB8ue170006EPSI_m, symObjAddr: 0x61A4, symBinAddr: 0x10000A690, symSize: 0x40 }
  - { offsetInCU: 0x26D27, offset: 0x30CF6, size: 0x8, addend: 0x0, symName: __ZNSt3__122__compressed_pair_elemINS_16__hash_node_baseIPNS_11__hash_nodeINS_17__hash_value_typeIiNS_13unordered_mapIiNS4_IiiNS_4hashIiEENS_8equal_toIiEENS_9allocatorINS_4pairIKiiEEEEEES6_S8_NS9_INSA_ISB_SE_EEEEEEEEPvEEEELi0ELb0EE5__getB8ue170006Ev, symObjAddr: 0x61E4, symBinAddr: 0x10000A6D0, symSize: 0x14 }
  - { offsetInCU: 0x26D4B, offset: 0x30D1A, size: 0x8, addend: 0x0, symName: __ZNSt3__110unique_ptrIA_PNS_16__hash_node_baseIPNS_11__hash_nodeINS_17__hash_value_typeIiNS_13unordered_mapIiNS4_IiiNS_4hashIiEENS_8equal_toIiEENS_9allocatorINS_4pairIKiiEEEEEES6_S8_NS9_INSA_ISB_SE_EEEEEEEEPvEEEENS_25__bucket_list_deallocatorINS9_ISN_EEEEED2B8ue170006Ev, symObjAddr: 0x61F8, symBinAddr: 0x10000A6E4, symSize: 0x30 }
  - { offsetInCU: 0x26D73, offset: 0x30D42, size: 0x8, addend: 0x0, symName: __ZNSt3__110unique_ptrIA_PNS_16__hash_node_baseIPNS_11__hash_nodeINS_17__hash_value_typeIiNS_13unordered_mapIiNS4_IiiNS_4hashIiEENS_8equal_toIiEENS_9allocatorINS_4pairIKiiEEEEEES6_S8_NS9_INSA_ISB_SE_EEEEEEEEPvEEEENS_25__bucket_list_deallocatorINS9_ISN_EEEEE5resetB8ue170006EDn, symObjAddr: 0x6228, symBinAddr: 0x10000A714, symSize: 0x6C }
  - { offsetInCU: 0x26DB1, offset: 0x30D80, size: 0x8, addend: 0x0, symName: __ZNSt3__117__compressed_pairIPPNS_16__hash_node_baseIPNS_11__hash_nodeINS_17__hash_value_typeIiNS_13unordered_mapIiNS4_IiiNS_4hashIiEENS_8equal_toIiEENS_9allocatorINS_4pairIKiiEEEEEES6_S8_NS9_INSA_ISB_SE_EEEEEEEEPvEEEENS_25__bucket_list_deallocatorINS9_ISN_EEEEE5firstB8ue170006Ev, symObjAddr: 0x6294, symBinAddr: 0x10000A780, symSize: 0x24 }
  - { offsetInCU: 0x26DD5, offset: 0x30DA4, size: 0x8, addend: 0x0, symName: __ZNSt3__117__compressed_pairIPPNS_16__hash_node_baseIPNS_11__hash_nodeINS_17__hash_value_typeIiNS_13unordered_mapIiNS4_IiiNS_4hashIiEENS_8equal_toIiEENS_9allocatorINS_4pairIKiiEEEEEES6_S8_NS9_INSA_ISB_SE_EEEEEEEEPvEEEENS_25__bucket_list_deallocatorINS9_ISN_EEEEE6secondB8ue170006Ev, symObjAddr: 0x62B8, symBinAddr: 0x10000A7A4, symSize: 0x28 }
  - { offsetInCU: 0x26DF9, offset: 0x30DC8, size: 0x8, addend: 0x0, symName: __ZNSt3__125__bucket_list_deallocatorINS_9allocatorIPNS_16__hash_node_baseIPNS_11__hash_nodeINS_17__hash_value_typeIiNS_13unordered_mapIiNS5_IiiNS_4hashIiEENS_8equal_toIiEENS1_INS_4pairIKiiEEEEEES7_S9_NS1_INSA_ISB_SE_EEEEEEEEPvEEEEEEEclB8ue170006EPSN_, symObjAddr: 0x62E0, symBinAddr: 0x10000A7CC, symSize: 0x58 }
  - { offsetInCU: 0x26E2C, offset: 0x30DFB, size: 0x8, addend: 0x0, symName: __ZNSt3__122__compressed_pair_elemIPPNS_16__hash_node_baseIPNS_11__hash_nodeINS_17__hash_value_typeIiNS_13unordered_mapIiNS4_IiiNS_4hashIiEENS_8equal_toIiEENS_9allocatorINS_4pairIKiiEEEEEES6_S8_NS9_INSA_ISB_SE_EEEEEEEEPvEEEELi0ELb0EE5__getB8ue170006Ev, symObjAddr: 0x6338, symBinAddr: 0x10000A824, symSize: 0x14 }
  - { offsetInCU: 0x26E50, offset: 0x30E1F, size: 0x8, addend: 0x0, symName: __ZNSt3__122__compressed_pair_elemINS_25__bucket_list_deallocatorINS_9allocatorIPNS_16__hash_node_baseIPNS_11__hash_nodeINS_17__hash_value_typeIiNS_13unordered_mapIiNS6_IiiNS_4hashIiEENS_8equal_toIiEENS2_INS_4pairIKiiEEEEEES8_SA_NS2_INSB_ISC_SF_EEEEEEEEPvEEEEEEEELi1ELb0EE5__getB8ue170006Ev, symObjAddr: 0x634C, symBinAddr: 0x10000A838, symSize: 0x14 }
  - { offsetInCU: 0x26E74, offset: 0x30E43, size: 0x8, addend: 0x0, symName: __ZNSt3__116allocator_traitsINS_9allocatorIPNS_16__hash_node_baseIPNS_11__hash_nodeINS_17__hash_value_typeIiNS_13unordered_mapIiNS5_IiiNS_4hashIiEENS_8equal_toIiEENS1_INS_4pairIKiiEEEEEES7_S9_NS1_INSA_ISB_SE_EEEEEEEEPvEEEEEEE10deallocateB8ue170006ERSO_PSN_m, symObjAddr: 0x6360, symBinAddr: 0x10000A84C, symSize: 0x34 }
  - { offsetInCU: 0x26EB5, offset: 0x30E84, size: 0x8, addend: 0x0, symName: __ZNSt3__125__bucket_list_deallocatorINS_9allocatorIPNS_16__hash_node_baseIPNS_11__hash_nodeINS_17__hash_value_typeIiNS_13unordered_mapIiNS5_IiiNS_4hashIiEENS_8equal_toIiEENS1_INS_4pairIKiiEEEEEES7_S9_NS1_INSA_ISB_SE_EEEEEEEEPvEEEEEEE7__allocB8ue170006Ev, symObjAddr: 0x6394, symBinAddr: 0x10000A880, symSize: 0x24 }
  - { offsetInCU: 0x26ED9, offset: 0x30EA8, size: 0x8, addend: 0x0, symName: __ZNSt3__125__bucket_list_deallocatorINS_9allocatorIPNS_16__hash_node_baseIPNS_11__hash_nodeINS_17__hash_value_typeIiNS_13unordered_mapIiNS5_IiiNS_4hashIiEENS_8equal_toIiEENS1_INS_4pairIKiiEEEEEES7_S9_NS1_INSA_ISB_SE_EEEEEEEEPvEEEEEEE4sizeB8ue170006Ev, symObjAddr: 0x63B8, symBinAddr: 0x10000A8A4, symSize: 0x24 }
  - { offsetInCU: 0x26EFD, offset: 0x30ECC, size: 0x8, addend: 0x0, symName: __ZNSt3__19allocatorIPNS_16__hash_node_baseIPNS_11__hash_nodeINS_17__hash_value_typeIiNS_13unordered_mapIiNS4_IiiNS_4hashIiEENS_8equal_toIiEENS0_INS_4pairIKiiEEEEEES6_S8_NS0_INS9_ISA_SD_EEEEEEEEPvEEEEE10deallocateB8ue170006EPSM_m, symObjAddr: 0x63DC, symBinAddr: 0x10000A8C8, symSize: 0x40 }
  - { offsetInCU: 0x26F3D, offset: 0x30F0C, size: 0x8, addend: 0x0, symName: __ZNSt3__117__compressed_pairImNS_9allocatorIPNS_16__hash_node_baseIPNS_11__hash_nodeINS_17__hash_value_typeIiNS_13unordered_mapIiNS5_IiiNS_4hashIiEENS_8equal_toIiEENS1_INS_4pairIKiiEEEEEES7_S9_NS1_INSA_ISB_SE_EEEEEEEEPvEEEEEEE6secondB8ue170006Ev, symObjAddr: 0x641C, symBinAddr: 0x10000A908, symSize: 0x24 }
  - { offsetInCU: 0x26F61, offset: 0x30F30, size: 0x8, addend: 0x0, symName: __ZNSt3__122__compressed_pair_elemINS_9allocatorIPNS_16__hash_node_baseIPNS_11__hash_nodeINS_17__hash_value_typeIiNS_13unordered_mapIiNS5_IiiNS_4hashIiEENS_8equal_toIiEENS1_INS_4pairIKiiEEEEEES7_S9_NS1_INSA_ISB_SE_EEEEEEEEPvEEEEEELi1ELb1EE5__getB8ue170006Ev, symObjAddr: 0x6440, symBinAddr: 0x10000A92C, symSize: 0x14 }
  - { offsetInCU: 0x26F85, offset: 0x30F54, size: 0x8, addend: 0x0, symName: __ZNSt3__117__compressed_pairImNS_9allocatorIPNS_16__hash_node_baseIPNS_11__hash_nodeINS_17__hash_value_typeIiNS_13unordered_mapIiNS5_IiiNS_4hashIiEENS_8equal_toIiEENS1_INS_4pairIKiiEEEEEES7_S9_NS1_INSA_ISB_SE_EEEEEEEEPvEEEEEEE5firstB8ue170006Ev, symObjAddr: 0x6454, symBinAddr: 0x10000A940, symSize: 0x24 }
  - { offsetInCU: 0x26FB8, offset: 0x30F87, size: 0x8, addend: 0x0, symName: __ZNSt3__112__hash_tableINS_17__hash_value_typeIiNS_13unordered_mapIiNS2_IiiNS_4hashIiEENS_8equal_toIiEENS_9allocatorINS_4pairIKiiEEEEEES4_S6_NS7_INS8_IS9_SC_EEEEEEEENS_22__unordered_map_hasherIiSG_S4_S6_Lb1EEENS_21__unordered_map_equalIiSG_S6_S4_Lb1EEENS7_ISG_EEE25__emplace_unique_key_argsIiJRKNS_21piecewise_construct_tENS_5tupleIJRS9_EEENSR_IJEEEEEENS8_INS_15__hash_iteratorIPNS_11__hash_nodeISG_PvEEEEbEERKT_DpOT0_, symObjAddr: 0x6478, symBinAddr: 0x10000A964, symSize: 0x4E8 }
  - { offsetInCU: 0x270C0, offset: 0x3108F, size: 0x8, addend: 0x0, symName: __ZNKSt3__115__hash_iteratorIPNS_11__hash_nodeINS_17__hash_value_typeIiNS_13unordered_mapIiNS3_IiiNS_4hashIiEENS_8equal_toIiEENS_9allocatorINS_4pairIKiiEEEEEES5_S7_NS8_INS9_ISA_SD_EEEEEEEEPvEEEptB8ue170006Ev, symObjAddr: 0x6990, symBinAddr: 0x10000AE4C, symSize: 0x30 }
  - { offsetInCU: 0x270E4, offset: 0x310B3, size: 0x8, addend: 0x0, symName: __ZNSt3__112__hash_tableINS_17__hash_value_typeIiNS_13unordered_mapIiNS2_IiiNS_4hashIiEENS_8equal_toIiEENS_9allocatorINS_4pairIKiiEEEEEES4_S6_NS7_INS8_IS9_SC_EEEEEEEENS_22__unordered_map_hasherIiSG_S4_S6_Lb1EEENS_21__unordered_map_equalIiSG_S6_S4_Lb1EEENS7_ISG_EEE13hash_functionB8ue170006Ev, symObjAddr: 0x69C0, symBinAddr: 0x10000AE7C, symSize: 0x28 }
  - { offsetInCU: 0x27108, offset: 0x310D7, size: 0x8, addend: 0x0, symName: __ZNKSt3__122__unordered_map_hasherIiNS_17__hash_value_typeIiNS_13unordered_mapIiNS2_IiiNS_4hashIiEENS_8equal_toIiEENS_9allocatorINS_4pairIKiiEEEEEES4_S6_NS7_INS8_IS9_SC_EEEEEEEES4_S6_Lb1EEclB8ue170006ERS9_, symObjAddr: 0x69E8, symBinAddr: 0x10000AEA4, symSize: 0x30 }
  - { offsetInCU: 0x2713B, offset: 0x3110A, size: 0x8, addend: 0x0, symName: __ZNKSt3__112__hash_tableINS_17__hash_value_typeIiNS_13unordered_mapIiNS2_IiiNS_4hashIiEENS_8equal_toIiEENS_9allocatorINS_4pairIKiiEEEEEES4_S6_NS7_INS8_IS9_SC_EEEEEEEENS_22__unordered_map_hasherIiSG_S4_S6_Lb1EEENS_21__unordered_map_equalIiSG_S6_S4_Lb1EEENS7_ISG_EEE12bucket_countB8ue170006Ev, symObjAddr: 0x6A18, symBinAddr: 0x10000AED4, symSize: 0x28 }
  - { offsetInCU: 0x2715F, offset: 0x3112E, size: 0x8, addend: 0x0, symName: __ZNKSt3__110unique_ptrIA_PNS_16__hash_node_baseIPNS_11__hash_nodeINS_17__hash_value_typeIiNS_13unordered_mapIiNS4_IiiNS_4hashIiEENS_8equal_toIiEENS_9allocatorINS_4pairIKiiEEEEEES6_S8_NS9_INSA_ISB_SE_EEEEEEEEPvEEEENS_25__bucket_list_deallocatorINS9_ISN_EEEEEixB8ue170006Em, symObjAddr: 0x6AD8, symBinAddr: 0x10000AF94, symSize: 0x34 }
  - { offsetInCU: 0x27192, offset: 0x31161, size: 0x8, addend: 0x0, symName: __ZNKSt3__116__hash_node_baseIPNS_11__hash_nodeINS_17__hash_value_typeIiNS_13unordered_mapIiNS3_IiiNS_4hashIiEENS_8equal_toIiEENS_9allocatorINS_4pairIKiiEEEEEES5_S7_NS8_INS9_ISA_SD_EEEEEEEEPvEEE6__hashB8ue170006Ev, symObjAddr: 0x6B0C, symBinAddr: 0x10000AFC8, symSize: 0x18 }
  - { offsetInCU: 0x271B6, offset: 0x31185, size: 0x8, addend: 0x0, symName: __ZNSt3__112__hash_tableINS_17__hash_value_typeIiNS_13unordered_mapIiNS2_IiiNS_4hashIiEENS_8equal_toIiEENS_9allocatorINS_4pairIKiiEEEEEES4_S6_NS7_INS8_IS9_SC_EEEEEEEENS_22__unordered_map_hasherIiSG_S4_S6_Lb1EEENS_21__unordered_map_equalIiSG_S6_S4_Lb1EEENS7_ISG_EEE6key_eqB8ue170006Ev, symObjAddr: 0x6B24, symBinAddr: 0x10000AFE0, symSize: 0x28 }
  - { offsetInCU: 0x271DA, offset: 0x311A9, size: 0x8, addend: 0x0, symName: __ZNKSt3__121__unordered_map_equalIiNS_17__hash_value_typeIiNS_13unordered_mapIiNS2_IiiNS_4hashIiEENS_8equal_toIiEENS_9allocatorINS_4pairIKiiEEEEEES4_S6_NS7_INS8_IS9_SC_EEEEEEEES6_S4_Lb1EEclB8ue170006ERKSG_RS9_, symObjAddr: 0x6B4C, symBinAddr: 0x10000B008, symSize: 0x48 }
  - { offsetInCU: 0x2721C, offset: 0x311EB, size: 0x8, addend: 0x0, symName: __ZNSt3__112__hash_tableINS_17__hash_value_typeIiNS_13unordered_mapIiNS2_IiiNS_4hashIiEENS_8equal_toIiEENS_9allocatorINS_4pairIKiiEEEEEES4_S6_NS7_INS8_IS9_SC_EEEEEEEENS_22__unordered_map_hasherIiSG_S4_S6_Lb1EEENS_21__unordered_map_equalIiSG_S6_S4_Lb1EEENS7_ISG_EEE21__construct_node_hashIRKNS_21piecewise_construct_tEJNS_5tupleIJRS9_EEENSR_IJEEEEEENS_10unique_ptrINS_11__hash_nodeISG_PvEENS_22__hash_node_destructorINS7_ISY_EEEEEEmOT_DpOT0_, symObjAddr: 0x6B94, symBinAddr: 0x10000B050, symSize: 0x150 }
  - { offsetInCU: 0x272B6, offset: 0x31285, size: 0x8, addend: 0x0, symName: __ZNSt3__112__hash_tableINS_17__hash_value_typeIiNS_13unordered_mapIiNS2_IiiNS_4hashIiEENS_8equal_toIiEENS_9allocatorINS_4pairIKiiEEEEEES4_S6_NS7_INS8_IS9_SC_EEEEEEEENS_22__unordered_map_hasherIiSG_S4_S6_Lb1EEENS_21__unordered_map_equalIiSG_S6_S4_Lb1EEENS7_ISG_EEE4sizeB8ue170006Ev, symObjAddr: 0x6CE4, symBinAddr: 0x10000B1A0, symSize: 0x28 }
  - { offsetInCU: 0x272DA, offset: 0x312A9, size: 0x8, addend: 0x0, symName: __ZNSt3__112__hash_tableINS_17__hash_value_typeIiNS_13unordered_mapIiNS2_IiiNS_4hashIiEENS_8equal_toIiEENS_9allocatorINS_4pairIKiiEEEEEES4_S6_NS7_INS8_IS9_SC_EEEEEEEENS_22__unordered_map_hasherIiSG_S4_S6_Lb1EEENS_21__unordered_map_equalIiSG_S6_S4_Lb1EEENS7_ISG_EEE15max_load_factorB8ue170006Ev, symObjAddr: 0x6D0C, symBinAddr: 0x10000B1C8, symSize: 0x28 }
  - { offsetInCU: 0x272FE, offset: 0x312CD, size: 0x8, addend: 0x0, symName: __ZNSt3__112__hash_tableINS_17__hash_value_typeIiNS_13unordered_mapIiNS2_IiiNS_4hashIiEENS_8equal_toIiEENS_9allocatorINS_4pairIKiiEEEEEES4_S6_NS7_INS8_IS9_SC_EEEEEEEENS_22__unordered_map_hasherIiSG_S4_S6_Lb1EEENS_21__unordered_map_equalIiSG_S6_S4_Lb1EEENS7_ISG_EEE15__rehash_uniqueB8ue170006Em, symObjAddr: 0x6D34, symBinAddr: 0x10000B1F0, symSize: 0x2C }
  - { offsetInCU: 0x27330, offset: 0x312FF, size: 0x8, addend: 0x0, symName: __Z4ceilB8ue170006f, symObjAddr: 0x6DDC, symBinAddr: 0x10000B298, symSize: 0x18 }
  - { offsetInCU: 0x2735F, offset: 0x3132E, size: 0x8, addend: 0x0, symName: __ZNSt3__116__hash_node_baseIPNS_11__hash_nodeINS_17__hash_value_typeIiNS_13unordered_mapIiNS3_IiiNS_4hashIiEENS_8equal_toIiEENS_9allocatorINS_4pairIKiiEEEEEES5_S7_NS8_INS9_ISA_SD_EEEEEEEEPvEEE5__ptrB8ue170006Ev, symObjAddr: 0x6DF4, symBinAddr: 0x10000B2B0, symSize: 0x24 }
  - { offsetInCU: 0x27383, offset: 0x31352, size: 0x8, addend: 0x0, symName: __ZNKSt3__110unique_ptrINS_11__hash_nodeINS_17__hash_value_typeIiNS_13unordered_mapIiNS3_IiiNS_4hashIiEENS_8equal_toIiEENS_9allocatorINS_4pairIKiiEEEEEES5_S7_NS8_INS9_ISA_SD_EEEEEEEEPvEENS_22__hash_node_destructorINS8_ISJ_EEEEEptB8ue170006Ev, symObjAddr: 0x6E18, symBinAddr: 0x10000B2D4, symSize: 0x28 }
  - { offsetInCU: 0x273A7, offset: 0x31376, size: 0x8, addend: 0x0, symName: __ZNKSt3__110unique_ptrINS_11__hash_nodeINS_17__hash_value_typeIiNS_13unordered_mapIiNS3_IiiNS_4hashIiEENS_8equal_toIiEENS_9allocatorINS_4pairIKiiEEEEEES5_S7_NS8_INS9_ISA_SD_EEEEEEEEPvEENS_22__hash_node_destructorINS8_ISJ_EEEEE3getB8ue170006Ev, symObjAddr: 0x6E40, symBinAddr: 0x10000B2FC, symSize: 0x28 }
  - { offsetInCU: 0x273CB, offset: 0x3139A, size: 0x8, addend: 0x0, symName: __ZNSt3__110unique_ptrINS_11__hash_nodeINS_17__hash_value_typeIiNS_13unordered_mapIiNS3_IiiNS_4hashIiEENS_8equal_toIiEENS_9allocatorINS_4pairIKiiEEEEEES5_S7_NS8_INS9_ISA_SD_EEEEEEEEPvEENS_22__hash_node_destructorINS8_ISJ_EEEEE7releaseB8ue170006Ev, symObjAddr: 0x6E68, symBinAddr: 0x10000B324, symSize: 0x44 }
  - { offsetInCU: 0x273FE, offset: 0x313CD, size: 0x8, addend: 0x0, symName: __ZNSt3__110unique_ptrINS_11__hash_nodeINS_17__hash_value_typeIiNS_13unordered_mapIiNS3_IiiNS_4hashIiEENS_8equal_toIiEENS_9allocatorINS_4pairIKiiEEEEEES5_S7_NS8_INS9_ISA_SD_EEEEEEEEPvEENS_22__hash_node_destructorINS8_ISJ_EEEEED1B8ue170006Ev, symObjAddr: 0x6EAC, symBinAddr: 0x10000B368, symSize: 0x2C }
  - { offsetInCU: 0x27426, offset: 0x313F5, size: 0x8, addend: 0x0, symName: __ZNSt3__115__hash_iteratorIPNS_11__hash_nodeINS_17__hash_value_typeIiNS_13unordered_mapIiNS3_IiiNS_4hashIiEENS_8equal_toIiEENS_9allocatorINS_4pairIKiiEEEEEES5_S7_NS8_INS9_ISA_SD_EEEEEEEEPvEEEC1B8ue170006EPNS_16__hash_node_baseISK_EE, symObjAddr: 0x6ED8, symBinAddr: 0x10000B394, symSize: 0x34 }
  - { offsetInCU: 0x27467, offset: 0x31436, size: 0x8, addend: 0x0, symName: __ZNSt3__14pairINS_15__hash_iteratorIPNS_11__hash_nodeINS_17__hash_value_typeIiNS_13unordered_mapIiNS4_IiiNS_4hashIiEENS_8equal_toIiEENS_9allocatorINS0_IKiiEEEEEES6_S8_NS9_INS0_ISA_SD_EEEEEEEEPvEEEEbEC1B8ue170006ISL_RbLSI_0EEEOT_OT0_, symObjAddr: 0x6F0C, symBinAddr: 0x10000B3C8, symSize: 0x3C }
  - { offsetInCU: 0x274C3, offset: 0x31492, size: 0x8, addend: 0x0, symName: __ZNSt3__117__compressed_pairImNS_22__unordered_map_hasherIiNS_17__hash_value_typeIiNS_13unordered_mapIiNS3_IiiNS_4hashIiEENS_8equal_toIiEENS_9allocatorINS_4pairIKiiEEEEEES5_S7_NS8_INS9_ISA_SD_EEEEEEEES5_S7_Lb1EEEE6secondB8ue170006Ev, symObjAddr: 0x6F48, symBinAddr: 0x10000B404, symSize: 0x24 }
  - { offsetInCU: 0x274E7, offset: 0x314B6, size: 0x8, addend: 0x0, symName: __ZNSt3__122__compressed_pair_elemINS_22__unordered_map_hasherIiNS_17__hash_value_typeIiNS_13unordered_mapIiNS3_IiiNS_4hashIiEENS_8equal_toIiEENS_9allocatorINS_4pairIKiiEEEEEES5_S7_NS8_INS9_ISA_SD_EEEEEEEES5_S7_Lb1EEELi1ELb1EE5__getB8ue170006Ev, symObjAddr: 0x6F6C, symBinAddr: 0x10000B428, symSize: 0x14 }
  - { offsetInCU: 0x2750B, offset: 0x314DA, size: 0x8, addend: 0x0, symName: __ZNKSt3__14hashIiEclB8ue170006Ei, symObjAddr: 0x6F80, symBinAddr: 0x10000B43C, symSize: 0x18 }
  - { offsetInCU: 0x2753E, offset: 0x3150D, size: 0x8, addend: 0x0, symName: __ZNKSt3__110unique_ptrIA_PNS_16__hash_node_baseIPNS_11__hash_nodeINS_17__hash_value_typeIiNS_13unordered_mapIiNS4_IiiNS_4hashIiEENS_8equal_toIiEENS_9allocatorINS_4pairIKiiEEEEEES6_S8_NS9_INSA_ISB_SE_EEEEEEEEPvEEEENS_25__bucket_list_deallocatorINS9_ISN_EEEEE11get_deleterB8ue170006Ev, symObjAddr: 0x6F98, symBinAddr: 0x10000B454, symSize: 0x24 }
  - { offsetInCU: 0x27562, offset: 0x31531, size: 0x8, addend: 0x0, symName: __ZNKSt3__125__bucket_list_deallocatorINS_9allocatorIPNS_16__hash_node_baseIPNS_11__hash_nodeINS_17__hash_value_typeIiNS_13unordered_mapIiNS5_IiiNS_4hashIiEENS_8equal_toIiEENS1_INS_4pairIKiiEEEEEES7_S9_NS1_INSA_ISB_SE_EEEEEEEEPvEEEEEEE4sizeB8ue170006Ev, symObjAddr: 0x6FBC, symBinAddr: 0x10000B478, symSize: 0x28 }
  - { offsetInCU: 0x27586, offset: 0x31555, size: 0x8, addend: 0x0, symName: __ZNKSt3__117__compressed_pairIPPNS_16__hash_node_baseIPNS_11__hash_nodeINS_17__hash_value_typeIiNS_13unordered_mapIiNS4_IiiNS_4hashIiEENS_8equal_toIiEENS_9allocatorINS_4pairIKiiEEEEEES6_S8_NS9_INSA_ISB_SE_EEEEEEEEPvEEEENS_25__bucket_list_deallocatorINS9_ISN_EEEEE6secondB8ue170006Ev, symObjAddr: 0x6FE4, symBinAddr: 0x10000B4A0, symSize: 0x28 }
  - { offsetInCU: 0x275AA, offset: 0x31579, size: 0x8, addend: 0x0, symName: __ZNKSt3__122__compressed_pair_elemINS_25__bucket_list_deallocatorINS_9allocatorIPNS_16__hash_node_baseIPNS_11__hash_nodeINS_17__hash_value_typeIiNS_13unordered_mapIiNS6_IiiNS_4hashIiEENS_8equal_toIiEENS2_INS_4pairIKiiEEEEEES8_SA_NS2_INSB_ISC_SF_EEEEEEEEPvEEEEEEEELi1ELb0EE5__getB8ue170006Ev, symObjAddr: 0x700C, symBinAddr: 0x10000B4C8, symSize: 0x14 }
  - { offsetInCU: 0x275CE, offset: 0x3159D, size: 0x8, addend: 0x0, symName: __ZNKSt3__117__compressed_pairImNS_9allocatorIPNS_16__hash_node_baseIPNS_11__hash_nodeINS_17__hash_value_typeIiNS_13unordered_mapIiNS5_IiiNS_4hashIiEENS_8equal_toIiEENS1_INS_4pairIKiiEEEEEES7_S9_NS1_INSA_ISB_SE_EEEEEEEEPvEEEEEEE5firstB8ue170006Ev, symObjAddr: 0x7020, symBinAddr: 0x10000B4DC, symSize: 0x24 }
  - { offsetInCU: 0x275F2, offset: 0x315C1, size: 0x8, addend: 0x0, symName: __ZNKSt3__117__compressed_pairIPPNS_16__hash_node_baseIPNS_11__hash_nodeINS_17__hash_value_typeIiNS_13unordered_mapIiNS4_IiiNS_4hashIiEENS_8equal_toIiEENS_9allocatorINS_4pairIKiiEEEEEES6_S8_NS9_INSA_ISB_SE_EEEEEEEEPvEEEENS_25__bucket_list_deallocatorINS9_ISN_EEEEE5firstB8ue170006Ev, symObjAddr: 0x7044, symBinAddr: 0x10000B500, symSize: 0x24 }
  - { offsetInCU: 0x27616, offset: 0x315E5, size: 0x8, addend: 0x0, symName: __ZNKSt3__122__compressed_pair_elemIPPNS_16__hash_node_baseIPNS_11__hash_nodeINS_17__hash_value_typeIiNS_13unordered_mapIiNS4_IiiNS_4hashIiEENS_8equal_toIiEENS_9allocatorINS_4pairIKiiEEEEEES6_S8_NS9_INSA_ISB_SE_EEEEEEEEPvEEEELi0ELb0EE5__getB8ue170006Ev, symObjAddr: 0x7068, symBinAddr: 0x10000B524, symSize: 0x14 }
  - { offsetInCU: 0x2763A, offset: 0x31609, size: 0x8, addend: 0x0, symName: __ZNSt3__117__compressed_pairIfNS_21__unordered_map_equalIiNS_17__hash_value_typeIiNS_13unordered_mapIiNS3_IiiNS_4hashIiEENS_8equal_toIiEENS_9allocatorINS_4pairIKiiEEEEEES5_S7_NS8_INS9_ISA_SD_EEEEEEEES7_S5_Lb1EEEE6secondB8ue170006Ev, symObjAddr: 0x707C, symBinAddr: 0x10000B538, symSize: 0x24 }
  - { offsetInCU: 0x2765E, offset: 0x3162D, size: 0x8, addend: 0x0, symName: __ZNSt3__122__compressed_pair_elemINS_21__unordered_map_equalIiNS_17__hash_value_typeIiNS_13unordered_mapIiNS3_IiiNS_4hashIiEENS_8equal_toIiEENS_9allocatorINS_4pairIKiiEEEEEES5_S7_NS8_INS9_ISA_SD_EEEEEEEES7_S5_Lb1EEELi1ELb1EE5__getB8ue170006Ev, symObjAddr: 0x70A0, symBinAddr: 0x10000B55C, symSize: 0x14 }
  - { offsetInCU: 0x27682, offset: 0x31651, size: 0x8, addend: 0x0, symName: __ZNKSt3__18equal_toIiEclB8ue170006ERKiS3_, symObjAddr: 0x70B4, symBinAddr: 0x10000B570, symSize: 0x34 }
  - { offsetInCU: 0x276C4, offset: 0x31693, size: 0x8, addend: 0x0, symName: __ZNKSt3__117__hash_value_typeIiNS_13unordered_mapIiNS1_IiiNS_4hashIiEENS_8equal_toIiEENS_9allocatorINS_4pairIKiiEEEEEES3_S5_NS6_INS7_IS8_SB_EEEEEEE11__get_valueB8ue170006Ev, symObjAddr: 0x70E8, symBinAddr: 0x10000B5A4, symSize: 0x14 }
  - { offsetInCU: 0x276E8, offset: 0x316B7, size: 0x8, addend: 0x0, symName: __ZNSt3__116allocator_traitsINS_9allocatorINS_11__hash_nodeINS_17__hash_value_typeIiNS_13unordered_mapIiNS4_IiiNS_4hashIiEENS_8equal_toIiEENS1_INS_4pairIKiiEEEEEES6_S8_NS1_INS9_ISA_SD_EEEEEEEEPvEEEEE8allocateB8ue170006ERSK_m, symObjAddr: 0x70FC, symBinAddr: 0x10000B5B8, symSize: 0x2C }
  - { offsetInCU: 0x2771A, offset: 0x316E9, size: 0x8, addend: 0x0, symName: __ZNSt3__122__hash_node_destructorINS_9allocatorINS_11__hash_nodeINS_17__hash_value_typeIiNS_13unordered_mapIiNS4_IiiNS_4hashIiEENS_8equal_toIiEENS1_INS_4pairIKiiEEEEEES6_S8_NS1_INS9_ISA_SD_EEEEEEEEPvEEEEEC1B8ue170006ERSK_b, symObjAddr: 0x7128, symBinAddr: 0x10000B5E4, symSize: 0x48 }
  - { offsetInCU: 0x27765, offset: 0x31734, size: 0x8, addend: 0x0, symName: __ZNSt3__110unique_ptrINS_11__hash_nodeINS_17__hash_value_typeIiNS_13unordered_mapIiNS3_IiiNS_4hashIiEENS_8equal_toIiEENS_9allocatorINS_4pairIKiiEEEEEES5_S7_NS8_INS9_ISA_SD_EEEEEEEEPvEENS_22__hash_node_destructorINS8_ISJ_EEEEEC1B8ue170006ILb1EvEEPSJ_NS_16__dependent_typeINS_27__unique_ptr_deleter_sfinaeISM_EEXT_EE20__good_rval_ref_typeE, symObjAddr: 0x7170, symBinAddr: 0x10000B62C, symSize: 0x3C }
  - { offsetInCU: 0x277B4, offset: 0x31783, size: 0x8, addend: 0x0, symName: __ZNSt3__116allocator_traitsINS_9allocatorINS_11__hash_nodeINS_17__hash_value_typeIiNS_13unordered_mapIiNS4_IiiNS_4hashIiEENS_8equal_toIiEENS1_INS_4pairIKiiEEEEEES6_S8_NS1_INS9_ISA_SD_EEEEEEEEPvEEEEE9constructB8ue170006INS9_ISA_SG_EEJRKNS_21piecewise_construct_tENS_5tupleIJRSA_EEENSR_IJEEEEvEEvRSK_PT_DpOT0_, symObjAddr: 0x71AC, symBinAddr: 0x10000B668, symSize: 0x44 }
  - { offsetInCU: 0x27832, offset: 0x31801, size: 0x8, addend: 0x0, symName: __ZNSt3__110unique_ptrINS_11__hash_nodeINS_17__hash_value_typeIiNS_13unordered_mapIiNS3_IiiNS_4hashIiEENS_8equal_toIiEENS_9allocatorINS_4pairIKiiEEEEEES5_S7_NS8_INS9_ISA_SD_EEEEEEEEPvEENS_22__hash_node_destructorINS8_ISJ_EEEEE11get_deleterB8ue170006Ev, symObjAddr: 0x71F0, symBinAddr: 0x10000B6AC, symSize: 0x24 }
  - { offsetInCU: 0x27856, offset: 0x31825, size: 0x8, addend: 0x0, symName: __ZNSt3__19allocatorINS_11__hash_nodeINS_17__hash_value_typeIiNS_13unordered_mapIiNS3_IiiNS_4hashIiEENS_8equal_toIiEENS0_INS_4pairIKiiEEEEEES5_S7_NS0_INS8_IS9_SC_EEEEEEEEPvEEE8allocateB8ue170006Em, symObjAddr: 0x7214, symBinAddr: 0x10000B6D0, symSize: 0x58 }
  - { offsetInCU: 0x27892, offset: 0x31861, size: 0x8, addend: 0x0, symName: __ZNSt3__116allocator_traitsINS_9allocatorINS_11__hash_nodeINS_17__hash_value_typeIiNS_13unordered_mapIiNS4_IiiNS_4hashIiEENS_8equal_toIiEENS1_INS_4pairIKiiEEEEEES6_S8_NS1_INS9_ISA_SD_EEEEEEEEPvEEEEE8max_sizeB8ue170006ISK_vEEmRKSK_, symObjAddr: 0x726C, symBinAddr: 0x10000B728, symSize: 0x24 }
  - { offsetInCU: 0x278BF, offset: 0x3188E, size: 0x8, addend: 0x0, symName: __ZNKSt3__19allocatorINS_11__hash_nodeINS_17__hash_value_typeIiNS_13unordered_mapIiNS3_IiiNS_4hashIiEENS_8equal_toIiEENS0_INS_4pairIKiiEEEEEES5_S7_NS0_INS8_IS9_SC_EEEEEEEEPvEEE8max_sizeB8ue170006Ev, symObjAddr: 0x72EC, symBinAddr: 0x10000B74C, symSize: 0x14 }
  - { offsetInCU: 0x278E3, offset: 0x318B2, size: 0x8, addend: 0x0, symName: __ZNSt3__122__hash_node_destructorINS_9allocatorINS_11__hash_nodeINS_17__hash_value_typeIiNS_13unordered_mapIiNS4_IiiNS_4hashIiEENS_8equal_toIiEENS1_INS_4pairIKiiEEEEEES6_S8_NS1_INS9_ISA_SD_EEEEEEEEPvEEEEEC2B8ue170006ERSK_b, symObjAddr: 0x7324, symBinAddr: 0x10000B760, symSize: 0x38 }
  - { offsetInCU: 0x27929, offset: 0x318F8, size: 0x8, addend: 0x0, symName: __ZNSt3__110unique_ptrINS_11__hash_nodeINS_17__hash_value_typeIiNS_13unordered_mapIiNS3_IiiNS_4hashIiEENS_8equal_toIiEENS_9allocatorINS_4pairIKiiEEEEEES5_S7_NS8_INS9_ISA_SD_EEEEEEEEPvEENS_22__hash_node_destructorINS8_ISJ_EEEEEC2B8ue170006ILb1EvEEPSJ_NS_16__dependent_typeINS_27__unique_ptr_deleter_sfinaeISM_EEXT_EE20__good_rval_ref_typeE, symObjAddr: 0x735C, symBinAddr: 0x10000B798, symSize: 0x48 }
  - { offsetInCU: 0x27978, offset: 0x31947, size: 0x8, addend: 0x0, symName: __ZNSt3__117__compressed_pairIPNS_11__hash_nodeINS_17__hash_value_typeIiNS_13unordered_mapIiNS3_IiiNS_4hashIiEENS_8equal_toIiEENS_9allocatorINS_4pairIKiiEEEEEES5_S7_NS8_INS9_ISA_SD_EEEEEEEEPvEENS_22__hash_node_destructorINS8_ISJ_EEEEEC1B8ue170006IRSK_SN_EEOT_OT0_, symObjAddr: 0x73A4, symBinAddr: 0x10000B7E0, symSize: 0x3C }
  - { offsetInCU: 0x279CE, offset: 0x3199D, size: 0x8, addend: 0x0, symName: __ZNSt3__117__compressed_pairIPNS_11__hash_nodeINS_17__hash_value_typeIiNS_13unordered_mapIiNS3_IiiNS_4hashIiEENS_8equal_toIiEENS_9allocatorINS_4pairIKiiEEEEEES5_S7_NS8_INS9_ISA_SD_EEEEEEEEPvEENS_22__hash_node_destructorINS8_ISJ_EEEEEC2B8ue170006IRSK_SN_EEOT_OT0_, symObjAddr: 0x73E0, symBinAddr: 0x10000B81C, symSize: 0x48 }
  - { offsetInCU: 0x27A24, offset: 0x319F3, size: 0x8, addend: 0x0, symName: __ZNSt3__122__compressed_pair_elemIPNS_11__hash_nodeINS_17__hash_value_typeIiNS_13unordered_mapIiNS3_IiiNS_4hashIiEENS_8equal_toIiEENS_9allocatorINS_4pairIKiiEEEEEES5_S7_NS8_INS9_ISA_SD_EEEEEEEEPvEELi0ELb0EEC2B8ue170006IRSK_vEEOT_, symObjAddr: 0x7428, symBinAddr: 0x10000B864, symSize: 0x24 }
  - { offsetInCU: 0x27A64, offset: 0x31A33, size: 0x8, addend: 0x0, symName: __ZNSt3__122__compressed_pair_elemINS_22__hash_node_destructorINS_9allocatorINS_11__hash_nodeINS_17__hash_value_typeIiNS_13unordered_mapIiNS5_IiiNS_4hashIiEENS_8equal_toIiEENS2_INS_4pairIKiiEEEEEES7_S9_NS2_INSA_ISB_SE_EEEEEEEEPvEEEEEELi1ELb0EEC2B8ue170006ISM_vEEOT_, symObjAddr: 0x744C, symBinAddr: 0x10000B888, symSize: 0x24 }
  - { offsetInCU: 0x27AA4, offset: 0x31A73, size: 0x8, addend: 0x0, symName: __ZNSt3__19allocatorINS_11__hash_nodeINS_17__hash_value_typeIiNS_13unordered_mapIiNS3_IiiNS_4hashIiEENS_8equal_toIiEENS0_INS_4pairIKiiEEEEEES5_S7_NS0_INS8_IS9_SC_EEEEEEEEPvEEE9constructB8ue170006INS8_IS9_SF_EEJRKNS_21piecewise_construct_tENS_5tupleIJRS9_EEENSP_IJEEEEEEvPT_DpOT0_, symObjAddr: 0x7470, symBinAddr: 0x10000B8AC, symSize: 0x44 }
  - { offsetInCU: 0x27B1E, offset: 0x31AED, size: 0x8, addend: 0x0, symName: __ZNSt3__14pairIKiNS_13unordered_mapIiNS2_IiiNS_4hashIiEENS_8equal_toIiEENS_9allocatorINS0_IS1_iEEEEEES4_S6_NS7_INS0_IS1_SA_EEEEEEEC1B8ue170006IJRS1_EJEEENS_21piecewise_construct_tENS_5tupleIJDpT_EEENSI_IJDpT0_EEE, symObjAddr: 0x74B4, symBinAddr: 0x10000B8F0, symSize: 0x44 }
  - { offsetInCU: 0x27B83, offset: 0x31B52, size: 0x8, addend: 0x0, symName: __ZNSt3__14pairIKiNS_13unordered_mapIiNS2_IiiNS_4hashIiEENS_8equal_toIiEENS_9allocatorINS0_IS1_iEEEEEES4_S6_NS7_INS0_IS1_SA_EEEEEEEC1B8ue170006IJRS1_EJEJLm0EEJEEENS_21piecewise_construct_tERNS_5tupleIJDpT_EEERNSI_IJDpT0_EEENS_15__tuple_indicesIJXspT1_EEEENSR_IJXspT2_EEEE, symObjAddr: 0x74F8, symBinAddr: 0x10000B934, symSize: 0x3C }
  - { offsetInCU: 0x27C0E, offset: 0x31BDD, size: 0x8, addend: 0x0, symName: __ZNSt3__14pairIKiNS_13unordered_mapIiNS2_IiiNS_4hashIiEENS_8equal_toIiEENS_9allocatorINS0_IS1_iEEEEEES4_S6_NS7_INS0_IS1_SA_EEEEEEEC2B8ue170006IJRS1_EJEJLm0EEJEEENS_21piecewise_construct_tERNS_5tupleIJDpT_EEERNSI_IJDpT0_EEENS_15__tuple_indicesIJXspT1_EEEENSR_IJXspT2_EEEE, symObjAddr: 0x7534, symBinAddr: 0x10000B970, symSize: 0x4C }
  - { offsetInCU: 0x27C99, offset: 0x31C68, size: 0x8, addend: 0x0, symName: __ZNSt3__113unordered_mapIiNS0_IiiNS_4hashIiEENS_8equal_toIiEENS_9allocatorINS_4pairIKiiEEEEEES2_S4_NS5_INS6_IS7_SA_EEEEEC1B8ue170006Ev, symObjAddr: 0x75A4, symBinAddr: 0x10000B9BC, symSize: 0x2C }
  - { offsetInCU: 0x27CC1, offset: 0x31C90, size: 0x8, addend: 0x0, symName: __ZNSt3__113unordered_mapIiNS0_IiiNS_4hashIiEENS_8equal_toIiEENS_9allocatorINS_4pairIKiiEEEEEES2_S4_NS5_INS6_IS7_SA_EEEEEC2B8ue170006Ev, symObjAddr: 0x75E8, symBinAddr: 0x10000B9E8, symSize: 0x2C }
  - { offsetInCU: 0x27CE9, offset: 0x31CB8, size: 0x8, addend: 0x0, symName: __ZNSt3__112__hash_tableINS_17__hash_value_typeIiNS_13unordered_mapIiiNS_4hashIiEENS_8equal_toIiEENS_9allocatorINS_4pairIKiiEEEEEEEENS_22__unordered_map_hasherIiSD_S4_S6_Lb1EEENS_21__unordered_map_equalIiSD_S6_S4_Lb1EEENS7_ISD_EEEC1Ev, symObjAddr: 0x7614, symBinAddr: 0x10000BA14, symSize: 0x2C }
  - { offsetInCU: 0x27D13, offset: 0x31CE2, size: 0x8, addend: 0x0, symName: __ZNSt3__112__hash_tableINS_17__hash_value_typeIiNS_13unordered_mapIiiNS_4hashIiEENS_8equal_toIiEENS_9allocatorINS_4pairIKiiEEEEEEEENS_22__unordered_map_hasherIiSD_S4_S6_Lb1EEENS_21__unordered_map_equalIiSD_S6_S4_Lb1EEENS7_ISD_EEEC2Ev, symObjAddr: 0x7640, symBinAddr: 0x10000BA40, symSize: 0x7C }
  - { offsetInCU: 0x27D3D, offset: 0x31D0C, size: 0x8, addend: 0x0, symName: __ZNSt3__110unique_ptrIA_PNS_16__hash_node_baseIPNS_11__hash_nodeINS_17__hash_value_typeIiNS_13unordered_mapIiiNS_4hashIiEENS_8equal_toIiEENS_9allocatorINS_4pairIKiiEEEEEEEEPvEEEENS_25__bucket_list_deallocatorINS9_ISK_EEEEEC1B8ue170006ILb1EvEEv, symObjAddr: 0x76BC, symBinAddr: 0x10000BABC, symSize: 0x2C }
  - { offsetInCU: 0x27D70, offset: 0x31D3F, size: 0x8, addend: 0x0, symName: __ZNSt3__117__compressed_pairINS_16__hash_node_baseIPNS_11__hash_nodeINS_17__hash_value_typeIiNS_13unordered_mapIiiNS_4hashIiEENS_8equal_toIiEENS_9allocatorINS_4pairIKiiEEEEEEEEPvEEEENS9_ISH_EEEC1B8ue170006ILb1EvEEv, symObjAddr: 0x76E8, symBinAddr: 0x10000BAE8, symSize: 0x2C }
  - { offsetInCU: 0x27DA3, offset: 0x31D72, size: 0x8, addend: 0x0, symName: __ZNSt3__117__compressed_pairImNS_22__unordered_map_hasherIiNS_17__hash_value_typeIiNS_13unordered_mapIiiNS_4hashIiEENS_8equal_toIiEENS_9allocatorINS_4pairIKiiEEEEEEEES5_S7_Lb1EEEEC1B8ue170006IiNS_18__default_init_tagEEEOT_OT0_, symObjAddr: 0x7714, symBinAddr: 0x10000BB14, symSize: 0x3C }
  - { offsetInCU: 0x27DF9, offset: 0x31DC8, size: 0x8, addend: 0x0, symName: __ZNSt3__117__compressed_pairIfNS_21__unordered_map_equalIiNS_17__hash_value_typeIiNS_13unordered_mapIiiNS_4hashIiEENS_8equal_toIiEENS_9allocatorINS_4pairIKiiEEEEEEEES7_S5_Lb1EEEEC1B8ue170006IfNS_18__default_init_tagEEEOT_OT0_, symObjAddr: 0x7750, symBinAddr: 0x10000BB50, symSize: 0x3C }
  - { offsetInCU: 0x27E4F, offset: 0x31E1E, size: 0x8, addend: 0x0, symName: __ZNSt3__110unique_ptrIA_PNS_16__hash_node_baseIPNS_11__hash_nodeINS_17__hash_value_typeIiNS_13unordered_mapIiiNS_4hashIiEENS_8equal_toIiEENS_9allocatorINS_4pairIKiiEEEEEEEEPvEEEENS_25__bucket_list_deallocatorINS9_ISK_EEEEEC2B8ue170006ILb1EvEEv, symObjAddr: 0x778C, symBinAddr: 0x10000BB8C, symSize: 0x3C }
  - { offsetInCU: 0x27E82, offset: 0x31E51, size: 0x8, addend: 0x0, symName: __ZNSt3__117__compressed_pairIPPNS_16__hash_node_baseIPNS_11__hash_nodeINS_17__hash_value_typeIiNS_13unordered_mapIiiNS_4hashIiEENS_8equal_toIiEENS_9allocatorINS_4pairIKiiEEEEEEEEPvEEEENS_25__bucket_list_deallocatorINS9_ISK_EEEEEC1B8ue170006INS_16__value_init_tagESR_EEOT_OT0_, symObjAddr: 0x77C8, symBinAddr: 0x10000BBC8, symSize: 0x3C }
  - { offsetInCU: 0x27ED8, offset: 0x31EA7, size: 0x8, addend: 0x0, symName: __ZNSt3__117__compressed_pairIPPNS_16__hash_node_baseIPNS_11__hash_nodeINS_17__hash_value_typeIiNS_13unordered_mapIiiNS_4hashIiEENS_8equal_toIiEENS_9allocatorINS_4pairIKiiEEEEEEEEPvEEEENS_25__bucket_list_deallocatorINS9_ISK_EEEEEC2B8ue170006INS_16__value_init_tagESR_EEOT_OT0_, symObjAddr: 0x7804, symBinAddr: 0x10000BC04, symSize: 0x40 }
  - { offsetInCU: 0x27F2E, offset: 0x31EFD, size: 0x8, addend: 0x0, symName: __ZNSt3__122__compressed_pair_elemIPPNS_16__hash_node_baseIPNS_11__hash_nodeINS_17__hash_value_typeIiNS_13unordered_mapIiiNS_4hashIiEENS_8equal_toIiEENS_9allocatorINS_4pairIKiiEEEEEEEEPvEEEELi0ELb0EEC2B8ue170006ENS_16__value_init_tagE, symObjAddr: 0x7844, symBinAddr: 0x10000BC44, symSize: 0x18 }
  - { offsetInCU: 0x27F60, offset: 0x31F2F, size: 0x8, addend: 0x0, symName: __ZNSt3__122__compressed_pair_elemINS_25__bucket_list_deallocatorINS_9allocatorIPNS_16__hash_node_baseIPNS_11__hash_nodeINS_17__hash_value_typeIiNS_13unordered_mapIiiNS_4hashIiEENS_8equal_toIiEENS2_INS_4pairIKiiEEEEEEEEPvEEEEEEEELi1ELb0EEC2B8ue170006ENS_16__value_init_tagE, symObjAddr: 0x785C, symBinAddr: 0x10000BC5C, symSize: 0x2C }
  - { offsetInCU: 0x27F92, offset: 0x31F61, size: 0x8, addend: 0x0, symName: __ZNSt3__125__bucket_list_deallocatorINS_9allocatorIPNS_16__hash_node_baseIPNS_11__hash_nodeINS_17__hash_value_typeIiNS_13unordered_mapIiiNS_4hashIiEENS_8equal_toIiEENS1_INS_4pairIKiiEEEEEEEEPvEEEEEEEC1B8ue170006Ev, symObjAddr: 0x7888, symBinAddr: 0x10000BC88, symSize: 0x2C }
  - { offsetInCU: 0x27FBA, offset: 0x31F89, size: 0x8, addend: 0x0, symName: __ZNSt3__125__bucket_list_deallocatorINS_9allocatorIPNS_16__hash_node_baseIPNS_11__hash_nodeINS_17__hash_value_typeIiNS_13unordered_mapIiiNS_4hashIiEENS_8equal_toIiEENS1_INS_4pairIKiiEEEEEEEEPvEEEEEEEC2B8ue170006Ev, symObjAddr: 0x78B4, symBinAddr: 0x10000BCB4, symSize: 0x40 }
  - { offsetInCU: 0x27FE2, offset: 0x31FB1, size: 0x8, addend: 0x0, symName: __ZNSt3__117__compressed_pairImNS_9allocatorIPNS_16__hash_node_baseIPNS_11__hash_nodeINS_17__hash_value_typeIiNS_13unordered_mapIiiNS_4hashIiEENS_8equal_toIiEENS1_INS_4pairIKiiEEEEEEEEPvEEEEEEEC1B8ue170006IiNS_18__default_init_tagEEEOT_OT0_, symObjAddr: 0x78F4, symBinAddr: 0x10000BCF4, symSize: 0x3C }
  - { offsetInCU: 0x28038, offset: 0x32007, size: 0x8, addend: 0x0, symName: __ZNSt3__117__compressed_pairImNS_9allocatorIPNS_16__hash_node_baseIPNS_11__hash_nodeINS_17__hash_value_typeIiNS_13unordered_mapIiiNS_4hashIiEENS_8equal_toIiEENS1_INS_4pairIKiiEEEEEEEEPvEEEEEEEC2B8ue170006IiNS_18__default_init_tagEEEOT_OT0_, symObjAddr: 0x7930, symBinAddr: 0x10000BD30, symSize: 0x40 }
  - { offsetInCU: 0x2808E, offset: 0x3205D, size: 0x8, addend: 0x0, symName: __ZNSt3__122__compressed_pair_elemINS_9allocatorIPNS_16__hash_node_baseIPNS_11__hash_nodeINS_17__hash_value_typeIiNS_13unordered_mapIiiNS_4hashIiEENS_8equal_toIiEENS1_INS_4pairIKiiEEEEEEEEPvEEEEEELi1ELb1EEC2B8ue170006ENS_18__default_init_tagE, symObjAddr: 0x7970, symBinAddr: 0x10000BD70, symSize: 0x2C }
  - { offsetInCU: 0x280C0, offset: 0x3208F, size: 0x8, addend: 0x0, symName: __ZNSt3__19allocatorIPNS_16__hash_node_baseIPNS_11__hash_nodeINS_17__hash_value_typeIiNS_13unordered_mapIiiNS_4hashIiEENS_8equal_toIiEENS0_INS_4pairIKiiEEEEEEEEPvEEEEEC2B8ue170006Ev, symObjAddr: 0x799C, symBinAddr: 0x10000BD9C, symSize: 0x2C }
  - { offsetInCU: 0x280E8, offset: 0x320B7, size: 0x8, addend: 0x0, symName: __ZNSt3__116__non_trivial_ifILb1ENS_9allocatorIPNS_16__hash_node_baseIPNS_11__hash_nodeINS_17__hash_value_typeIiNS_13unordered_mapIiiNS_4hashIiEENS_8equal_toIiEENS1_INS_4pairIKiiEEEEEEEEPvEEEEEEEC2B8ue170006Ev, symObjAddr: 0x79C8, symBinAddr: 0x10000BDC8, symSize: 0x14 }
  - { offsetInCU: 0x28110, offset: 0x320DF, size: 0x8, addend: 0x0, symName: __ZNSt3__117__compressed_pairINS_16__hash_node_baseIPNS_11__hash_nodeINS_17__hash_value_typeIiNS_13unordered_mapIiiNS_4hashIiEENS_8equal_toIiEENS_9allocatorINS_4pairIKiiEEEEEEEEPvEEEENS9_ISH_EEEC2B8ue170006ILb1EvEEv, symObjAddr: 0x79DC, symBinAddr: 0x10000BDDC, symSize: 0x34 }
  - { offsetInCU: 0x28143, offset: 0x32112, size: 0x8, addend: 0x0, symName: __ZNSt3__122__compressed_pair_elemINS_16__hash_node_baseIPNS_11__hash_nodeINS_17__hash_value_typeIiNS_13unordered_mapIiiNS_4hashIiEENS_8equal_toIiEENS_9allocatorINS_4pairIKiiEEEEEEEEPvEEEELi0ELb0EEC2B8ue170006ENS_16__value_init_tagE, symObjAddr: 0x7A10, symBinAddr: 0x10000BE10, symSize: 0x2C }
  - { offsetInCU: 0x28175, offset: 0x32144, size: 0x8, addend: 0x0, symName: __ZNSt3__122__compressed_pair_elemINS_9allocatorINS_11__hash_nodeINS_17__hash_value_typeIiNS_13unordered_mapIiiNS_4hashIiEENS_8equal_toIiEENS1_INS_4pairIKiiEEEEEEEEPvEEEELi1ELb1EEC2B8ue170006ENS_16__value_init_tagE, symObjAddr: 0x7A3C, symBinAddr: 0x10000BE3C, symSize: 0x2C }
  - { offsetInCU: 0x281A7, offset: 0x32176, size: 0x8, addend: 0x0, symName: __ZNSt3__116__hash_node_baseIPNS_11__hash_nodeINS_17__hash_value_typeIiNS_13unordered_mapIiiNS_4hashIiEENS_8equal_toIiEENS_9allocatorINS_4pairIKiiEEEEEEEEPvEEEC1B8ue170006Ev, symObjAddr: 0x7A68, symBinAddr: 0x10000BE68, symSize: 0x2C }
  - { offsetInCU: 0x281CF, offset: 0x3219E, size: 0x8, addend: 0x0, symName: __ZNSt3__116__hash_node_baseIPNS_11__hash_nodeINS_17__hash_value_typeIiNS_13unordered_mapIiiNS_4hashIiEENS_8equal_toIiEENS_9allocatorINS_4pairIKiiEEEEEEEEPvEEEC2B8ue170006Ev, symObjAddr: 0x7A94, symBinAddr: 0x10000BE94, symSize: 0x18 }
  - { offsetInCU: 0x281F7, offset: 0x321C6, size: 0x8, addend: 0x0, symName: __ZNSt3__19allocatorINS_11__hash_nodeINS_17__hash_value_typeIiNS_13unordered_mapIiiNS_4hashIiEENS_8equal_toIiEENS0_INS_4pairIKiiEEEEEEEEPvEEEC2B8ue170006Ev, symObjAddr: 0x7AAC, symBinAddr: 0x10000BEAC, symSize: 0x2C }
  - { offsetInCU: 0x2821F, offset: 0x321EE, size: 0x8, addend: 0x0, symName: __ZNSt3__116__non_trivial_ifILb1ENS_9allocatorINS_11__hash_nodeINS_17__hash_value_typeIiNS_13unordered_mapIiiNS_4hashIiEENS_8equal_toIiEENS1_INS_4pairIKiiEEEEEEEEPvEEEEEC2B8ue170006Ev, symObjAddr: 0x7AD8, symBinAddr: 0x10000BED8, symSize: 0x14 }
  - { offsetInCU: 0x28247, offset: 0x32216, size: 0x8, addend: 0x0, symName: __ZNSt3__117__compressed_pairImNS_22__unordered_map_hasherIiNS_17__hash_value_typeIiNS_13unordered_mapIiiNS_4hashIiEENS_8equal_toIiEENS_9allocatorINS_4pairIKiiEEEEEEEES5_S7_Lb1EEEEC2B8ue170006IiNS_18__default_init_tagEEEOT_OT0_, symObjAddr: 0x7AEC, symBinAddr: 0x10000BEEC, symSize: 0x40 }
  - { offsetInCU: 0x2829D, offset: 0x3226C, size: 0x8, addend: 0x0, symName: __ZNSt3__122__compressed_pair_elemINS_22__unordered_map_hasherIiNS_17__hash_value_typeIiNS_13unordered_mapIiiNS_4hashIiEENS_8equal_toIiEENS_9allocatorINS_4pairIKiiEEEEEEEES5_S7_Lb1EEELi1ELb1EEC2B8ue170006ENS_18__default_init_tagE, symObjAddr: 0x7B2C, symBinAddr: 0x10000BF2C, symSize: 0x2C }
  - { offsetInCU: 0x282CF, offset: 0x3229E, size: 0x8, addend: 0x0, symName: __ZNSt3__122__unordered_map_hasherIiNS_17__hash_value_typeIiNS_13unordered_mapIiiNS_4hashIiEENS_8equal_toIiEENS_9allocatorINS_4pairIKiiEEEEEEEES4_S6_Lb1EEC2B8ue170006Ev, symObjAddr: 0x7B58, symBinAddr: 0x10000BF58, symSize: 0x14 }
  - { offsetInCU: 0x282F7, offset: 0x322C6, size: 0x8, addend: 0x0, symName: __ZNSt3__117__compressed_pairIfNS_21__unordered_map_equalIiNS_17__hash_value_typeIiNS_13unordered_mapIiiNS_4hashIiEENS_8equal_toIiEENS_9allocatorINS_4pairIKiiEEEEEEEES7_S5_Lb1EEEEC2B8ue170006IfNS_18__default_init_tagEEEOT_OT0_, symObjAddr: 0x7B6C, symBinAddr: 0x10000BF6C, symSize: 0x40 }
  - { offsetInCU: 0x2834D, offset: 0x3231C, size: 0x8, addend: 0x0, symName: __ZNSt3__122__compressed_pair_elemINS_21__unordered_map_equalIiNS_17__hash_value_typeIiNS_13unordered_mapIiiNS_4hashIiEENS_8equal_toIiEENS_9allocatorINS_4pairIKiiEEEEEEEES7_S5_Lb1EEELi1ELb1EEC2B8ue170006ENS_18__default_init_tagE, symObjAddr: 0x7BAC, symBinAddr: 0x10000BFAC, symSize: 0x2C }
  - { offsetInCU: 0x2837F, offset: 0x3234E, size: 0x8, addend: 0x0, symName: __ZNSt3__121__unordered_map_equalIiNS_17__hash_value_typeIiNS_13unordered_mapIiiNS_4hashIiEENS_8equal_toIiEENS_9allocatorINS_4pairIKiiEEEEEEEES6_S4_Lb1EEC2B8ue170006Ev, symObjAddr: 0x7BD8, symBinAddr: 0x10000BFD8, symSize: 0x14 }
  - { offsetInCU: 0x283A7, offset: 0x32376, size: 0x8, addend: 0x0, symName: __ZNSt3__117__compressed_pairIPNS_11__hash_nodeINS_17__hash_value_typeIiNS_13unordered_mapIiNS3_IiiNS_4hashIiEENS_8equal_toIiEENS_9allocatorINS_4pairIKiiEEEEEES5_S7_NS8_INS9_ISA_SD_EEEEEEEEPvEENS_22__hash_node_destructorINS8_ISJ_EEEEE6secondB8ue170006Ev, symObjAddr: 0x7BEC, symBinAddr: 0x10000BFEC, symSize: 0x28 }
  - { offsetInCU: 0x283CB, offset: 0x3239A, size: 0x8, addend: 0x0, symName: __ZNSt3__122__compressed_pair_elemINS_22__hash_node_destructorINS_9allocatorINS_11__hash_nodeINS_17__hash_value_typeIiNS_13unordered_mapIiNS5_IiiNS_4hashIiEENS_8equal_toIiEENS2_INS_4pairIKiiEEEEEES7_S9_NS2_INSA_ISB_SE_EEEEEEEEPvEEEEEELi1ELb0EE5__getB8ue170006Ev, symObjAddr: 0x7C14, symBinAddr: 0x10000C014, symSize: 0x14 }
  - { offsetInCU: 0x283EF, offset: 0x323BE, size: 0x8, addend: 0x0, symName: __ZNSt3__117__compressed_pairImNS_22__unordered_map_hasherIiNS_17__hash_value_typeIiNS_13unordered_mapIiNS3_IiiNS_4hashIiEENS_8equal_toIiEENS_9allocatorINS_4pairIKiiEEEEEES5_S7_NS8_INS9_ISA_SD_EEEEEEEES5_S7_Lb1EEEE5firstB8ue170006Ev, symObjAddr: 0x7C28, symBinAddr: 0x10000C028, symSize: 0x24 }
  - { offsetInCU: 0x28413, offset: 0x323E2, size: 0x8, addend: 0x0, symName: __ZNSt3__117__compressed_pairIfNS_21__unordered_map_equalIiNS_17__hash_value_typeIiNS_13unordered_mapIiNS3_IiiNS_4hashIiEENS_8equal_toIiEENS_9allocatorINS_4pairIKiiEEEEEES5_S7_NS8_INS9_ISA_SD_EEEEEEEES7_S5_Lb1EEEE5firstB8ue170006Ev, symObjAddr: 0x7C4C, symBinAddr: 0x10000C04C, symSize: 0x24 }
  - { offsetInCU: 0x28437, offset: 0x32406, size: 0x8, addend: 0x0, symName: __ZNSt3__122__compressed_pair_elemIfLi0ELb0EE5__getB8ue170006Ev, symObjAddr: 0x7C70, symBinAddr: 0x10000C070, symSize: 0x14 }
  - { offsetInCU: 0x2845B, offset: 0x3242A, size: 0x8, addend: 0x0, symName: __ZNSt3__112__hash_tableINS_17__hash_value_typeIiNS_13unordered_mapIiNS2_IiiNS_4hashIiEENS_8equal_toIiEENS_9allocatorINS_4pairIKiiEEEEEES4_S6_NS7_INS8_IS9_SC_EEEEEEEENS_22__unordered_map_hasherIiSG_S4_S6_Lb1EEENS_21__unordered_map_equalIiSG_S6_S4_Lb1EEENS7_ISG_EEE8__rehashILb1EEEvm, symObjAddr: 0x7C84, symBinAddr: 0x10000C084, symSize: 0x1A8 }
  - { offsetInCU: 0x284A9, offset: 0x32478, size: 0x8, addend: 0x0, symName: __ZNSt3__112__hash_tableINS_17__hash_value_typeIiNS_13unordered_mapIiNS2_IiiNS_4hashIiEENS_8equal_toIiEENS_9allocatorINS_4pairIKiiEEEEEES4_S6_NS7_INS8_IS9_SC_EEEEEEEENS_22__unordered_map_hasherIiSG_S4_S6_Lb1EEENS_21__unordered_map_equalIiSG_S6_S4_Lb1EEENS7_ISG_EEE11__do_rehashILb1EEEvm, symObjAddr: 0x7E2C, symBinAddr: 0x10000C22C, symSize: 0x288 }
  - { offsetInCU: 0x2858A, offset: 0x32559, size: 0x8, addend: 0x0, symName: __ZNSt3__110unique_ptrIA_PNS_16__hash_node_baseIPNS_11__hash_nodeINS_17__hash_value_typeIiNS_13unordered_mapIiNS4_IiiNS_4hashIiEENS_8equal_toIiEENS_9allocatorINS_4pairIKiiEEEEEES6_S8_NS9_INSA_ISB_SE_EEEEEEEEPvEEEENS_25__bucket_list_deallocatorINS9_ISN_EEEEE11get_deleterB8ue170006Ev, symObjAddr: 0x8120, symBinAddr: 0x10000C520, symSize: 0x24 }
  - { offsetInCU: 0x285AE, offset: 0x3257D, size: 0x8, addend: 0x0, symName: __ZNSt3__110unique_ptrIA_PNS_16__hash_node_baseIPNS_11__hash_nodeINS_17__hash_value_typeIiNS_13unordered_mapIiNS4_IiiNS_4hashIiEENS_8equal_toIiEENS_9allocatorINS_4pairIKiiEEEEEES6_S8_NS9_INSA_ISB_SE_EEEEEEEEPvEEEENS_25__bucket_list_deallocatorINS9_ISN_EEEEE5resetB8ue170006IPSN_EENS_9enable_ifIXsr28_CheckArrayPointerConversionIT_EE5valueEvE4typeESW_, symObjAddr: 0x8144, symBinAddr: 0x10000C544, symSize: 0x78 }
  - { offsetInCU: 0x285F9, offset: 0x325C8, size: 0x8, addend: 0x0, symName: __ZNSt3__116allocator_traitsINS_9allocatorIPNS_16__hash_node_baseIPNS_11__hash_nodeINS_17__hash_value_typeIiNS_13unordered_mapIiNS5_IiiNS_4hashIiEENS_8equal_toIiEENS1_INS_4pairIKiiEEEEEES7_S9_NS1_INSA_ISB_SE_EEEEEEEEPvEEEEEEE8allocateB8ue170006ERSO_m, symObjAddr: 0x81BC, symBinAddr: 0x10000C5BC, symSize: 0x2C }
  - { offsetInCU: 0x2862B, offset: 0x325FA, size: 0x8, addend: 0x0, symName: __ZNSt3__19allocatorIPNS_16__hash_node_baseIPNS_11__hash_nodeINS_17__hash_value_typeIiNS_13unordered_mapIiNS4_IiiNS_4hashIiEENS_8equal_toIiEENS0_INS_4pairIKiiEEEEEES6_S8_NS0_INS9_ISA_SD_EEEEEEEEPvEEEEE8allocateB8ue170006Em, symObjAddr: 0x81E8, symBinAddr: 0x10000C5E8, symSize: 0x58 }
  - { offsetInCU: 0x28667, offset: 0x32636, size: 0x8, addend: 0x0, symName: __ZNSt3__116allocator_traitsINS_9allocatorIPNS_16__hash_node_baseIPNS_11__hash_nodeINS_17__hash_value_typeIiNS_13unordered_mapIiNS5_IiiNS_4hashIiEENS_8equal_toIiEENS1_INS_4pairIKiiEEEEEES7_S9_NS1_INSA_ISB_SE_EEEEEEEEPvEEEEEEE8max_sizeB8ue170006ISO_vEEmRKSO_, symObjAddr: 0x8240, symBinAddr: 0x10000C640, symSize: 0x24 }
  - { offsetInCU: 0x28694, offset: 0x32663, size: 0x8, addend: 0x0, symName: __ZNKSt3__19allocatorIPNS_16__hash_node_baseIPNS_11__hash_nodeINS_17__hash_value_typeIiNS_13unordered_mapIiNS4_IiiNS_4hashIiEENS_8equal_toIiEENS0_INS_4pairIKiiEEEEEES6_S8_NS0_INS9_ISA_SD_EEEEEEEEPvEEEEE8max_sizeB8ue170006Ev, symObjAddr: 0x8264, symBinAddr: 0x10000C664, symSize: 0x14 }
  - { offsetInCU: 0x286C2, offset: 0x32691, size: 0x8, addend: 0x0, symName: __ZNKSt3__16__lessIvvEclB8ue170006ImmEEbRKT_RKT0_, symObjAddr: 0x82E8, symBinAddr: 0x10000C6E8, symSize: 0x34 }
  - { offsetInCU: 0x28714, offset: 0x326E3, size: 0x8, addend: 0x0, symName: __ZNKSt3__117__compressed_pairIPNS_11__hash_nodeINS_17__hash_value_typeIiNS_13unordered_mapIiNS3_IiiNS_4hashIiEENS_8equal_toIiEENS_9allocatorINS_4pairIKiiEEEEEES5_S7_NS8_INS9_ISA_SD_EEEEEEEEPvEENS_22__hash_node_destructorINS8_ISJ_EEEEE5firstB8ue170006Ev, symObjAddr: 0x831C, symBinAddr: 0x10000C71C, symSize: 0x24 }
  - { offsetInCU: 0x28738, offset: 0x32707, size: 0x8, addend: 0x0, symName: __ZNKSt3__122__compressed_pair_elemIPNS_11__hash_nodeINS_17__hash_value_typeIiNS_13unordered_mapIiNS3_IiiNS_4hashIiEENS_8equal_toIiEENS_9allocatorINS_4pairIKiiEEEEEES5_S7_NS8_INS9_ISA_SD_EEEEEEEEPvEELi0ELb0EE5__getB8ue170006Ev, symObjAddr: 0x8340, symBinAddr: 0x10000C740, symSize: 0x14 }
  - { offsetInCU: 0x2875C, offset: 0x3272B, size: 0x8, addend: 0x0, symName: __ZNSt3__117__compressed_pairIPNS_11__hash_nodeINS_17__hash_value_typeIiNS_13unordered_mapIiNS3_IiiNS_4hashIiEENS_8equal_toIiEENS_9allocatorINS_4pairIKiiEEEEEES5_S7_NS8_INS9_ISA_SD_EEEEEEEEPvEENS_22__hash_node_destructorINS8_ISJ_EEEEE5firstB8ue170006Ev, symObjAddr: 0x8354, symBinAddr: 0x10000C754, symSize: 0x24 }
  - { offsetInCU: 0x28780, offset: 0x3274F, size: 0x8, addend: 0x0, symName: __ZNSt3__122__compressed_pair_elemIPNS_11__hash_nodeINS_17__hash_value_typeIiNS_13unordered_mapIiNS3_IiiNS_4hashIiEENS_8equal_toIiEENS_9allocatorINS_4pairIKiiEEEEEES5_S7_NS8_INS9_ISA_SD_EEEEEEEEPvEELi0ELb0EE5__getB8ue170006Ev, symObjAddr: 0x8378, symBinAddr: 0x10000C778, symSize: 0x14 }
  - { offsetInCU: 0x287A4, offset: 0x32773, size: 0x8, addend: 0x0, symName: __ZNSt3__110unique_ptrINS_11__hash_nodeINS_17__hash_value_typeIiNS_13unordered_mapIiNS3_IiiNS_4hashIiEENS_8equal_toIiEENS_9allocatorINS_4pairIKiiEEEEEES5_S7_NS8_INS9_ISA_SD_EEEEEEEEPvEENS_22__hash_node_destructorINS8_ISJ_EEEEED2B8ue170006Ev, symObjAddr: 0x838C, symBinAddr: 0x10000C78C, symSize: 0x30 }
  - { offsetInCU: 0x287CC, offset: 0x3279B, size: 0x8, addend: 0x0, symName: __ZNSt3__110unique_ptrINS_11__hash_nodeINS_17__hash_value_typeIiNS_13unordered_mapIiNS3_IiiNS_4hashIiEENS_8equal_toIiEENS_9allocatorINS_4pairIKiiEEEEEES5_S7_NS8_INS9_ISA_SD_EEEEEEEEPvEENS_22__hash_node_destructorINS8_ISJ_EEEEE5resetB8ue170006EPSJ_, symObjAddr: 0x83BC, symBinAddr: 0x10000C7BC, symSize: 0x78 }
  - { offsetInCU: 0x2880E, offset: 0x327DD, size: 0x8, addend: 0x0, symName: __ZNSt3__122__hash_node_destructorINS_9allocatorINS_11__hash_nodeINS_17__hash_value_typeIiNS_13unordered_mapIiNS4_IiiNS_4hashIiEENS_8equal_toIiEENS1_INS_4pairIKiiEEEEEES6_S8_NS1_INS9_ISA_SD_EEEEEEEEPvEEEEEclB8ue170006EPSJ_, symObjAddr: 0x8434, symBinAddr: 0x10000C834, symSize: 0x94 }
  - { offsetInCU: 0x28841, offset: 0x32810, size: 0x8, addend: 0x0, symName: __ZNSt3__115__hash_iteratorIPNS_11__hash_nodeINS_17__hash_value_typeIiNS_13unordered_mapIiNS3_IiiNS_4hashIiEENS_8equal_toIiEENS_9allocatorINS_4pairIKiiEEEEEES5_S7_NS8_INS9_ISA_SD_EEEEEEEEPvEEEC2B8ue170006EPNS_16__hash_node_baseISK_EE, symObjAddr: 0x84C8, symBinAddr: 0x10000C8C8, symSize: 0x20 }
  - { offsetInCU: 0x28878, offset: 0x32847, size: 0x8, addend: 0x0, symName: __ZNSt3__14pairINS_15__hash_iteratorIPNS_11__hash_nodeINS_17__hash_value_typeIiNS_13unordered_mapIiNS4_IiiNS_4hashIiEENS_8equal_toIiEENS_9allocatorINS0_IKiiEEEEEES6_S8_NS9_INS0_ISA_SD_EEEEEEEEPvEEEEbEC2B8ue170006ISL_RbLSI_0EEEOT_OT0_, symObjAddr: 0x84E8, symBinAddr: 0x10000C8E8, symSize: 0x38 }
  - { offsetInCU: 0x288D4, offset: 0x328A3, size: 0x8, addend: 0x0, symName: __ZNSt3__114pointer_traitsIPNS_17__hash_value_typeIiNS_13unordered_mapIiNS2_IiiNS_4hashIiEENS_8equal_toIiEENS_9allocatorINS_4pairIKiiEEEEEES4_S6_NS7_INS8_IS9_SC_EEEEEEEEE10pointer_toB8ue170006ERSG_, symObjAddr: 0x8610, symBinAddr: 0x10000C920, symSize: 0x14 }
  - { offsetInCU: 0x288F6, offset: 0x328C5, size: 0x8, addend: 0x0, symName: __ZNSt3__112__hash_tableINS_17__hash_value_typeIiNS_13unordered_mapIiiNS_4hashIiEENS_8equal_toIiEENS_9allocatorINS_4pairIKiiEEEEEEEENS_22__unordered_map_hasherIiSD_S4_S6_Lb1EEENS_21__unordered_map_equalIiSD_S6_S4_Lb1EEENS7_ISD_EEE25__emplace_unique_key_argsIiJRKNS_21piecewise_construct_tENS_5tupleIJRS9_EEENSO_IJEEEEEENS8_INS_15__hash_iteratorIPNS_11__hash_nodeISD_PvEEEEbEERKT_DpOT0_, symObjAddr: 0x8624, symBinAddr: 0x10000C934, symSize: 0x4CC }
  - { offsetInCU: 0x289FE, offset: 0x329CD, size: 0x8, addend: 0x0, symName: __ZNKSt3__115__hash_iteratorIPNS_11__hash_nodeINS_17__hash_value_typeIiNS_13unordered_mapIiiNS_4hashIiEENS_8equal_toIiEENS_9allocatorINS_4pairIKiiEEEEEEEEPvEEEptB8ue170006Ev, symObjAddr: 0x8AF0, symBinAddr: 0x10000CE00, symSize: 0x30 }
  - { offsetInCU: 0x28A22, offset: 0x329F1, size: 0x8, addend: 0x0, symName: __ZNSt3__112__hash_tableINS_17__hash_value_typeIiNS_13unordered_mapIiiNS_4hashIiEENS_8equal_toIiEENS_9allocatorINS_4pairIKiiEEEEEEEENS_22__unordered_map_hasherIiSD_S4_S6_Lb1EEENS_21__unordered_map_equalIiSD_S6_S4_Lb1EEENS7_ISD_EEE13hash_functionB8ue170006Ev, symObjAddr: 0x8B20, symBinAddr: 0x10000CE30, symSize: 0x28 }
  - { offsetInCU: 0x28A46, offset: 0x32A15, size: 0x8, addend: 0x0, symName: __ZNKSt3__122__unordered_map_hasherIiNS_17__hash_value_typeIiNS_13unordered_mapIiiNS_4hashIiEENS_8equal_toIiEENS_9allocatorINS_4pairIKiiEEEEEEEES4_S6_Lb1EEclB8ue170006ERS9_, symObjAddr: 0x8B48, symBinAddr: 0x10000CE58, symSize: 0x30 }
  - { offsetInCU: 0x28A79, offset: 0x32A48, size: 0x8, addend: 0x0, symName: __ZNKSt3__112__hash_tableINS_17__hash_value_typeIiNS_13unordered_mapIiiNS_4hashIiEENS_8equal_toIiEENS_9allocatorINS_4pairIKiiEEEEEEEENS_22__unordered_map_hasherIiSD_S4_S6_Lb1EEENS_21__unordered_map_equalIiSD_S6_S4_Lb1EEENS7_ISD_EEE12bucket_countB8ue170006Ev, symObjAddr: 0x8B78, symBinAddr: 0x10000CE88, symSize: 0x28 }
  - { offsetInCU: 0x28A9D, offset: 0x32A6C, size: 0x8, addend: 0x0, symName: __ZNKSt3__110unique_ptrIA_PNS_16__hash_node_baseIPNS_11__hash_nodeINS_17__hash_value_typeIiNS_13unordered_mapIiiNS_4hashIiEENS_8equal_toIiEENS_9allocatorINS_4pairIKiiEEEEEEEEPvEEEENS_25__bucket_list_deallocatorINS9_ISK_EEEEEixB8ue170006Em, symObjAddr: 0x8BA0, symBinAddr: 0x10000CEB0, symSize: 0x34 }
  - { offsetInCU: 0x28AD0, offset: 0x32A9F, size: 0x8, addend: 0x0, symName: __ZNKSt3__116__hash_node_baseIPNS_11__hash_nodeINS_17__hash_value_typeIiNS_13unordered_mapIiiNS_4hashIiEENS_8equal_toIiEENS_9allocatorINS_4pairIKiiEEEEEEEEPvEEE6__hashB8ue170006Ev, symObjAddr: 0x8BD4, symBinAddr: 0x10000CEE4, symSize: 0x18 }
  - { offsetInCU: 0x28AF4, offset: 0x32AC3, size: 0x8, addend: 0x0, symName: __ZNSt3__112__hash_tableINS_17__hash_value_typeIiNS_13unordered_mapIiiNS_4hashIiEENS_8equal_toIiEENS_9allocatorINS_4pairIKiiEEEEEEEENS_22__unordered_map_hasherIiSD_S4_S6_Lb1EEENS_21__unordered_map_equalIiSD_S6_S4_Lb1EEENS7_ISD_EEE6key_eqB8ue170006Ev, symObjAddr: 0x8BEC, symBinAddr: 0x10000CEFC, symSize: 0x28 }
  - { offsetInCU: 0x28B18, offset: 0x32AE7, size: 0x8, addend: 0x0, symName: __ZNKSt3__121__unordered_map_equalIiNS_17__hash_value_typeIiNS_13unordered_mapIiiNS_4hashIiEENS_8equal_toIiEENS_9allocatorINS_4pairIKiiEEEEEEEES6_S4_Lb1EEclB8ue170006ERKSD_RS9_, symObjAddr: 0x8C14, symBinAddr: 0x10000CF24, symSize: 0x48 }
  - { offsetInCU: 0x28B5A, offset: 0x32B29, size: 0x8, addend: 0x0, symName: __ZNSt3__112__hash_tableINS_17__hash_value_typeIiNS_13unordered_mapIiiNS_4hashIiEENS_8equal_toIiEENS_9allocatorINS_4pairIKiiEEEEEEEENS_22__unordered_map_hasherIiSD_S4_S6_Lb1EEENS_21__unordered_map_equalIiSD_S6_S4_Lb1EEENS7_ISD_EEE21__construct_node_hashIRKNS_21piecewise_construct_tEJNS_5tupleIJRS9_EEENSO_IJEEEEEENS_10unique_ptrINS_11__hash_nodeISD_PvEENS_22__hash_node_destructorINS7_ISV_EEEEEEmOT_DpOT0_, symObjAddr: 0x8C5C, symBinAddr: 0x10000CF6C, symSize: 0x150 }
  - { offsetInCU: 0x28BF4, offset: 0x32BC3, size: 0x8, addend: 0x0, symName: __ZNSt3__112__hash_tableINS_17__hash_value_typeIiNS_13unordered_mapIiiNS_4hashIiEENS_8equal_toIiEENS_9allocatorINS_4pairIKiiEEEEEEEENS_22__unordered_map_hasherIiSD_S4_S6_Lb1EEENS_21__unordered_map_equalIiSD_S6_S4_Lb1EEENS7_ISD_EEE4sizeB8ue170006Ev, symObjAddr: 0x8DAC, symBinAddr: 0x10000D0BC, symSize: 0x28 }
  - { offsetInCU: 0x28C18, offset: 0x32BE7, size: 0x8, addend: 0x0, symName: __ZNSt3__112__hash_tableINS_17__hash_value_typeIiNS_13unordered_mapIiiNS_4hashIiEENS_8equal_toIiEENS_9allocatorINS_4pairIKiiEEEEEEEENS_22__unordered_map_hasherIiSD_S4_S6_Lb1EEENS_21__unordered_map_equalIiSD_S6_S4_Lb1EEENS7_ISD_EEE15max_load_factorB8ue170006Ev, symObjAddr: 0x8DD4, symBinAddr: 0x10000D0E4, symSize: 0x28 }
  - { offsetInCU: 0x28C3C, offset: 0x32C0B, size: 0x8, addend: 0x0, symName: __ZNSt3__112__hash_tableINS_17__hash_value_typeIiNS_13unordered_mapIiiNS_4hashIiEENS_8equal_toIiEENS_9allocatorINS_4pairIKiiEEEEEEEENS_22__unordered_map_hasherIiSD_S4_S6_Lb1EEENS_21__unordered_map_equalIiSD_S6_S4_Lb1EEENS7_ISD_EEE15__rehash_uniqueB8ue170006Em, symObjAddr: 0x8DFC, symBinAddr: 0x10000D10C, symSize: 0x2C }
  - { offsetInCU: 0x28C6F, offset: 0x32C3E, size: 0x8, addend: 0x0, symName: __ZNSt3__116__hash_node_baseIPNS_11__hash_nodeINS_17__hash_value_typeIiNS_13unordered_mapIiiNS_4hashIiEENS_8equal_toIiEENS_9allocatorINS_4pairIKiiEEEEEEEEPvEEE5__ptrB8ue170006Ev, symObjAddr: 0x8E28, symBinAddr: 0x10000D138, symSize: 0x24 }
  - { offsetInCU: 0x28C93, offset: 0x32C62, size: 0x8, addend: 0x0, symName: __ZNKSt3__110unique_ptrINS_11__hash_nodeINS_17__hash_value_typeIiNS_13unordered_mapIiiNS_4hashIiEENS_8equal_toIiEENS_9allocatorINS_4pairIKiiEEEEEEEEPvEENS_22__hash_node_destructorINS8_ISG_EEEEEptB8ue170006Ev, symObjAddr: 0x8E4C, symBinAddr: 0x10000D15C, symSize: 0x28 }
  - { offsetInCU: 0x28CB7, offset: 0x32C86, size: 0x8, addend: 0x0, symName: __ZNKSt3__110unique_ptrINS_11__hash_nodeINS_17__hash_value_typeIiNS_13unordered_mapIiiNS_4hashIiEENS_8equal_toIiEENS_9allocatorINS_4pairIKiiEEEEEEEEPvEENS_22__hash_node_destructorINS8_ISG_EEEEE3getB8ue170006Ev, symObjAddr: 0x8E74, symBinAddr: 0x10000D184, symSize: 0x28 }
  - { offsetInCU: 0x28CDB, offset: 0x32CAA, size: 0x8, addend: 0x0, symName: __ZNSt3__110unique_ptrINS_11__hash_nodeINS_17__hash_value_typeIiNS_13unordered_mapIiiNS_4hashIiEENS_8equal_toIiEENS_9allocatorINS_4pairIKiiEEEEEEEEPvEENS_22__hash_node_destructorINS8_ISG_EEEEE7releaseB8ue170006Ev, symObjAddr: 0x8E9C, symBinAddr: 0x10000D1AC, symSize: 0x44 }
  - { offsetInCU: 0x28D0E, offset: 0x32CDD, size: 0x8, addend: 0x0, symName: __ZNSt3__110unique_ptrINS_11__hash_nodeINS_17__hash_value_typeIiNS_13unordered_mapIiiNS_4hashIiEENS_8equal_toIiEENS_9allocatorINS_4pairIKiiEEEEEEEEPvEENS_22__hash_node_destructorINS8_ISG_EEEEED1B8ue170006Ev, symObjAddr: 0x8EE0, symBinAddr: 0x10000D1F0, symSize: 0x2C }
  - { offsetInCU: 0x28D36, offset: 0x32D05, size: 0x8, addend: 0x0, symName: __ZNSt3__115__hash_iteratorIPNS_11__hash_nodeINS_17__hash_value_typeIiNS_13unordered_mapIiiNS_4hashIiEENS_8equal_toIiEENS_9allocatorINS_4pairIKiiEEEEEEEEPvEEEC1B8ue170006EPNS_16__hash_node_baseISH_EE, symObjAddr: 0x8F0C, symBinAddr: 0x10000D21C, symSize: 0x34 }
  - { offsetInCU: 0x28D72, offset: 0x32D41, size: 0x8, addend: 0x0, symName: __ZNSt3__14pairINS_15__hash_iteratorIPNS_11__hash_nodeINS_17__hash_value_typeIiNS_13unordered_mapIiiNS_4hashIiEENS_8equal_toIiEENS_9allocatorINS0_IKiiEEEEEEEEPvEEEEbEC1B8ue170006ISI_RbLSF_0EEEOT_OT0_, symObjAddr: 0x8F40, symBinAddr: 0x10000D250, symSize: 0x3C }
  - { offsetInCU: 0x28DCE, offset: 0x32D9D, size: 0x8, addend: 0x0, symName: __ZNSt3__117__compressed_pairImNS_22__unordered_map_hasherIiNS_17__hash_value_typeIiNS_13unordered_mapIiiNS_4hashIiEENS_8equal_toIiEENS_9allocatorINS_4pairIKiiEEEEEEEES5_S7_Lb1EEEE6secondB8ue170006Ev, symObjAddr: 0x8F7C, symBinAddr: 0x10000D28C, symSize: 0x24 }
  - { offsetInCU: 0x28DF2, offset: 0x32DC1, size: 0x8, addend: 0x0, symName: __ZNSt3__122__compressed_pair_elemINS_22__unordered_map_hasherIiNS_17__hash_value_typeIiNS_13unordered_mapIiiNS_4hashIiEENS_8equal_toIiEENS_9allocatorINS_4pairIKiiEEEEEEEES5_S7_Lb1EEELi1ELb1EE5__getB8ue170006Ev, symObjAddr: 0x8FA0, symBinAddr: 0x10000D2B0, symSize: 0x14 }
  - { offsetInCU: 0x28E16, offset: 0x32DE5, size: 0x8, addend: 0x0, symName: __ZNKSt3__110unique_ptrIA_PNS_16__hash_node_baseIPNS_11__hash_nodeINS_17__hash_value_typeIiNS_13unordered_mapIiiNS_4hashIiEENS_8equal_toIiEENS_9allocatorINS_4pairIKiiEEEEEEEEPvEEEENS_25__bucket_list_deallocatorINS9_ISK_EEEEE11get_deleterB8ue170006Ev, symObjAddr: 0x8FB4, symBinAddr: 0x10000D2C4, symSize: 0x24 }
  - { offsetInCU: 0x28E3A, offset: 0x32E09, size: 0x8, addend: 0x0, symName: __ZNKSt3__125__bucket_list_deallocatorINS_9allocatorIPNS_16__hash_node_baseIPNS_11__hash_nodeINS_17__hash_value_typeIiNS_13unordered_mapIiiNS_4hashIiEENS_8equal_toIiEENS1_INS_4pairIKiiEEEEEEEEPvEEEEEEE4sizeB8ue170006Ev, symObjAddr: 0x8FD8, symBinAddr: 0x10000D2E8, symSize: 0x28 }
  - { offsetInCU: 0x28E5E, offset: 0x32E2D, size: 0x8, addend: 0x0, symName: __ZNKSt3__117__compressed_pairIPPNS_16__hash_node_baseIPNS_11__hash_nodeINS_17__hash_value_typeIiNS_13unordered_mapIiiNS_4hashIiEENS_8equal_toIiEENS_9allocatorINS_4pairIKiiEEEEEEEEPvEEEENS_25__bucket_list_deallocatorINS9_ISK_EEEEE6secondB8ue170006Ev, symObjAddr: 0x9000, symBinAddr: 0x10000D310, symSize: 0x28 }
  - { offsetInCU: 0x28E82, offset: 0x32E51, size: 0x8, addend: 0x0, symName: __ZNKSt3__122__compressed_pair_elemINS_25__bucket_list_deallocatorINS_9allocatorIPNS_16__hash_node_baseIPNS_11__hash_nodeINS_17__hash_value_typeIiNS_13unordered_mapIiiNS_4hashIiEENS_8equal_toIiEENS2_INS_4pairIKiiEEEEEEEEPvEEEEEEEELi1ELb0EE5__getB8ue170006Ev, symObjAddr: 0x9028, symBinAddr: 0x10000D338, symSize: 0x14 }
  - { offsetInCU: 0x28EA6, offset: 0x32E75, size: 0x8, addend: 0x0, symName: __ZNKSt3__117__compressed_pairImNS_9allocatorIPNS_16__hash_node_baseIPNS_11__hash_nodeINS_17__hash_value_typeIiNS_13unordered_mapIiiNS_4hashIiEENS_8equal_toIiEENS1_INS_4pairIKiiEEEEEEEEPvEEEEEEE5firstB8ue170006Ev, symObjAddr: 0x903C, symBinAddr: 0x10000D34C, symSize: 0x24 }
  - { offsetInCU: 0x28ECA, offset: 0x32E99, size: 0x8, addend: 0x0, symName: __ZNKSt3__117__compressed_pairIPPNS_16__hash_node_baseIPNS_11__hash_nodeINS_17__hash_value_typeIiNS_13unordered_mapIiiNS_4hashIiEENS_8equal_toIiEENS_9allocatorINS_4pairIKiiEEEEEEEEPvEEEENS_25__bucket_list_deallocatorINS9_ISK_EEEEE5firstB8ue170006Ev, symObjAddr: 0x9060, symBinAddr: 0x10000D370, symSize: 0x24 }
  - { offsetInCU: 0x28EEE, offset: 0x32EBD, size: 0x8, addend: 0x0, symName: __ZNKSt3__122__compressed_pair_elemIPPNS_16__hash_node_baseIPNS_11__hash_nodeINS_17__hash_value_typeIiNS_13unordered_mapIiiNS_4hashIiEENS_8equal_toIiEENS_9allocatorINS_4pairIKiiEEEEEEEEPvEEEELi0ELb0EE5__getB8ue170006Ev, symObjAddr: 0x9084, symBinAddr: 0x10000D394, symSize: 0x14 }
  - { offsetInCU: 0x28F12, offset: 0x32EE1, size: 0x8, addend: 0x0, symName: __ZNSt3__117__compressed_pairIfNS_21__unordered_map_equalIiNS_17__hash_value_typeIiNS_13unordered_mapIiiNS_4hashIiEENS_8equal_toIiEENS_9allocatorINS_4pairIKiiEEEEEEEES7_S5_Lb1EEEE6secondB8ue170006Ev, symObjAddr: 0x9098, symBinAddr: 0x10000D3A8, symSize: 0x24 }
  - { offsetInCU: 0x28F36, offset: 0x32F05, size: 0x8, addend: 0x0, symName: __ZNSt3__122__compressed_pair_elemINS_21__unordered_map_equalIiNS_17__hash_value_typeIiNS_13unordered_mapIiiNS_4hashIiEENS_8equal_toIiEENS_9allocatorINS_4pairIKiiEEEEEEEES7_S5_Lb1EEELi1ELb1EE5__getB8ue170006Ev, symObjAddr: 0x90BC, symBinAddr: 0x10000D3CC, symSize: 0x14 }
  - { offsetInCU: 0x28F5A, offset: 0x32F29, size: 0x8, addend: 0x0, symName: __ZNKSt3__117__hash_value_typeIiNS_13unordered_mapIiiNS_4hashIiEENS_8equal_toIiEENS_9allocatorINS_4pairIKiiEEEEEEE11__get_valueB8ue170006Ev, symObjAddr: 0x90D0, symBinAddr: 0x10000D3E0, symSize: 0x14 }
  - { offsetInCU: 0x28F7E, offset: 0x32F4D, size: 0x8, addend: 0x0, symName: __ZNSt3__116allocator_traitsINS_9allocatorINS_11__hash_nodeINS_17__hash_value_typeIiNS_13unordered_mapIiiNS_4hashIiEENS_8equal_toIiEENS1_INS_4pairIKiiEEEEEEEEPvEEEEE8allocateB8ue170006ERSH_m, symObjAddr: 0x90E4, symBinAddr: 0x10000D3F4, symSize: 0x2C }
  - { offsetInCU: 0x28FB0, offset: 0x32F7F, size: 0x8, addend: 0x0, symName: __ZNSt3__122__hash_node_destructorINS_9allocatorINS_11__hash_nodeINS_17__hash_value_typeIiNS_13unordered_mapIiiNS_4hashIiEENS_8equal_toIiEENS1_INS_4pairIKiiEEEEEEEEPvEEEEEC1B8ue170006ERSH_b, symObjAddr: 0x9110, symBinAddr: 0x10000D420, symSize: 0x48 }
  - { offsetInCU: 0x28FFB, offset: 0x32FCA, size: 0x8, addend: 0x0, symName: __ZNSt3__110unique_ptrINS_11__hash_nodeINS_17__hash_value_typeIiNS_13unordered_mapIiiNS_4hashIiEENS_8equal_toIiEENS_9allocatorINS_4pairIKiiEEEEEEEEPvEENS_22__hash_node_destructorINS8_ISG_EEEEEC1B8ue170006ILb1EvEEPSG_NS_16__dependent_typeINS_27__unique_ptr_deleter_sfinaeISJ_EEXT_EE20__good_rval_ref_typeE, symObjAddr: 0x9158, symBinAddr: 0x10000D468, symSize: 0x3C }
  - { offsetInCU: 0x2904A, offset: 0x33019, size: 0x8, addend: 0x0, symName: __ZNSt3__116allocator_traitsINS_9allocatorINS_11__hash_nodeINS_17__hash_value_typeIiNS_13unordered_mapIiiNS_4hashIiEENS_8equal_toIiEENS1_INS_4pairIKiiEEEEEEEEPvEEEEE9constructB8ue170006INS9_ISA_SD_EEJRKNS_21piecewise_construct_tENS_5tupleIJRSA_EEENSO_IJEEEEvEEvRSH_PT_DpOT0_, symObjAddr: 0x9194, symBinAddr: 0x10000D4A4, symSize: 0x44 }
  - { offsetInCU: 0x290C8, offset: 0x33097, size: 0x8, addend: 0x0, symName: __ZNSt3__110unique_ptrINS_11__hash_nodeINS_17__hash_value_typeIiNS_13unordered_mapIiiNS_4hashIiEENS_8equal_toIiEENS_9allocatorINS_4pairIKiiEEEEEEEEPvEENS_22__hash_node_destructorINS8_ISG_EEEEE11get_deleterB8ue170006Ev, symObjAddr: 0x91D8, symBinAddr: 0x10000D4E8, symSize: 0x24 }
  - { offsetInCU: 0x290EC, offset: 0x330BB, size: 0x8, addend: 0x0, symName: __ZNSt3__19allocatorINS_11__hash_nodeINS_17__hash_value_typeIiNS_13unordered_mapIiiNS_4hashIiEENS_8equal_toIiEENS0_INS_4pairIKiiEEEEEEEEPvEEE8allocateB8ue170006Em, symObjAddr: 0x91FC, symBinAddr: 0x10000D50C, symSize: 0x58 }
  - { offsetInCU: 0x29128, offset: 0x330F7, size: 0x8, addend: 0x0, symName: __ZNSt3__116allocator_traitsINS_9allocatorINS_11__hash_nodeINS_17__hash_value_typeIiNS_13unordered_mapIiiNS_4hashIiEENS_8equal_toIiEENS1_INS_4pairIKiiEEEEEEEEPvEEEEE8max_sizeB8ue170006ISH_vEEmRKSH_, symObjAddr: 0x9254, symBinAddr: 0x10000D564, symSize: 0x24 }
  - { offsetInCU: 0x29155, offset: 0x33124, size: 0x8, addend: 0x0, symName: __ZNKSt3__19allocatorINS_11__hash_nodeINS_17__hash_value_typeIiNS_13unordered_mapIiiNS_4hashIiEENS_8equal_toIiEENS0_INS_4pairIKiiEEEEEEEEPvEEE8max_sizeB8ue170006Ev, symObjAddr: 0x9278, symBinAddr: 0x10000D588, symSize: 0x14 }
  - { offsetInCU: 0x29179, offset: 0x33148, size: 0x8, addend: 0x0, symName: __ZNSt3__122__hash_node_destructorINS_9allocatorINS_11__hash_nodeINS_17__hash_value_typeIiNS_13unordered_mapIiiNS_4hashIiEENS_8equal_toIiEENS1_INS_4pairIKiiEEEEEEEEPvEEEEEC2B8ue170006ERSH_b, symObjAddr: 0x928C, symBinAddr: 0x10000D59C, symSize: 0x38 }
  - { offsetInCU: 0x291BF, offset: 0x3318E, size: 0x8, addend: 0x0, symName: __ZNSt3__110unique_ptrINS_11__hash_nodeINS_17__hash_value_typeIiNS_13unordered_mapIiiNS_4hashIiEENS_8equal_toIiEENS_9allocatorINS_4pairIKiiEEEEEEEEPvEENS_22__hash_node_destructorINS8_ISG_EEEEEC2B8ue170006ILb1EvEEPSG_NS_16__dependent_typeINS_27__unique_ptr_deleter_sfinaeISJ_EEXT_EE20__good_rval_ref_typeE, symObjAddr: 0x92C4, symBinAddr: 0x10000D5D4, symSize: 0x48 }
  - { offsetInCU: 0x2920E, offset: 0x331DD, size: 0x8, addend: 0x0, symName: __ZNSt3__117__compressed_pairIPNS_11__hash_nodeINS_17__hash_value_typeIiNS_13unordered_mapIiiNS_4hashIiEENS_8equal_toIiEENS_9allocatorINS_4pairIKiiEEEEEEEEPvEENS_22__hash_node_destructorINS8_ISG_EEEEEC1B8ue170006IRSH_SK_EEOT_OT0_, symObjAddr: 0x930C, symBinAddr: 0x10000D61C, symSize: 0x3C }
  - { offsetInCU: 0x29264, offset: 0x33233, size: 0x8, addend: 0x0, symName: __ZNSt3__117__compressed_pairIPNS_11__hash_nodeINS_17__hash_value_typeIiNS_13unordered_mapIiiNS_4hashIiEENS_8equal_toIiEENS_9allocatorINS_4pairIKiiEEEEEEEEPvEENS_22__hash_node_destructorINS8_ISG_EEEEEC2B8ue170006IRSH_SK_EEOT_OT0_, symObjAddr: 0x9348, symBinAddr: 0x10000D658, symSize: 0x48 }
  - { offsetInCU: 0x292BA, offset: 0x33289, size: 0x8, addend: 0x0, symName: __ZNSt3__122__compressed_pair_elemIPNS_11__hash_nodeINS_17__hash_value_typeIiNS_13unordered_mapIiiNS_4hashIiEENS_8equal_toIiEENS_9allocatorINS_4pairIKiiEEEEEEEEPvEELi0ELb0EEC2B8ue170006IRSH_vEEOT_, symObjAddr: 0x9390, symBinAddr: 0x10000D6A0, symSize: 0x24 }
  - { offsetInCU: 0x292FA, offset: 0x332C9, size: 0x8, addend: 0x0, symName: __ZNSt3__122__compressed_pair_elemINS_22__hash_node_destructorINS_9allocatorINS_11__hash_nodeINS_17__hash_value_typeIiNS_13unordered_mapIiiNS_4hashIiEENS_8equal_toIiEENS2_INS_4pairIKiiEEEEEEEEPvEEEEEELi1ELb0EEC2B8ue170006ISJ_vEEOT_, symObjAddr: 0x93B4, symBinAddr: 0x10000D6C4, symSize: 0x24 }
  - { offsetInCU: 0x2933A, offset: 0x33309, size: 0x8, addend: 0x0, symName: __ZNSt3__19allocatorINS_11__hash_nodeINS_17__hash_value_typeIiNS_13unordered_mapIiiNS_4hashIiEENS_8equal_toIiEENS0_INS_4pairIKiiEEEEEEEEPvEEE9constructB8ue170006INS8_IS9_SC_EEJRKNS_21piecewise_construct_tENS_5tupleIJRS9_EEENSM_IJEEEEEEvPT_DpOT0_, symObjAddr: 0x93D8, symBinAddr: 0x10000D6E8, symSize: 0x44 }
  - { offsetInCU: 0x293B4, offset: 0x33383, size: 0x8, addend: 0x0, symName: __ZNSt3__14pairIKiNS_13unordered_mapIiiNS_4hashIiEENS_8equal_toIiEENS_9allocatorINS0_IS1_iEEEEEEEC1B8ue170006IJRS1_EJEEENS_21piecewise_construct_tENS_5tupleIJDpT_EEENSF_IJDpT0_EEE, symObjAddr: 0x941C, symBinAddr: 0x10000D72C, symSize: 0x44 }
  - { offsetInCU: 0x29419, offset: 0x333E8, size: 0x8, addend: 0x0, symName: __ZNSt3__14pairIKiNS_13unordered_mapIiiNS_4hashIiEENS_8equal_toIiEENS_9allocatorINS0_IS1_iEEEEEEEC1B8ue170006IJRS1_EJEJLm0EEJEEENS_21piecewise_construct_tERNS_5tupleIJDpT_EEERNSF_IJDpT0_EEENS_15__tuple_indicesIJXspT1_EEEENSO_IJXspT2_EEEE, symObjAddr: 0x9460, symBinAddr: 0x10000D770, symSize: 0x3C }
  - { offsetInCU: 0x294A4, offset: 0x33473, size: 0x8, addend: 0x0, symName: __ZNSt3__14pairIKiNS_13unordered_mapIiiNS_4hashIiEENS_8equal_toIiEENS_9allocatorINS0_IS1_iEEEEEEEC2B8ue170006IJRS1_EJEJLm0EEJEEENS_21piecewise_construct_tERNS_5tupleIJDpT_EEERNSF_IJDpT0_EEENS_15__tuple_indicesIJXspT1_EEEENSO_IJXspT2_EEEE, symObjAddr: 0x949C, symBinAddr: 0x10000D7AC, symSize: 0x4C }
  - { offsetInCU: 0x2952F, offset: 0x334FE, size: 0x8, addend: 0x0, symName: __ZNSt3__113unordered_mapIiiNS_4hashIiEENS_8equal_toIiEENS_9allocatorINS_4pairIKiiEEEEEC1B8ue170006Ev, symObjAddr: 0x94E8, symBinAddr: 0x10000D7F8, symSize: 0x2C }
  - { offsetInCU: 0x29557, offset: 0x33526, size: 0x8, addend: 0x0, symName: __ZNSt3__113unordered_mapIiiNS_4hashIiEENS_8equal_toIiEENS_9allocatorINS_4pairIKiiEEEEEC2B8ue170006Ev, symObjAddr: 0x9514, symBinAddr: 0x10000D824, symSize: 0x2C }
  - { offsetInCU: 0x2957F, offset: 0x3354E, size: 0x8, addend: 0x0, symName: __ZNSt3__112__hash_tableINS_17__hash_value_typeIiiEENS_22__unordered_map_hasherIiS2_NS_4hashIiEENS_8equal_toIiEELb1EEENS_21__unordered_map_equalIiS2_S7_S5_Lb1EEENS_9allocatorIS2_EEEC1Ev, symObjAddr: 0x9540, symBinAddr: 0x10000D850, symSize: 0x2C }
  - { offsetInCU: 0x295A9, offset: 0x33578, size: 0x8, addend: 0x0, symName: __ZNSt3__112__hash_tableINS_17__hash_value_typeIiiEENS_22__unordered_map_hasherIiS2_NS_4hashIiEENS_8equal_toIiEELb1EEENS_21__unordered_map_equalIiS2_S7_S5_Lb1EEENS_9allocatorIS2_EEEC2Ev, symObjAddr: 0x956C, symBinAddr: 0x10000D87C, symSize: 0x7C }
  - { offsetInCU: 0x295D3, offset: 0x335A2, size: 0x8, addend: 0x0, symName: __ZNSt3__110unique_ptrIA_PNS_16__hash_node_baseIPNS_11__hash_nodeINS_17__hash_value_typeIiiEEPvEEEENS_25__bucket_list_deallocatorINS_9allocatorIS9_EEEEEC1B8ue170006ILb1EvEEv, symObjAddr: 0x95E8, symBinAddr: 0x10000D8F8, symSize: 0x2C }
  - { offsetInCU: 0x29606, offset: 0x335D5, size: 0x8, addend: 0x0, symName: __ZNSt3__117__compressed_pairINS_16__hash_node_baseIPNS_11__hash_nodeINS_17__hash_value_typeIiiEEPvEEEENS_9allocatorIS6_EEEC1B8ue170006ILb1EvEEv, symObjAddr: 0x9614, symBinAddr: 0x10000D924, symSize: 0x2C }
  - { offsetInCU: 0x29639, offset: 0x33608, size: 0x8, addend: 0x0, symName: __ZNSt3__117__compressed_pairImNS_22__unordered_map_hasherIiNS_17__hash_value_typeIiiEENS_4hashIiEENS_8equal_toIiEELb1EEEEC1B8ue170006IiNS_18__default_init_tagEEEOT_OT0_, symObjAddr: 0x9640, symBinAddr: 0x10000D950, symSize: 0x3C }
  - { offsetInCU: 0x2968F, offset: 0x3365E, size: 0x8, addend: 0x0, symName: __ZNSt3__117__compressed_pairIfNS_21__unordered_map_equalIiNS_17__hash_value_typeIiiEENS_8equal_toIiEENS_4hashIiEELb1EEEEC1B8ue170006IfNS_18__default_init_tagEEEOT_OT0_, symObjAddr: 0x967C, symBinAddr: 0x10000D98C, symSize: 0x3C }
  - { offsetInCU: 0x296E5, offset: 0x336B4, size: 0x8, addend: 0x0, symName: __ZNSt3__110unique_ptrIA_PNS_16__hash_node_baseIPNS_11__hash_nodeINS_17__hash_value_typeIiiEEPvEEEENS_25__bucket_list_deallocatorINS_9allocatorIS9_EEEEEC2B8ue170006ILb1EvEEv, symObjAddr: 0x96B8, symBinAddr: 0x10000D9C8, symSize: 0x3C }
  - { offsetInCU: 0x29718, offset: 0x336E7, size: 0x8, addend: 0x0, symName: __ZNSt3__117__compressed_pairIPPNS_16__hash_node_baseIPNS_11__hash_nodeINS_17__hash_value_typeIiiEEPvEEEENS_25__bucket_list_deallocatorINS_9allocatorIS9_EEEEEC1B8ue170006INS_16__value_init_tagESH_EEOT_OT0_, symObjAddr: 0x96F4, symBinAddr: 0x10000DA04, symSize: 0x3C }
  - { offsetInCU: 0x2976E, offset: 0x3373D, size: 0x8, addend: 0x0, symName: __ZNSt3__117__compressed_pairIPPNS_16__hash_node_baseIPNS_11__hash_nodeINS_17__hash_value_typeIiiEEPvEEEENS_25__bucket_list_deallocatorINS_9allocatorIS9_EEEEEC2B8ue170006INS_16__value_init_tagESH_EEOT_OT0_, symObjAddr: 0x9730, symBinAddr: 0x10000DA40, symSize: 0x40 }
  - { offsetInCU: 0x297C4, offset: 0x33793, size: 0x8, addend: 0x0, symName: __ZNSt3__122__compressed_pair_elemIPPNS_16__hash_node_baseIPNS_11__hash_nodeINS_17__hash_value_typeIiiEEPvEEEELi0ELb0EEC2B8ue170006ENS_16__value_init_tagE, symObjAddr: 0x9770, symBinAddr: 0x10000DA80, symSize: 0x18 }
  - { offsetInCU: 0x297F6, offset: 0x337C5, size: 0x8, addend: 0x0, symName: __ZNSt3__122__compressed_pair_elemINS_25__bucket_list_deallocatorINS_9allocatorIPNS_16__hash_node_baseIPNS_11__hash_nodeINS_17__hash_value_typeIiiEEPvEEEEEEEELi1ELb0EEC2B8ue170006ENS_16__value_init_tagE, symObjAddr: 0x9788, symBinAddr: 0x10000DA98, symSize: 0x2C }
  - { offsetInCU: 0x29828, offset: 0x337F7, size: 0x8, addend: 0x0, symName: __ZNSt3__125__bucket_list_deallocatorINS_9allocatorIPNS_16__hash_node_baseIPNS_11__hash_nodeINS_17__hash_value_typeIiiEEPvEEEEEEEC1B8ue170006Ev, symObjAddr: 0x97B4, symBinAddr: 0x10000DAC4, symSize: 0x2C }
  - { offsetInCU: 0x29850, offset: 0x3381F, size: 0x8, addend: 0x0, symName: __ZNSt3__125__bucket_list_deallocatorINS_9allocatorIPNS_16__hash_node_baseIPNS_11__hash_nodeINS_17__hash_value_typeIiiEEPvEEEEEEEC2B8ue170006Ev, symObjAddr: 0x97E0, symBinAddr: 0x10000DAF0, symSize: 0x40 }
  - { offsetInCU: 0x29878, offset: 0x33847, size: 0x8, addend: 0x0, symName: __ZNSt3__117__compressed_pairImNS_9allocatorIPNS_16__hash_node_baseIPNS_11__hash_nodeINS_17__hash_value_typeIiiEEPvEEEEEEEC1B8ue170006IiNS_18__default_init_tagEEEOT_OT0_, symObjAddr: 0x9820, symBinAddr: 0x10000DB30, symSize: 0x3C }
  - { offsetInCU: 0x298CE, offset: 0x3389D, size: 0x8, addend: 0x0, symName: __ZNSt3__117__compressed_pairImNS_9allocatorIPNS_16__hash_node_baseIPNS_11__hash_nodeINS_17__hash_value_typeIiiEEPvEEEEEEEC2B8ue170006IiNS_18__default_init_tagEEEOT_OT0_, symObjAddr: 0x985C, symBinAddr: 0x10000DB6C, symSize: 0x40 }
  - { offsetInCU: 0x29924, offset: 0x338F3, size: 0x8, addend: 0x0, symName: __ZNSt3__122__compressed_pair_elemINS_9allocatorIPNS_16__hash_node_baseIPNS_11__hash_nodeINS_17__hash_value_typeIiiEEPvEEEEEELi1ELb1EEC2B8ue170006ENS_18__default_init_tagE, symObjAddr: 0x989C, symBinAddr: 0x10000DBAC, symSize: 0x2C }
  - { offsetInCU: 0x29956, offset: 0x33925, size: 0x8, addend: 0x0, symName: __ZNSt3__19allocatorIPNS_16__hash_node_baseIPNS_11__hash_nodeINS_17__hash_value_typeIiiEEPvEEEEEC2B8ue170006Ev, symObjAddr: 0x98C8, symBinAddr: 0x10000DBD8, symSize: 0x2C }
  - { offsetInCU: 0x2997E, offset: 0x3394D, size: 0x8, addend: 0x0, symName: __ZNSt3__116__non_trivial_ifILb1ENS_9allocatorIPNS_16__hash_node_baseIPNS_11__hash_nodeINS_17__hash_value_typeIiiEEPvEEEEEEEC2B8ue170006Ev, symObjAddr: 0x98F4, symBinAddr: 0x10000DC04, symSize: 0x14 }
  - { offsetInCU: 0x299A6, offset: 0x33975, size: 0x8, addend: 0x0, symName: __ZNSt3__117__compressed_pairINS_16__hash_node_baseIPNS_11__hash_nodeINS_17__hash_value_typeIiiEEPvEEEENS_9allocatorIS6_EEEC2B8ue170006ILb1EvEEv, symObjAddr: 0x9908, symBinAddr: 0x10000DC18, symSize: 0x34 }
  - { offsetInCU: 0x299D9, offset: 0x339A8, size: 0x8, addend: 0x0, symName: __ZNSt3__122__compressed_pair_elemINS_16__hash_node_baseIPNS_11__hash_nodeINS_17__hash_value_typeIiiEEPvEEEELi0ELb0EEC2B8ue170006ENS_16__value_init_tagE, symObjAddr: 0x993C, symBinAddr: 0x10000DC4C, symSize: 0x2C }
  - { offsetInCU: 0x29A0B, offset: 0x339DA, size: 0x8, addend: 0x0, symName: __ZNSt3__122__compressed_pair_elemINS_9allocatorINS_11__hash_nodeINS_17__hash_value_typeIiiEEPvEEEELi1ELb1EEC2B8ue170006ENS_16__value_init_tagE, symObjAddr: 0x9968, symBinAddr: 0x10000DC78, symSize: 0x2C }
  - { offsetInCU: 0x29A3D, offset: 0x33A0C, size: 0x8, addend: 0x0, symName: __ZNSt3__116__hash_node_baseIPNS_11__hash_nodeINS_17__hash_value_typeIiiEEPvEEEC1B8ue170006Ev, symObjAddr: 0x9994, symBinAddr: 0x10000DCA4, symSize: 0x2C }
  - { offsetInCU: 0x29A65, offset: 0x33A34, size: 0x8, addend: 0x0, symName: __ZNSt3__116__hash_node_baseIPNS_11__hash_nodeINS_17__hash_value_typeIiiEEPvEEEC2B8ue170006Ev, symObjAddr: 0x99C0, symBinAddr: 0x10000DCD0, symSize: 0x18 }
  - { offsetInCU: 0x29A8D, offset: 0x33A5C, size: 0x8, addend: 0x0, symName: __ZNSt3__19allocatorINS_11__hash_nodeINS_17__hash_value_typeIiiEEPvEEEC2B8ue170006Ev, symObjAddr: 0x99D8, symBinAddr: 0x10000DCE8, symSize: 0x2C }
  - { offsetInCU: 0x29AB5, offset: 0x33A84, size: 0x8, addend: 0x0, symName: __ZNSt3__116__non_trivial_ifILb1ENS_9allocatorINS_11__hash_nodeINS_17__hash_value_typeIiiEEPvEEEEEC2B8ue170006Ev, symObjAddr: 0x9A04, symBinAddr: 0x10000DD14, symSize: 0x14 }
  - { offsetInCU: 0x29ADD, offset: 0x33AAC, size: 0x8, addend: 0x0, symName: __ZNSt3__117__compressed_pairImNS_22__unordered_map_hasherIiNS_17__hash_value_typeIiiEENS_4hashIiEENS_8equal_toIiEELb1EEEEC2B8ue170006IiNS_18__default_init_tagEEEOT_OT0_, symObjAddr: 0x9A18, symBinAddr: 0x10000DD28, symSize: 0x40 }
  - { offsetInCU: 0x29B33, offset: 0x33B02, size: 0x8, addend: 0x0, symName: __ZNSt3__122__compressed_pair_elemINS_22__unordered_map_hasherIiNS_17__hash_value_typeIiiEENS_4hashIiEENS_8equal_toIiEELb1EEELi1ELb1EEC2B8ue170006ENS_18__default_init_tagE, symObjAddr: 0x9A58, symBinAddr: 0x10000DD68, symSize: 0x2C }
  - { offsetInCU: 0x29B65, offset: 0x33B34, size: 0x8, addend: 0x0, symName: __ZNSt3__122__unordered_map_hasherIiNS_17__hash_value_typeIiiEENS_4hashIiEENS_8equal_toIiEELb1EEC2B8ue170006Ev, symObjAddr: 0x9A84, symBinAddr: 0x10000DD94, symSize: 0x14 }
  - { offsetInCU: 0x29B8D, offset: 0x33B5C, size: 0x8, addend: 0x0, symName: __ZNSt3__117__compressed_pairIfNS_21__unordered_map_equalIiNS_17__hash_value_typeIiiEENS_8equal_toIiEENS_4hashIiEELb1EEEEC2B8ue170006IfNS_18__default_init_tagEEEOT_OT0_, symObjAddr: 0x9A98, symBinAddr: 0x10000DDA8, symSize: 0x40 }
  - { offsetInCU: 0x29BE3, offset: 0x33BB2, size: 0x8, addend: 0x0, symName: __ZNSt3__122__compressed_pair_elemINS_21__unordered_map_equalIiNS_17__hash_value_typeIiiEENS_8equal_toIiEENS_4hashIiEELb1EEELi1ELb1EEC2B8ue170006ENS_18__default_init_tagE, symObjAddr: 0x9AD8, symBinAddr: 0x10000DDE8, symSize: 0x2C }
  - { offsetInCU: 0x29C15, offset: 0x33BE4, size: 0x8, addend: 0x0, symName: __ZNSt3__121__unordered_map_equalIiNS_17__hash_value_typeIiiEENS_8equal_toIiEENS_4hashIiEELb1EEC2B8ue170006Ev, symObjAddr: 0x9B04, symBinAddr: 0x10000DE14, symSize: 0x14 }
  - { offsetInCU: 0x29C3D, offset: 0x33C0C, size: 0x8, addend: 0x0, symName: __ZNSt3__117__compressed_pairIPNS_11__hash_nodeINS_17__hash_value_typeIiNS_13unordered_mapIiiNS_4hashIiEENS_8equal_toIiEENS_9allocatorINS_4pairIKiiEEEEEEEEPvEENS_22__hash_node_destructorINS8_ISG_EEEEE6secondB8ue170006Ev, symObjAddr: 0x9B18, symBinAddr: 0x10000DE28, symSize: 0x28 }
  - { offsetInCU: 0x29C61, offset: 0x33C30, size: 0x8, addend: 0x0, symName: __ZNSt3__122__compressed_pair_elemINS_22__hash_node_destructorINS_9allocatorINS_11__hash_nodeINS_17__hash_value_typeIiNS_13unordered_mapIiiNS_4hashIiEENS_8equal_toIiEENS2_INS_4pairIKiiEEEEEEEEPvEEEEEELi1ELb0EE5__getB8ue170006Ev, symObjAddr: 0x9B40, symBinAddr: 0x10000DE50, symSize: 0x14 }
  - { offsetInCU: 0x29C85, offset: 0x33C54, size: 0x8, addend: 0x0, symName: __ZNSt3__117__compressed_pairImNS_22__unordered_map_hasherIiNS_17__hash_value_typeIiNS_13unordered_mapIiiNS_4hashIiEENS_8equal_toIiEENS_9allocatorINS_4pairIKiiEEEEEEEES5_S7_Lb1EEEE5firstB8ue170006Ev, symObjAddr: 0x9B54, symBinAddr: 0x10000DE64, symSize: 0x24 }
  - { offsetInCU: 0x29CA9, offset: 0x33C78, size: 0x8, addend: 0x0, symName: __ZNSt3__117__compressed_pairIfNS_21__unordered_map_equalIiNS_17__hash_value_typeIiNS_13unordered_mapIiiNS_4hashIiEENS_8equal_toIiEENS_9allocatorINS_4pairIKiiEEEEEEEES7_S5_Lb1EEEE5firstB8ue170006Ev, symObjAddr: 0x9B78, symBinAddr: 0x10000DE88, symSize: 0x24 }
  - { offsetInCU: 0x29CCD, offset: 0x33C9C, size: 0x8, addend: 0x0, symName: __ZNSt3__112__hash_tableINS_17__hash_value_typeIiNS_13unordered_mapIiiNS_4hashIiEENS_8equal_toIiEENS_9allocatorINS_4pairIKiiEEEEEEEENS_22__unordered_map_hasherIiSD_S4_S6_Lb1EEENS_21__unordered_map_equalIiSD_S6_S4_Lb1EEENS7_ISD_EEE8__rehashILb1EEEvm, symObjAddr: 0x9B9C, symBinAddr: 0x10000DEAC, symSize: 0x1A8 }
  - { offsetInCU: 0x29D1B, offset: 0x33CEA, size: 0x8, addend: 0x0, symName: __ZNSt3__112__hash_tableINS_17__hash_value_typeIiNS_13unordered_mapIiiNS_4hashIiEENS_8equal_toIiEENS_9allocatorINS_4pairIKiiEEEEEEEENS_22__unordered_map_hasherIiSD_S4_S6_Lb1EEENS_21__unordered_map_equalIiSD_S6_S4_Lb1EEENS7_ISD_EEE11__do_rehashILb1EEEvm, symObjAddr: 0x9D44, symBinAddr: 0x10000E054, symSize: 0x288 }
  - { offsetInCU: 0x29DFC, offset: 0x33DCB, size: 0x8, addend: 0x0, symName: __ZNSt3__110unique_ptrIA_PNS_16__hash_node_baseIPNS_11__hash_nodeINS_17__hash_value_typeIiNS_13unordered_mapIiiNS_4hashIiEENS_8equal_toIiEENS_9allocatorINS_4pairIKiiEEEEEEEEPvEEEENS_25__bucket_list_deallocatorINS9_ISK_EEEEE11get_deleterB8ue170006Ev, symObjAddr: 0x9FCC, symBinAddr: 0x10000E2DC, symSize: 0x24 }
  - { offsetInCU: 0x29E20, offset: 0x33DEF, size: 0x8, addend: 0x0, symName: __ZNSt3__110unique_ptrIA_PNS_16__hash_node_baseIPNS_11__hash_nodeINS_17__hash_value_typeIiNS_13unordered_mapIiiNS_4hashIiEENS_8equal_toIiEENS_9allocatorINS_4pairIKiiEEEEEEEEPvEEEENS_25__bucket_list_deallocatorINS9_ISK_EEEEE5resetB8ue170006IPSK_EENS_9enable_ifIXsr28_CheckArrayPointerConversionIT_EE5valueEvE4typeEST_, symObjAddr: 0x9FF0, symBinAddr: 0x10000E300, symSize: 0x78 }
  - { offsetInCU: 0x29E6B, offset: 0x33E3A, size: 0x8, addend: 0x0, symName: __ZNSt3__116allocator_traitsINS_9allocatorIPNS_16__hash_node_baseIPNS_11__hash_nodeINS_17__hash_value_typeIiNS_13unordered_mapIiiNS_4hashIiEENS_8equal_toIiEENS1_INS_4pairIKiiEEEEEEEEPvEEEEEEE8allocateB8ue170006ERSL_m, symObjAddr: 0xA068, symBinAddr: 0x10000E378, symSize: 0x2C }
  - { offsetInCU: 0x29E9D, offset: 0x33E6C, size: 0x8, addend: 0x0, symName: __ZNSt3__19allocatorIPNS_16__hash_node_baseIPNS_11__hash_nodeINS_17__hash_value_typeIiNS_13unordered_mapIiiNS_4hashIiEENS_8equal_toIiEENS0_INS_4pairIKiiEEEEEEEEPvEEEEE8allocateB8ue170006Em, symObjAddr: 0xA094, symBinAddr: 0x10000E3A4, symSize: 0x58 }
  - { offsetInCU: 0x29ED9, offset: 0x33EA8, size: 0x8, addend: 0x0, symName: __ZNSt3__116allocator_traitsINS_9allocatorIPNS_16__hash_node_baseIPNS_11__hash_nodeINS_17__hash_value_typeIiNS_13unordered_mapIiiNS_4hashIiEENS_8equal_toIiEENS1_INS_4pairIKiiEEEEEEEEPvEEEEEEE8max_sizeB8ue170006ISL_vEEmRKSL_, symObjAddr: 0xA0EC, symBinAddr: 0x10000E3FC, symSize: 0x24 }
  - { offsetInCU: 0x29F06, offset: 0x33ED5, size: 0x8, addend: 0x0, symName: __ZNKSt3__19allocatorIPNS_16__hash_node_baseIPNS_11__hash_nodeINS_17__hash_value_typeIiNS_13unordered_mapIiiNS_4hashIiEENS_8equal_toIiEENS0_INS_4pairIKiiEEEEEEEEPvEEEEE8max_sizeB8ue170006Ev, symObjAddr: 0xA110, symBinAddr: 0x10000E420, symSize: 0x14 }
  - { offsetInCU: 0x29F2A, offset: 0x33EF9, size: 0x8, addend: 0x0, symName: __ZNKSt3__117__compressed_pairIPNS_11__hash_nodeINS_17__hash_value_typeIiNS_13unordered_mapIiiNS_4hashIiEENS_8equal_toIiEENS_9allocatorINS_4pairIKiiEEEEEEEEPvEENS_22__hash_node_destructorINS8_ISG_EEEEE5firstB8ue170006Ev, symObjAddr: 0xA124, symBinAddr: 0x10000E434, symSize: 0x24 }
  - { offsetInCU: 0x29F4E, offset: 0x33F1D, size: 0x8, addend: 0x0, symName: __ZNKSt3__122__compressed_pair_elemIPNS_11__hash_nodeINS_17__hash_value_typeIiNS_13unordered_mapIiiNS_4hashIiEENS_8equal_toIiEENS_9allocatorINS_4pairIKiiEEEEEEEEPvEELi0ELb0EE5__getB8ue170006Ev, symObjAddr: 0xA148, symBinAddr: 0x10000E458, symSize: 0x14 }
  - { offsetInCU: 0x29F72, offset: 0x33F41, size: 0x8, addend: 0x0, symName: __ZNSt3__117__compressed_pairIPNS_11__hash_nodeINS_17__hash_value_typeIiNS_13unordered_mapIiiNS_4hashIiEENS_8equal_toIiEENS_9allocatorINS_4pairIKiiEEEEEEEEPvEENS_22__hash_node_destructorINS8_ISG_EEEEE5firstB8ue170006Ev, symObjAddr: 0xA15C, symBinAddr: 0x10000E46C, symSize: 0x24 }
  - { offsetInCU: 0x29F96, offset: 0x33F65, size: 0x8, addend: 0x0, symName: __ZNSt3__122__compressed_pair_elemIPNS_11__hash_nodeINS_17__hash_value_typeIiNS_13unordered_mapIiiNS_4hashIiEENS_8equal_toIiEENS_9allocatorINS_4pairIKiiEEEEEEEEPvEELi0ELb0EE5__getB8ue170006Ev, symObjAddr: 0xA180, symBinAddr: 0x10000E490, symSize: 0x14 }
  - { offsetInCU: 0x29FBA, offset: 0x33F89, size: 0x8, addend: 0x0, symName: __ZNSt3__110unique_ptrINS_11__hash_nodeINS_17__hash_value_typeIiNS_13unordered_mapIiiNS_4hashIiEENS_8equal_toIiEENS_9allocatorINS_4pairIKiiEEEEEEEEPvEENS_22__hash_node_destructorINS8_ISG_EEEEED2B8ue170006Ev, symObjAddr: 0xA194, symBinAddr: 0x10000E4A4, symSize: 0x30 }
  - { offsetInCU: 0x29FE2, offset: 0x33FB1, size: 0x8, addend: 0x0, symName: __ZNSt3__110unique_ptrINS_11__hash_nodeINS_17__hash_value_typeIiNS_13unordered_mapIiiNS_4hashIiEENS_8equal_toIiEENS_9allocatorINS_4pairIKiiEEEEEEEEPvEENS_22__hash_node_destructorINS8_ISG_EEEEE5resetB8ue170006EPSG_, symObjAddr: 0xA1C4, symBinAddr: 0x10000E4D4, symSize: 0x78 }
  - { offsetInCU: 0x2A024, offset: 0x33FF3, size: 0x8, addend: 0x0, symName: __ZNSt3__122__hash_node_destructorINS_9allocatorINS_11__hash_nodeINS_17__hash_value_typeIiNS_13unordered_mapIiiNS_4hashIiEENS_8equal_toIiEENS1_INS_4pairIKiiEEEEEEEEPvEEEEEclB8ue170006EPSG_, symObjAddr: 0xA23C, symBinAddr: 0x10000E54C, symSize: 0x94 }
  - { offsetInCU: 0x2A057, offset: 0x34026, size: 0x8, addend: 0x0, symName: __ZNSt3__115__hash_iteratorIPNS_11__hash_nodeINS_17__hash_value_typeIiNS_13unordered_mapIiiNS_4hashIiEENS_8equal_toIiEENS_9allocatorINS_4pairIKiiEEEEEEEEPvEEEC2B8ue170006EPNS_16__hash_node_baseISH_EE, symObjAddr: 0xA2D0, symBinAddr: 0x10000E5E0, symSize: 0x20 }
  - { offsetInCU: 0x2A08E, offset: 0x3405D, size: 0x8, addend: 0x0, symName: __ZNSt3__14pairINS_15__hash_iteratorIPNS_11__hash_nodeINS_17__hash_value_typeIiNS_13unordered_mapIiiNS_4hashIiEENS_8equal_toIiEENS_9allocatorINS0_IKiiEEEEEEEEPvEEEEbEC2B8ue170006ISI_RbLSF_0EEEOT_OT0_, symObjAddr: 0xA2F0, symBinAddr: 0x10000E600, symSize: 0x38 }
  - { offsetInCU: 0x2A0EA, offset: 0x340B9, size: 0x8, addend: 0x0, symName: __ZNSt3__114pointer_traitsIPNS_17__hash_value_typeIiNS_13unordered_mapIiiNS_4hashIiEENS_8equal_toIiEENS_9allocatorINS_4pairIKiiEEEEEEEEE10pointer_toB8ue170006ERSD_, symObjAddr: 0xA328, symBinAddr: 0x10000E638, symSize: 0x14 }
  - { offsetInCU: 0x2A10C, offset: 0x340DB, size: 0x8, addend: 0x0, symName: __ZNSt3__14pairIKiiEC2B8ue170006IRiS4_LPv0EEEOT_OT0_, symObjAddr: 0xA33C, symBinAddr: 0x10000E64C, symSize: 0x34 }
  - { offsetInCU: 0x2A168, offset: 0x34137, size: 0x8, addend: 0x0, symName: __ZNSt3__112__hash_tableINS_17__hash_value_typeIiiEENS_22__unordered_map_hasherIiS2_NS_4hashIiEENS_8equal_toIiEELb1EEENS_21__unordered_map_equalIiS2_S7_S5_Lb1EEENS_9allocatorIS2_EEE15__assign_uniqueIPKNS_4pairIKiiEEEEvT_SK_, symObjAddr: 0xA370, symBinAddr: 0x10000E680, symSize: 0x1B4 }
  - { offsetInCU: 0x2A1DF, offset: 0x341AE, size: 0x8, addend: 0x0, symName: __ZNKSt16initializer_listINSt3__14pairIKiiEEE5beginB8ue170006Ev, symObjAddr: 0xA524, symBinAddr: 0x10000E834, symSize: 0x18 }
  - { offsetInCU: 0x2A203, offset: 0x341D2, size: 0x8, addend: 0x0, symName: __ZNKSt16initializer_listINSt3__14pairIKiiEEE3endB8ue170006Ev, symObjAddr: 0xA53C, symBinAddr: 0x10000E84C, symSize: 0x20 }
  - { offsetInCU: 0x2A227, offset: 0x341F6, size: 0x8, addend: 0x0, symName: __ZNKSt3__112__hash_tableINS_17__hash_value_typeIiiEENS_22__unordered_map_hasherIiS2_NS_4hashIiEENS_8equal_toIiEELb1EEENS_21__unordered_map_equalIiS2_S7_S5_Lb1EEENS_9allocatorIS2_EEE12bucket_countB8ue170006Ev, symObjAddr: 0xA55C, symBinAddr: 0x10000E86C, symSize: 0x28 }
  - { offsetInCU: 0x2A24B, offset: 0x3421A, size: 0x8, addend: 0x0, symName: __ZNSt3__112__hash_tableINS_17__hash_value_typeIiiEENS_22__unordered_map_hasherIiS2_NS_4hashIiEENS_8equal_toIiEELb1EEENS_21__unordered_map_equalIiS2_S7_S5_Lb1EEENS_9allocatorIS2_EEE8__detachEv, symObjAddr: 0xA584, symBinAddr: 0x10000E894, symSize: 0xB4 }
  - { offsetInCU: 0x2A2A4, offset: 0x34273, size: 0x8, addend: 0x0, symName: __ZNSt3__117__hash_value_typeIiiEaSB8ue170006IRKNS_4pairIKiiEEvEERS1_OT_, symObjAddr: 0xA638, symBinAddr: 0x10000E948, symSize: 0x54 }
  - { offsetInCU: 0x2A2E1, offset: 0x342B0, size: 0x8, addend: 0x0, symName: __ZNSt3__112__hash_tableINS_17__hash_value_typeIiiEENS_22__unordered_map_hasherIiS2_NS_4hashIiEENS_8equal_toIiEELb1EEENS_21__unordered_map_equalIiS2_S7_S5_Lb1EEENS_9allocatorIS2_EEE20__node_insert_uniqueEPNS_11__hash_nodeIS2_PvEE, symObjAddr: 0xA68C, symBinAddr: 0x10000E99C, symSize: 0xC4 }
  - { offsetInCU: 0x2A334, offset: 0x34303, size: 0x8, addend: 0x0, symName: __ZNSt3__112__hash_tableINS_17__hash_value_typeIiiEENS_22__unordered_map_hasherIiS2_NS_4hashIiEENS_8equal_toIiEELb1EEENS_21__unordered_map_equalIiS2_S7_S5_Lb1EEENS_9allocatorIS2_EEE15__insert_uniqueB8ue170006ERKNS_4pairIKiiEE, symObjAddr: 0xA750, symBinAddr: 0x10000EA60, symSize: 0x50 }
  - { offsetInCU: 0x2A367, offset: 0x34336, size: 0x8, addend: 0x0, symName: __ZNKSt3__110unique_ptrIA_PNS_16__hash_node_baseIPNS_11__hash_nodeINS_17__hash_value_typeIiiEEPvEEEENS_25__bucket_list_deallocatorINS_9allocatorIS9_EEEEE11get_deleterB8ue170006Ev, symObjAddr: 0xA7A0, symBinAddr: 0x10000EAB0, symSize: 0x24 }
  - { offsetInCU: 0x2A38B, offset: 0x3435A, size: 0x8, addend: 0x0, symName: __ZNKSt3__125__bucket_list_deallocatorINS_9allocatorIPNS_16__hash_node_baseIPNS_11__hash_nodeINS_17__hash_value_typeIiiEEPvEEEEEEE4sizeB8ue170006Ev, symObjAddr: 0xA7C4, symBinAddr: 0x10000EAD4, symSize: 0x28 }
  - { offsetInCU: 0x2A3AF, offset: 0x3437E, size: 0x8, addend: 0x0, symName: __ZNKSt3__117__compressed_pairIPPNS_16__hash_node_baseIPNS_11__hash_nodeINS_17__hash_value_typeIiiEEPvEEEENS_25__bucket_list_deallocatorINS_9allocatorIS9_EEEEE6secondB8ue170006Ev, symObjAddr: 0xA7EC, symBinAddr: 0x10000EAFC, symSize: 0x28 }
  - { offsetInCU: 0x2A3D3, offset: 0x343A2, size: 0x8, addend: 0x0, symName: __ZNKSt3__122__compressed_pair_elemINS_25__bucket_list_deallocatorINS_9allocatorIPNS_16__hash_node_baseIPNS_11__hash_nodeINS_17__hash_value_typeIiiEEPvEEEEEEEELi1ELb0EE5__getB8ue170006Ev, symObjAddr: 0xA814, symBinAddr: 0x10000EB24, symSize: 0x14 }
  - { offsetInCU: 0x2A3F7, offset: 0x343C6, size: 0x8, addend: 0x0, symName: __ZNKSt3__117__compressed_pairImNS_9allocatorIPNS_16__hash_node_baseIPNS_11__hash_nodeINS_17__hash_value_typeIiiEEPvEEEEEEE5firstB8ue170006Ev, symObjAddr: 0xA828, symBinAddr: 0x10000EB38, symSize: 0x24 }
  - { offsetInCU: 0x2A41B, offset: 0x343EA, size: 0x8, addend: 0x0, symName: __ZNKSt3__110unique_ptrIA_PNS_16__hash_node_baseIPNS_11__hash_nodeINS_17__hash_value_typeIiiEEPvEEEENS_25__bucket_list_deallocatorINS_9allocatorIS9_EEEEEixB8ue170006Em, symObjAddr: 0xA84C, symBinAddr: 0x10000EB5C, symSize: 0x34 }
  - { offsetInCU: 0x2A44E, offset: 0x3441D, size: 0x8, addend: 0x0, symName: __ZNSt3__112__hash_tableINS_17__hash_value_typeIiiEENS_22__unordered_map_hasherIiS2_NS_4hashIiEENS_8equal_toIiEELb1EEENS_21__unordered_map_equalIiS2_S7_S5_Lb1EEENS_9allocatorIS2_EEE4sizeB8ue170006Ev, symObjAddr: 0xA880, symBinAddr: 0x10000EB90, symSize: 0x28 }
  - { offsetInCU: 0x2A472, offset: 0x34441, size: 0x8, addend: 0x0, symName: __ZNKSt3__117__compressed_pairIPPNS_16__hash_node_baseIPNS_11__hash_nodeINS_17__hash_value_typeIiiEEPvEEEENS_25__bucket_list_deallocatorINS_9allocatorIS9_EEEEE5firstB8ue170006Ev, symObjAddr: 0xA8A8, symBinAddr: 0x10000EBB8, symSize: 0x24 }
  - { offsetInCU: 0x2A496, offset: 0x34465, size: 0x8, addend: 0x0, symName: __ZNKSt3__122__compressed_pair_elemIPPNS_16__hash_node_baseIPNS_11__hash_nodeINS_17__hash_value_typeIiiEEPvEEEELi0ELb0EE5__getB8ue170006Ev, symObjAddr: 0xA8CC, symBinAddr: 0x10000EBDC, symSize: 0x14 }
  - { offsetInCU: 0x2A4BA, offset: 0x34489, size: 0x8, addend: 0x0, symName: __ZNSt3__117__compressed_pairImNS_22__unordered_map_hasherIiNS_17__hash_value_typeIiiEENS_4hashIiEENS_8equal_toIiEELb1EEEE5firstB8ue170006Ev, symObjAddr: 0xA8E0, symBinAddr: 0x10000EBF0, symSize: 0x24 }
  - { offsetInCU: 0x2A4DE, offset: 0x344AD, size: 0x8, addend: 0x0, symName: __ZNSt3__117__hash_value_typeIiiE5__refB8ue170006Ev, symObjAddr: 0xA904, symBinAddr: 0x10000EC14, symSize: 0x44 }
  - { offsetInCU: 0x2A511, offset: 0x344E0, size: 0x8, addend: 0x0, symName: __ZNSt3__14pairIRiS1_EaSB8ue170006IKiiLPv0EEERS2_RKNS0_IT_T0_EE, symObjAddr: 0xA948, symBinAddr: 0x10000EC58, symSize: 0x38 }
  - { offsetInCU: 0x2A55C, offset: 0x3452B, size: 0x8, addend: 0x0, symName: __ZNSt3__14pairIRiS1_EC1B8ue170006ILb1ELPv0EEES1_S1_, symObjAddr: 0xA980, symBinAddr: 0x10000EC90, symSize: 0x3C }
  - { offsetInCU: 0x2A5B0, offset: 0x3457F, size: 0x8, addend: 0x0, symName: __ZNSt3__14pairIRiS1_EC2B8ue170006ILb1ELPv0EEES1_S1_, symObjAddr: 0xA9BC, symBinAddr: 0x10000ECCC, symSize: 0x2C }
  - { offsetInCU: 0x2A604, offset: 0x345D3, size: 0x8, addend: 0x0, symName: __ZNSt3__112__hash_tableINS_17__hash_value_typeIiiEENS_22__unordered_map_hasherIiS2_NS_4hashIiEENS_8equal_toIiEELb1EEENS_21__unordered_map_equalIiS2_S7_S5_Lb1EEENS_9allocatorIS2_EEE13hash_functionB8ue170006Ev, symObjAddr: 0xA9E8, symBinAddr: 0x10000ECF8, symSize: 0x28 }
  - { offsetInCU: 0x2A628, offset: 0x345F7, size: 0x8, addend: 0x0, symName: __ZNKSt3__122__unordered_map_hasherIiNS_17__hash_value_typeIiiEENS_4hashIiEENS_8equal_toIiEELb1EEclB8ue170006ERKS2_, symObjAddr: 0xAA10, symBinAddr: 0x10000ED20, symSize: 0x40 }
  - { offsetInCU: 0x2A65B, offset: 0x3462A, size: 0x8, addend: 0x0, symName: __ZNSt3__112__hash_tableINS_17__hash_value_typeIiiEENS_22__unordered_map_hasherIiS2_NS_4hashIiEENS_8equal_toIiEELb1EEENS_21__unordered_map_equalIiS2_S7_S5_Lb1EEENS_9allocatorIS2_EEE28__node_insert_unique_prepareB8ue170006EmRS2_, symObjAddr: 0xAA50, symBinAddr: 0x10000ED60, symSize: 0x290 }
  - { offsetInCU: 0x2A6DA, offset: 0x346A9, size: 0x8, addend: 0x0, symName: __ZNKSt3__116__hash_node_baseIPNS_11__hash_nodeINS_17__hash_value_typeIiiEEPvEEE6__hashB8ue170006Ev, symObjAddr: 0xACE0, symBinAddr: 0x10000EFF0, symSize: 0x18 }
  - { offsetInCU: 0x2A6FE, offset: 0x346CD, size: 0x8, addend: 0x0, symName: __ZNSt3__112__hash_tableINS_17__hash_value_typeIiiEENS_22__unordered_map_hasherIiS2_NS_4hashIiEENS_8equal_toIiEELb1EEENS_21__unordered_map_equalIiS2_S7_S5_Lb1EEENS_9allocatorIS2_EEE28__node_insert_unique_performB8ue170006EPNS_11__hash_nodeIS2_PvEE, symObjAddr: 0xACF8, symBinAddr: 0x10000F008, symSize: 0x154 }
  - { offsetInCU: 0x2A760, offset: 0x3472F, size: 0x8, addend: 0x0, symName: __ZNSt3__116__hash_node_baseIPNS_11__hash_nodeINS_17__hash_value_typeIiiEEPvEEE5__ptrB8ue170006Ev, symObjAddr: 0xAE4C, symBinAddr: 0x10000F15C, symSize: 0x24 }
  - { offsetInCU: 0x2A784, offset: 0x34753, size: 0x8, addend: 0x0, symName: __ZNSt3__115__hash_iteratorIPNS_11__hash_nodeINS_17__hash_value_typeIiiEEPvEEEC1B8ue170006EPNS_16__hash_node_baseIS6_EE, symObjAddr: 0xAE70, symBinAddr: 0x10000F180, symSize: 0x34 }
  - { offsetInCU: 0x2A7C0, offset: 0x3478F, size: 0x8, addend: 0x0, symName: __ZNSt3__14pairINS_15__hash_iteratorIPNS_11__hash_nodeINS_17__hash_value_typeIiiEEPvEEEEbEC1B8ue170006IS8_RbLS5_0EEEOT_OT0_, symObjAddr: 0xAEA4, symBinAddr: 0x10000F1B4, symSize: 0x3C }
  - { offsetInCU: 0x2A81C, offset: 0x347EB, size: 0x8, addend: 0x0, symName: __ZNSt3__117__compressed_pairImNS_22__unordered_map_hasherIiNS_17__hash_value_typeIiiEENS_4hashIiEENS_8equal_toIiEELb1EEEE6secondB8ue170006Ev, symObjAddr: 0xAEE0, symBinAddr: 0x10000F1F0, symSize: 0x24 }
  - { offsetInCU: 0x2A840, offset: 0x3480F, size: 0x8, addend: 0x0, symName: __ZNSt3__122__compressed_pair_elemINS_22__unordered_map_hasherIiNS_17__hash_value_typeIiiEENS_4hashIiEENS_8equal_toIiEELb1EEELi1ELb1EE5__getB8ue170006Ev, symObjAddr: 0xAF04, symBinAddr: 0x10000F214, symSize: 0x14 }
  - { offsetInCU: 0x2A864, offset: 0x34833, size: 0x8, addend: 0x0, symName: __ZNKSt3__117__hash_value_typeIiiE11__get_valueB8ue170006Ev, symObjAddr: 0xAF18, symBinAddr: 0x10000F228, symSize: 0x14 }
  - { offsetInCU: 0x2A888, offset: 0x34857, size: 0x8, addend: 0x0, symName: __ZNSt3__112__hash_tableINS_17__hash_value_typeIiiEENS_22__unordered_map_hasherIiS2_NS_4hashIiEENS_8equal_toIiEELb1EEENS_21__unordered_map_equalIiS2_S7_S5_Lb1EEENS_9allocatorIS2_EEE6key_eqB8ue170006Ev, symObjAddr: 0xAF2C, symBinAddr: 0x10000F23C, symSize: 0x28 }
  - { offsetInCU: 0x2A8AC, offset: 0x3487B, size: 0x8, addend: 0x0, symName: __ZNKSt3__121__unordered_map_equalIiNS_17__hash_value_typeIiiEENS_8equal_toIiEENS_4hashIiEELb1EEclB8ue170006ERKS2_S9_, symObjAddr: 0xAF54, symBinAddr: 0x10000F264, symSize: 0x54 }
  - { offsetInCU: 0x2A8EE, offset: 0x348BD, size: 0x8, addend: 0x0, symName: __ZNSt3__112__hash_tableINS_17__hash_value_typeIiiEENS_22__unordered_map_hasherIiS2_NS_4hashIiEENS_8equal_toIiEELb1EEENS_21__unordered_map_equalIiS2_S7_S5_Lb1EEENS_9allocatorIS2_EEE15max_load_factorB8ue170006Ev, symObjAddr: 0xAFA8, symBinAddr: 0x10000F2B8, symSize: 0x28 }
  - { offsetInCU: 0x2A912, offset: 0x348E1, size: 0x8, addend: 0x0, symName: __ZNSt3__112__hash_tableINS_17__hash_value_typeIiiEENS_22__unordered_map_hasherIiS2_NS_4hashIiEENS_8equal_toIiEELb1EEENS_21__unordered_map_equalIiS2_S7_S5_Lb1EEENS_9allocatorIS2_EEE15__rehash_uniqueB8ue170006Em, symObjAddr: 0xAFD0, symBinAddr: 0x10000F2E0, symSize: 0x2C }
  - { offsetInCU: 0x2A945, offset: 0x34914, size: 0x8, addend: 0x0, symName: __ZNSt3__117__compressed_pairIfNS_21__unordered_map_equalIiNS_17__hash_value_typeIiiEENS_8equal_toIiEENS_4hashIiEELb1EEEE6secondB8ue170006Ev, symObjAddr: 0xAFFC, symBinAddr: 0x10000F30C, symSize: 0x24 }
  - { offsetInCU: 0x2A969, offset: 0x34938, size: 0x8, addend: 0x0, symName: __ZNSt3__122__compressed_pair_elemINS_21__unordered_map_equalIiNS_17__hash_value_typeIiiEENS_8equal_toIiEENS_4hashIiEELb1EEELi1ELb1EE5__getB8ue170006Ev, symObjAddr: 0xB020, symBinAddr: 0x10000F330, symSize: 0x14 }
  - { offsetInCU: 0x2A98D, offset: 0x3495C, size: 0x8, addend: 0x0, symName: __ZNSt3__117__compressed_pairIfNS_21__unordered_map_equalIiNS_17__hash_value_typeIiiEENS_8equal_toIiEENS_4hashIiEELb1EEEE5firstB8ue170006Ev, symObjAddr: 0xB034, symBinAddr: 0x10000F344, symSize: 0x24 }
  - { offsetInCU: 0x2A9B1, offset: 0x34980, size: 0x8, addend: 0x0, symName: __ZNSt3__112__hash_tableINS_17__hash_value_typeIiiEENS_22__unordered_map_hasherIiS2_NS_4hashIiEENS_8equal_toIiEELb1EEENS_21__unordered_map_equalIiS2_S7_S5_Lb1EEENS_9allocatorIS2_EEE8__rehashILb1EEEvm, symObjAddr: 0xB058, symBinAddr: 0x10000F368, symSize: 0x1A8 }
  - { offsetInCU: 0x2A9FF, offset: 0x349CE, size: 0x8, addend: 0x0, symName: __ZNSt3__112__hash_tableINS_17__hash_value_typeIiiEENS_22__unordered_map_hasherIiS2_NS_4hashIiEENS_8equal_toIiEELb1EEENS_21__unordered_map_equalIiS2_S7_S5_Lb1EEENS_9allocatorIS2_EEE11__do_rehashILb1EEEvm, symObjAddr: 0xB200, symBinAddr: 0x10000F510, symSize: 0x288 }
  - { offsetInCU: 0x2AAE0, offset: 0x34AAF, size: 0x8, addend: 0x0, symName: __ZNSt3__110unique_ptrIA_PNS_16__hash_node_baseIPNS_11__hash_nodeINS_17__hash_value_typeIiiEEPvEEEENS_25__bucket_list_deallocatorINS_9allocatorIS9_EEEEE11get_deleterB8ue170006Ev, symObjAddr: 0xB488, symBinAddr: 0x10000F798, symSize: 0x24 }
  - { offsetInCU: 0x2AB04, offset: 0x34AD3, size: 0x8, addend: 0x0, symName: __ZNSt3__110unique_ptrIA_PNS_16__hash_node_baseIPNS_11__hash_nodeINS_17__hash_value_typeIiiEEPvEEEENS_25__bucket_list_deallocatorINS_9allocatorIS9_EEEEE5resetB8ue170006IPS9_EENS_9enable_ifIXsr28_CheckArrayPointerConversionIT_EE5valueEvE4typeESJ_, symObjAddr: 0xB4AC, symBinAddr: 0x10000F7BC, symSize: 0x78 }
  - { offsetInCU: 0x2AB4F, offset: 0x34B1E, size: 0x8, addend: 0x0, symName: __ZNSt3__116allocator_traitsINS_9allocatorIPNS_16__hash_node_baseIPNS_11__hash_nodeINS_17__hash_value_typeIiiEEPvEEEEEEE8allocateB8ue170006ERSB_m, symObjAddr: 0xB524, symBinAddr: 0x10000F834, symSize: 0x2C }
  - { offsetInCU: 0x2AB81, offset: 0x34B50, size: 0x8, addend: 0x0, symName: __ZNSt3__19allocatorIPNS_16__hash_node_baseIPNS_11__hash_nodeINS_17__hash_value_typeIiiEEPvEEEEE8allocateB8ue170006Em, symObjAddr: 0xB550, symBinAddr: 0x10000F860, symSize: 0x58 }
  - { offsetInCU: 0x2ABBD, offset: 0x34B8C, size: 0x8, addend: 0x0, symName: __ZNSt3__116allocator_traitsINS_9allocatorIPNS_16__hash_node_baseIPNS_11__hash_nodeINS_17__hash_value_typeIiiEEPvEEEEEEE8max_sizeB8ue170006ISB_vEEmRKSB_, symObjAddr: 0xB5A8, symBinAddr: 0x10000F8B8, symSize: 0x24 }
  - { offsetInCU: 0x2ABEA, offset: 0x34BB9, size: 0x8, addend: 0x0, symName: __ZNKSt3__19allocatorIPNS_16__hash_node_baseIPNS_11__hash_nodeINS_17__hash_value_typeIiiEEPvEEEEE8max_sizeB8ue170006Ev, symObjAddr: 0xB5CC, symBinAddr: 0x10000F8DC, symSize: 0x14 }
  - { offsetInCU: 0x2AC0E, offset: 0x34BDD, size: 0x8, addend: 0x0, symName: __ZNSt3__115__hash_iteratorIPNS_11__hash_nodeINS_17__hash_value_typeIiiEEPvEEEC2B8ue170006EPNS_16__hash_node_baseIS6_EE, symObjAddr: 0xB5E0, symBinAddr: 0x10000F8F0, symSize: 0x20 }
  - { offsetInCU: 0x2AC45, offset: 0x34C14, size: 0x8, addend: 0x0, symName: __ZNSt3__14pairINS_15__hash_iteratorIPNS_11__hash_nodeINS_17__hash_value_typeIiiEEPvEEEEbEC2B8ue170006IS8_RbLS5_0EEEOT_OT0_, symObjAddr: 0xB600, symBinAddr: 0x10000F910, symSize: 0x38 }
  - { offsetInCU: 0x2ACA1, offset: 0x34C70, size: 0x8, addend: 0x0, symName: __ZNSt3__112__hash_tableINS_17__hash_value_typeIiiEENS_22__unordered_map_hasherIiS2_NS_4hashIiEENS_8equal_toIiEELb1EEENS_21__unordered_map_equalIiS2_S7_S5_Lb1EEENS_9allocatorIS2_EEE25__emplace_unique_key_argsIiJRKNS_4pairIKiiEEEEENSF_INS_15__hash_iteratorIPNS_11__hash_nodeIS2_PvEEEEbEERKT_DpOT0_, symObjAddr: 0xB638, symBinAddr: 0x10000F948, symSize: 0x4A0 }
  - { offsetInCU: 0x2AD7F, offset: 0x34D4E, size: 0x8, addend: 0x0, symName: __ZNSt3__122__hash_key_value_typesINS_17__hash_value_typeIiiEEE9__get_keyB8ue170006ERKNS_4pairIKiiEE, symObjAddr: 0xBAD8, symBinAddr: 0x10000FDE8, symSize: 0x14 }
  - { offsetInCU: 0x2ADA1, offset: 0x34D70, size: 0x8, addend: 0x0, symName: __ZNKSt3__122__unordered_map_hasherIiNS_17__hash_value_typeIiiEENS_4hashIiEENS_8equal_toIiEELb1EEclB8ue170006ERKi, symObjAddr: 0xBAEC, symBinAddr: 0x10000FDFC, symSize: 0x30 }
  - { offsetInCU: 0x2ADD4, offset: 0x34DA3, size: 0x8, addend: 0x0, symName: __ZNKSt3__121__unordered_map_equalIiNS_17__hash_value_typeIiiEENS_8equal_toIiEENS_4hashIiEELb1EEclB8ue170006ERKS2_RKi, symObjAddr: 0xBB1C, symBinAddr: 0x10000FE2C, symSize: 0x48 }
  - { offsetInCU: 0x2AE16, offset: 0x34DE5, size: 0x8, addend: 0x0, symName: __ZNSt3__112__hash_tableINS_17__hash_value_typeIiiEENS_22__unordered_map_hasherIiS2_NS_4hashIiEENS_8equal_toIiEELb1EEENS_21__unordered_map_equalIiS2_S7_S5_Lb1EEENS_9allocatorIS2_EEE21__construct_node_hashIRKNS_4pairIKiiEEJEEENS_10unique_ptrINS_11__hash_nodeIS2_PvEENS_22__hash_node_destructorINSB_ISN_EEEEEEmOT_DpOT0_, symObjAddr: 0xBB64, symBinAddr: 0x10000FE74, symSize: 0x140 }
  - { offsetInCU: 0x2AE87, offset: 0x34E56, size: 0x8, addend: 0x0, symName: __ZNKSt3__110unique_ptrINS_11__hash_nodeINS_17__hash_value_typeIiiEEPvEENS_22__hash_node_destructorINS_9allocatorIS5_EEEEEptB8ue170006Ev, symObjAddr: 0xBCA4, symBinAddr: 0x10000FFB4, symSize: 0x28 }
  - { offsetInCU: 0x2AEAB, offset: 0x34E7A, size: 0x8, addend: 0x0, symName: __ZNKSt3__110unique_ptrINS_11__hash_nodeINS_17__hash_value_typeIiiEEPvEENS_22__hash_node_destructorINS_9allocatorIS5_EEEEE3getB8ue170006Ev, symObjAddr: 0xBCCC, symBinAddr: 0x10000FFDC, symSize: 0x28 }
  - { offsetInCU: 0x2AECF, offset: 0x34E9E, size: 0x8, addend: 0x0, symName: __ZNSt3__110unique_ptrINS_11__hash_nodeINS_17__hash_value_typeIiiEEPvEENS_22__hash_node_destructorINS_9allocatorIS5_EEEEE7releaseB8ue170006Ev, symObjAddr: 0xBCF4, symBinAddr: 0x100010004, symSize: 0x44 }
  - { offsetInCU: 0x2AF02, offset: 0x34ED1, size: 0x8, addend: 0x0, symName: __ZNSt3__110unique_ptrINS_11__hash_nodeINS_17__hash_value_typeIiiEEPvEENS_22__hash_node_destructorINS_9allocatorIS5_EEEEED1B8ue170006Ev, symObjAddr: 0xBD38, symBinAddr: 0x100010048, symSize: 0x2C }
  - { offsetInCU: 0x2AF2A, offset: 0x34EF9, size: 0x8, addend: 0x0, symName: __ZNSt3__116allocator_traitsINS_9allocatorINS_11__hash_nodeINS_17__hash_value_typeIiiEEPvEEEEE8allocateB8ue170006ERS7_m, symObjAddr: 0xBD64, symBinAddr: 0x100010074, symSize: 0x2C }
  - { offsetInCU: 0x2AF5C, offset: 0x34F2B, size: 0x8, addend: 0x0, symName: __ZNSt3__122__hash_node_destructorINS_9allocatorINS_11__hash_nodeINS_17__hash_value_typeIiiEEPvEEEEEC1B8ue170006ERS7_b, symObjAddr: 0xBD90, symBinAddr: 0x1000100A0, symSize: 0x48 }
  - { offsetInCU: 0x2AFA7, offset: 0x34F76, size: 0x8, addend: 0x0, symName: __ZNSt3__110unique_ptrINS_11__hash_nodeINS_17__hash_value_typeIiiEEPvEENS_22__hash_node_destructorINS_9allocatorIS5_EEEEEC1B8ue170006ILb1EvEEPS5_NS_16__dependent_typeINS_27__unique_ptr_deleter_sfinaeIS9_EEXT_EE20__good_rval_ref_typeE, symObjAddr: 0xBDD8, symBinAddr: 0x1000100E8, symSize: 0x3C }
  - { offsetInCU: 0x2AFF6, offset: 0x34FC5, size: 0x8, addend: 0x0, symName: __ZNSt3__116allocator_traitsINS_9allocatorINS_11__hash_nodeINS_17__hash_value_typeIiiEEPvEEEEE9constructB8ue170006INS_4pairIKiiEEJRKSC_EvEEvRS7_PT_DpOT0_, symObjAddr: 0xBE14, symBinAddr: 0x100010124, symSize: 0x34 }
  - { offsetInCU: 0x2B04C, offset: 0x3501B, size: 0x8, addend: 0x0, symName: __ZNSt3__110unique_ptrINS_11__hash_nodeINS_17__hash_value_typeIiiEEPvEENS_22__hash_node_destructorINS_9allocatorIS5_EEEEE11get_deleterB8ue170006Ev, symObjAddr: 0xBE48, symBinAddr: 0x100010158, symSize: 0x24 }
  - { offsetInCU: 0x2B070, offset: 0x3503F, size: 0x8, addend: 0x0, symName: __ZNSt3__19allocatorINS_11__hash_nodeINS_17__hash_value_typeIiiEEPvEEE8allocateB8ue170006Em, symObjAddr: 0xBE6C, symBinAddr: 0x10001017C, symSize: 0x5C }
  - { offsetInCU: 0x2B0AC, offset: 0x3507B, size: 0x8, addend: 0x0, symName: __ZNSt3__116allocator_traitsINS_9allocatorINS_11__hash_nodeINS_17__hash_value_typeIiiEEPvEEEEE8max_sizeB8ue170006IS7_vEEmRKS7_, symObjAddr: 0xBEC8, symBinAddr: 0x1000101D8, symSize: 0x24 }
  - { offsetInCU: 0x2B0D9, offset: 0x350A8, size: 0x8, addend: 0x0, symName: __ZNKSt3__19allocatorINS_11__hash_nodeINS_17__hash_value_typeIiiEEPvEEE8max_sizeB8ue170006Ev, symObjAddr: 0xBEEC, symBinAddr: 0x1000101FC, symSize: 0x18 }
  - { offsetInCU: 0x2B0FD, offset: 0x350CC, size: 0x8, addend: 0x0, symName: __ZNSt3__122__hash_node_destructorINS_9allocatorINS_11__hash_nodeINS_17__hash_value_typeIiiEEPvEEEEEC2B8ue170006ERS7_b, symObjAddr: 0xBF04, symBinAddr: 0x100010214, symSize: 0x38 }
  - { offsetInCU: 0x2B143, offset: 0x35112, size: 0x8, addend: 0x0, symName: __ZNSt3__110unique_ptrINS_11__hash_nodeINS_17__hash_value_typeIiiEEPvEENS_22__hash_node_destructorINS_9allocatorIS5_EEEEEC2B8ue170006ILb1EvEEPS5_NS_16__dependent_typeINS_27__unique_ptr_deleter_sfinaeIS9_EEXT_EE20__good_rval_ref_typeE, symObjAddr: 0xBF3C, symBinAddr: 0x10001024C, symSize: 0x48 }
  - { offsetInCU: 0x2B192, offset: 0x35161, size: 0x8, addend: 0x0, symName: __ZNSt3__117__compressed_pairIPNS_11__hash_nodeINS_17__hash_value_typeIiiEEPvEENS_22__hash_node_destructorINS_9allocatorIS5_EEEEEC1B8ue170006IRS6_SA_EEOT_OT0_, symObjAddr: 0xBF84, symBinAddr: 0x100010294, symSize: 0x3C }
  - { offsetInCU: 0x2B1E8, offset: 0x351B7, size: 0x8, addend: 0x0, symName: __ZNSt3__117__compressed_pairIPNS_11__hash_nodeINS_17__hash_value_typeIiiEEPvEENS_22__hash_node_destructorINS_9allocatorIS5_EEEEEC2B8ue170006IRS6_SA_EEOT_OT0_, symObjAddr: 0xBFC0, symBinAddr: 0x1000102D0, symSize: 0x48 }
  - { offsetInCU: 0x2B23E, offset: 0x3520D, size: 0x8, addend: 0x0, symName: __ZNSt3__122__compressed_pair_elemIPNS_11__hash_nodeINS_17__hash_value_typeIiiEEPvEELi0ELb0EEC2B8ue170006IRS6_vEEOT_, symObjAddr: 0xC008, symBinAddr: 0x100010318, symSize: 0x24 }
  - { offsetInCU: 0x2B27E, offset: 0x3524D, size: 0x8, addend: 0x0, symName: __ZNSt3__122__compressed_pair_elemINS_22__hash_node_destructorINS_9allocatorINS_11__hash_nodeINS_17__hash_value_typeIiiEEPvEEEEEELi1ELb0EEC2B8ue170006IS9_vEEOT_, symObjAddr: 0xC02C, symBinAddr: 0x10001033C, symSize: 0x24 }
  - { offsetInCU: 0x2B2BE, offset: 0x3528D, size: 0x8, addend: 0x0, symName: __ZNSt3__19allocatorINS_11__hash_nodeINS_17__hash_value_typeIiiEEPvEEE9constructB8ue170006INS_4pairIKiiEEJRKSA_EEEvPT_DpOT0_, symObjAddr: 0xC050, symBinAddr: 0x100010360, symSize: 0x28 }
  - { offsetInCU: 0x2B312, offset: 0x352E1, size: 0x8, addend: 0x0, symName: __ZNSt3__117__compressed_pairIPNS_11__hash_nodeINS_17__hash_value_typeIiiEEPvEENS_22__hash_node_destructorINS_9allocatorIS5_EEEEE6secondB8ue170006Ev, symObjAddr: 0xC078, symBinAddr: 0x100010388, symSize: 0x28 }
  - { offsetInCU: 0x2B336, offset: 0x35305, size: 0x8, addend: 0x0, symName: __ZNSt3__122__compressed_pair_elemINS_22__hash_node_destructorINS_9allocatorINS_11__hash_nodeINS_17__hash_value_typeIiiEEPvEEEEEELi1ELb0EE5__getB8ue170006Ev, symObjAddr: 0xC0A0, symBinAddr: 0x1000103B0, symSize: 0x14 }
  - { offsetInCU: 0x2B35A, offset: 0x35329, size: 0x8, addend: 0x0, symName: __ZNKSt3__117__compressed_pairIPNS_11__hash_nodeINS_17__hash_value_typeIiiEEPvEENS_22__hash_node_destructorINS_9allocatorIS5_EEEEE5firstB8ue170006Ev, symObjAddr: 0xC0B4, symBinAddr: 0x1000103C4, symSize: 0x24 }
  - { offsetInCU: 0x2B37E, offset: 0x3534D, size: 0x8, addend: 0x0, symName: __ZNKSt3__122__compressed_pair_elemIPNS_11__hash_nodeINS_17__hash_value_typeIiiEEPvEELi0ELb0EE5__getB8ue170006Ev, symObjAddr: 0xC0D8, symBinAddr: 0x1000103E8, symSize: 0x14 }
  - { offsetInCU: 0x2B3A2, offset: 0x35371, size: 0x8, addend: 0x0, symName: __ZNSt3__117__compressed_pairIPNS_11__hash_nodeINS_17__hash_value_typeIiiEEPvEENS_22__hash_node_destructorINS_9allocatorIS5_EEEEE5firstB8ue170006Ev, symObjAddr: 0xC0EC, symBinAddr: 0x1000103FC, symSize: 0x24 }
  - { offsetInCU: 0x2B3C6, offset: 0x35395, size: 0x8, addend: 0x0, symName: __ZNSt3__122__compressed_pair_elemIPNS_11__hash_nodeINS_17__hash_value_typeIiiEEPvEELi0ELb0EE5__getB8ue170006Ev, symObjAddr: 0xC110, symBinAddr: 0x100010420, symSize: 0x14 }
  - { offsetInCU: 0x2B3EA, offset: 0x353B9, size: 0x8, addend: 0x0, symName: __ZNSt3__110unique_ptrINS_11__hash_nodeINS_17__hash_value_typeIiiEEPvEENS_22__hash_node_destructorINS_9allocatorIS5_EEEEED2B8ue170006Ev, symObjAddr: 0xC124, symBinAddr: 0x100010434, symSize: 0x30 }
  - { offsetInCU: 0x2B412, offset: 0x353E1, size: 0x8, addend: 0x0, symName: __ZNSt3__110unique_ptrINS_11__hash_nodeINS_17__hash_value_typeIiiEEPvEENS_22__hash_node_destructorINS_9allocatorIS5_EEEEE5resetB8ue170006EPS5_, symObjAddr: 0xC154, symBinAddr: 0x100010464, symSize: 0x78 }
  - { offsetInCU: 0x2B454, offset: 0x35423, size: 0x8, addend: 0x0, symName: __ZNSt3__122__hash_node_destructorINS_9allocatorINS_11__hash_nodeINS_17__hash_value_typeIiiEEPvEEEEEclB8ue170006EPS6_, symObjAddr: 0xC1CC, symBinAddr: 0x1000104DC, symSize: 0x94 }
  - { offsetInCU: 0x2B487, offset: 0x35456, size: 0x8, addend: 0x0, symName: __ZNSt3__15stackIiNS_5dequeIiNS_9allocatorIiEEEEEC2B8ue170006Ev, symObjAddr: 0xC260, symBinAddr: 0x100010570, symSize: 0x2C }
  - { offsetInCU: 0x2B4AF, offset: 0x3547E, size: 0x8, addend: 0x0, symName: __ZNSt3__15dequeIiNS_9allocatorIiEEEC1B8ue170006Ev, symObjAddr: 0xC28C, symBinAddr: 0x10001059C, symSize: 0x2C }
  - { offsetInCU: 0x2B4D7, offset: 0x354A6, size: 0x8, addend: 0x0, symName: __ZNSt3__15dequeIiNS_9allocatorIiEEEC2B8ue170006Ev, symObjAddr: 0xC2B8, symBinAddr: 0x1000105C8, symSize: 0x5C }
  - { offsetInCU: 0x2B4FF, offset: 0x354CE, size: 0x8, addend: 0x0, symName: __ZNSt3__114__split_bufferIPiNS_9allocatorIS1_EEEC1B8ue170006Ev, symObjAddr: 0xC314, symBinAddr: 0x100010624, symSize: 0x2C }
  - { offsetInCU: 0x2B527, offset: 0x354F6, size: 0x8, addend: 0x0, symName: __ZNSt3__117__compressed_pairImNS_9allocatorIiEEEC1B8ue170006IiNS_18__default_init_tagEEEOT_OT0_, symObjAddr: 0xC340, symBinAddr: 0x100010650, symSize: 0x3C }
  - { offsetInCU: 0x2B57D, offset: 0x3554C, size: 0x8, addend: 0x0, symName: __ZNSt3__114__split_bufferIPiNS_9allocatorIS1_EEEC2B8ue170006Ev, symObjAddr: 0xC37C, symBinAddr: 0x10001068C, symSize: 0x50 }
  - { offsetInCU: 0x2B5AA, offset: 0x35579, size: 0x8, addend: 0x0, symName: __ZNSt3__117__compressed_pairIPPiNS_9allocatorIS1_EEEC1B8ue170006IDnNS_18__default_init_tagEEEOT_OT0_, symObjAddr: 0xC3CC, symBinAddr: 0x1000106DC, symSize: 0x3C }
  - { offsetInCU: 0x2B600, offset: 0x355CF, size: 0x8, addend: 0x0, symName: __ZNSt3__117__compressed_pairIPPiNS_9allocatorIS1_EEEC2B8ue170006IDnNS_18__default_init_tagEEEOT_OT0_, symObjAddr: 0xC408, symBinAddr: 0x100010718, symSize: 0x40 }
  - { offsetInCU: 0x2B656, offset: 0x35625, size: 0x8, addend: 0x0, symName: __ZNSt3__122__compressed_pair_elemIPPiLi0ELb0EEC2B8ue170006IDnvEEOT_, symObjAddr: 0xC448, symBinAddr: 0x100010758, symSize: 0x1C }
  - { offsetInCU: 0x2B696, offset: 0x35665, size: 0x8, addend: 0x0, symName: __ZNSt3__122__compressed_pair_elemINS_9allocatorIPiEELi1ELb1EEC2B8ue170006ENS_18__default_init_tagE, symObjAddr: 0xC464, symBinAddr: 0x100010774, symSize: 0x2C }
  - { offsetInCU: 0x2B6C8, offset: 0x35697, size: 0x8, addend: 0x0, symName: __ZNSt3__19allocatorIPiEC2B8ue170006Ev, symObjAddr: 0xC490, symBinAddr: 0x1000107A0, symSize: 0x2C }
  - { offsetInCU: 0x2B6F0, offset: 0x356BF, size: 0x8, addend: 0x0, symName: __ZNSt3__116__non_trivial_ifILb1ENS_9allocatorIPiEEEC2B8ue170006Ev, symObjAddr: 0xC4BC, symBinAddr: 0x1000107CC, symSize: 0x14 }
  - { offsetInCU: 0x2B718, offset: 0x356E7, size: 0x8, addend: 0x0, symName: __ZNSt3__117__compressed_pairImNS_9allocatorIiEEEC2B8ue170006IiNS_18__default_init_tagEEEOT_OT0_, symObjAddr: 0xC4D0, symBinAddr: 0x1000107E0, symSize: 0x40 }
  - { offsetInCU: 0x2B76E, offset: 0x3573D, size: 0x8, addend: 0x0, symName: __ZNSt3__122__compressed_pair_elemINS_9allocatorIiEELi1ELb1EEC2B8ue170006ENS_18__default_init_tagE, symObjAddr: 0xC510, symBinAddr: 0x100010820, symSize: 0x2C }
  - { offsetInCU: 0x2B7A0, offset: 0x3576F, size: 0x8, addend: 0x0, symName: __ZNSt3__19allocatorIiEC2B8ue170006Ev, symObjAddr: 0xC53C, symBinAddr: 0x10001084C, symSize: 0x2C }
  - { offsetInCU: 0x2B7C8, offset: 0x35797, size: 0x8, addend: 0x0, symName: __ZNSt3__116__non_trivial_ifILb1ENS_9allocatorIiEEEC2B8ue170006Ev, symObjAddr: 0xC568, symBinAddr: 0x100010878, symSize: 0x14 }
  - { offsetInCU: 0x2B7F0, offset: 0x357BF, size: 0x8, addend: 0x0, symName: __ZNSt3__16vectorINS0_IiNS_9allocatorIiEEEENS1_IS3_EEEC2B8ue170006Ev, symObjAddr: 0xC57C, symBinAddr: 0x10001088C, symSize: 0x4C }
  - { offsetInCU: 0x2B818, offset: 0x357E7, size: 0x8, addend: 0x0, symName: __ZNSt3__117__compressed_pairIPNS_6vectorIiNS_9allocatorIiEEEENS2_IS4_EEEC1B8ue170006IDnNS_18__default_init_tagEEEOT_OT0_, symObjAddr: 0xC5C8, symBinAddr: 0x1000108D8, symSize: 0x3C }
  - { offsetInCU: 0x2B86E, offset: 0x3583D, size: 0x8, addend: 0x0, symName: __ZNSt3__117__compressed_pairIPNS_6vectorIiNS_9allocatorIiEEEENS2_IS4_EEEC2B8ue170006IDnNS_18__default_init_tagEEEOT_OT0_, symObjAddr: 0xC604, symBinAddr: 0x100010914, symSize: 0x40 }
  - { offsetInCU: 0x2B8C4, offset: 0x35893, size: 0x8, addend: 0x0, symName: __ZNSt3__122__compressed_pair_elemIPNS_6vectorIiNS_9allocatorIiEEEELi0ELb0EEC2B8ue170006IDnvEEOT_, symObjAddr: 0xC644, symBinAddr: 0x100010954, symSize: 0x1C }
  - { offsetInCU: 0x2B904, offset: 0x358D3, size: 0x8, addend: 0x0, symName: __ZNSt3__122__compressed_pair_elemINS_9allocatorINS_6vectorIiNS1_IiEEEEEELi1ELb1EEC2B8ue170006ENS_18__default_init_tagE, symObjAddr: 0xC660, symBinAddr: 0x100010970, symSize: 0x2C }
  - { offsetInCU: 0x2B936, offset: 0x35905, size: 0x8, addend: 0x0, symName: __ZNSt3__19allocatorINS_6vectorIiNS0_IiEEEEEC2B8ue170006Ev, symObjAddr: 0xC68C, symBinAddr: 0x10001099C, symSize: 0x2C }
  - { offsetInCU: 0x2B95E, offset: 0x3592D, size: 0x8, addend: 0x0, symName: __ZNSt3__116__non_trivial_ifILb1ENS_9allocatorINS_6vectorIiNS1_IiEEEEEEEC2B8ue170006Ev, symObjAddr: 0xC6B8, symBinAddr: 0x1000109C8, symSize: 0x14 }
  - { offsetInCU: 0x2B986, offset: 0x35955, size: 0x8, addend: 0x0, symName: __ZNSt3__13mapIiN5boost7variantIiJfbEEENS_4lessIiEENS_9allocatorINS_4pairIKiS3_EEEEEC2B8ue170006Ev, symObjAddr: 0xC6CC, symBinAddr: 0x1000109DC, symSize: 0x40 }
  - { offsetInCU: 0x2B9AE, offset: 0x3597D, size: 0x8, addend: 0x0, symName: __ZNSt3__119__map_value_compareIiNS_12__value_typeIiN5boost7variantIiJfbEEEEENS_4lessIiEELb1EEC1B8ue170006ES7_, symObjAddr: 0xC70C, symBinAddr: 0x100010A1C, symSize: 0x2C }
  - { offsetInCU: 0x2B9E5, offset: 0x359B4, size: 0x8, addend: 0x0, symName: __ZNSt3__16__treeINS_12__value_typeIiN5boost7variantIiJfbEEEEENS_19__map_value_compareIiS5_NS_4lessIiEELb1EEENS_9allocatorIS5_EEEC1ERKS9_, symObjAddr: 0xC738, symBinAddr: 0x100010A48, symSize: 0x34 }
  - { offsetInCU: 0x2BA1E, offset: 0x359ED, size: 0x8, addend: 0x0, symName: __ZNSt3__119__map_value_compareIiNS_12__value_typeIiN5boost7variantIiJfbEEEEENS_4lessIiEELb1EEC2B8ue170006ES7_, symObjAddr: 0xC76C, symBinAddr: 0x100010A7C, symSize: 0x14 }
  - { offsetInCU: 0x2BA55, offset: 0x35A24, size: 0x8, addend: 0x0, symName: __ZNSt3__16__treeINS_12__value_typeIiN5boost7variantIiJfbEEEEENS_19__map_value_compareIiS5_NS_4lessIiEELb1EEENS_9allocatorIS5_EEEC2ERKS9_, symObjAddr: 0xC780, symBinAddr: 0x100010A90, symSize: 0x7C }
  - { offsetInCU: 0x2BA8E, offset: 0x35A5D, size: 0x8, addend: 0x0, symName: __ZNSt3__117__compressed_pairINS_15__tree_end_nodeIPNS_16__tree_node_baseIPvEEEENS_9allocatorINS_11__tree_nodeINS_12__value_typeIiN5boost7variantIiJfbEEEEES3_EEEEEC1B8ue170006ILb1EvEEv, symObjAddr: 0xC7FC, symBinAddr: 0x100010B0C, symSize: 0x2C }
  - { offsetInCU: 0x2BAC1, offset: 0x35A90, size: 0x8, addend: 0x0, symName: __ZNSt3__117__compressed_pairImNS_19__map_value_compareIiNS_12__value_typeIiN5boost7variantIiJfbEEEEENS_4lessIiEELb1EEEEC1B8ue170006IiRKS9_EEOT_OT0_, symObjAddr: 0xC828, symBinAddr: 0x100010B38, symSize: 0x3C }
  - { offsetInCU: 0x2BB17, offset: 0x35AE6, size: 0x8, addend: 0x0, symName: __ZNSt3__16__treeINS_12__value_typeIiN5boost7variantIiJfbEEEEENS_19__map_value_compareIiS5_NS_4lessIiEELb1EEENS_9allocatorIS5_EEE10__end_nodeB8ue170006Ev, symObjAddr: 0xC864, symBinAddr: 0x100010B74, symSize: 0x2C }
  - { offsetInCU: 0x2BB3B, offset: 0x35B0A, size: 0x8, addend: 0x0, symName: __ZNSt3__16__treeINS_12__value_typeIiN5boost7variantIiJfbEEEEENS_19__map_value_compareIiS5_NS_4lessIiEELb1EEENS_9allocatorIS5_EEE12__begin_nodeB8ue170006Ev, symObjAddr: 0xC890, symBinAddr: 0x100010BA0, symSize: 0x14 }
  - { offsetInCU: 0x2BB5F, offset: 0x35B2E, size: 0x8, addend: 0x0, symName: __ZNSt3__117__compressed_pairINS_15__tree_end_nodeIPNS_16__tree_node_baseIPvEEEENS_9allocatorINS_11__tree_nodeINS_12__value_typeIiN5boost7variantIiJfbEEEEES3_EEEEEC2B8ue170006ILb1EvEEv, symObjAddr: 0xC8A4, symBinAddr: 0x100010BB4, symSize: 0x34 }
  - { offsetInCU: 0x2BB92, offset: 0x35B61, size: 0x8, addend: 0x0, symName: __ZNSt3__122__compressed_pair_elemINS_9allocatorINS_11__tree_nodeINS_12__value_typeIiN5boost7variantIiJfbEEEEEPvEEEELi1ELb1EEC2B8ue170006ENS_16__value_init_tagE, symObjAddr: 0xC904, symBinAddr: 0x100010BE8, symSize: 0x2C }
  - { offsetInCU: 0x2BBC4, offset: 0x35B93, size: 0x8, addend: 0x0, symName: __ZNSt3__19allocatorINS_11__tree_nodeINS_12__value_typeIiN5boost7variantIiJfbEEEEEPvEEEC2B8ue170006Ev, symObjAddr: 0xC974, symBinAddr: 0x100010C14, symSize: 0x2C }
  - { offsetInCU: 0x2BBEC, offset: 0x35BBB, size: 0x8, addend: 0x0, symName: __ZNSt3__116__non_trivial_ifILb1ENS_9allocatorINS_11__tree_nodeINS_12__value_typeIiN5boost7variantIiJfbEEEEEPvEEEEEC2B8ue170006Ev, symObjAddr: 0xC9A0, symBinAddr: 0x100010C40, symSize: 0x14 }
  - { offsetInCU: 0x2BC14, offset: 0x35BE3, size: 0x8, addend: 0x0, symName: __ZNSt3__117__compressed_pairImNS_19__map_value_compareIiNS_12__value_typeIiN5boost7variantIiJfbEEEEENS_4lessIiEELb1EEEEC2B8ue170006IiRKS9_EEOT_OT0_, symObjAddr: 0xC9B4, symBinAddr: 0x100010C54, symSize: 0x44 }
  - { offsetInCU: 0x2BC6A, offset: 0x35C39, size: 0x8, addend: 0x0, symName: __ZNSt3__122__compressed_pair_elemINS_19__map_value_compareIiNS_12__value_typeIiN5boost7variantIiJfbEEEEENS_4lessIiEELb1EEELi1ELb1EEC2B8ue170006IRKS9_vEEOT_, symObjAddr: 0xC9F8, symBinAddr: 0x100010C98, symSize: 0x18 }
  - { offsetInCU: 0x2BCAA, offset: 0x35C79, size: 0x8, addend: 0x0, symName: __ZNSt3__117__compressed_pairINS_15__tree_end_nodeIPNS_16__tree_node_baseIPvEEEENS_9allocatorINS_11__tree_nodeINS_12__value_typeIiN5boost7variantIiJfbEEEEES3_EEEEE5firstB8ue170006Ev, symObjAddr: 0xCA24, symBinAddr: 0x100010CB0, symSize: 0x24 }
  - { offsetInCU: 0x2BCCE, offset: 0x35C9D, size: 0x8, addend: 0x0, symName: __ZNSt3__16vectorINS0_IiNS_9allocatorIiEEEENS1_IS3_EEED2B8ue170006Ev, symObjAddr: 0xCA5C, symBinAddr: 0x100010CD4, symSize: 0x44 }
  - { offsetInCU: 0x2BCF6, offset: 0x35CC5, size: 0x8, addend: 0x0, symName: __ZNSt3__16vectorINS0_IiNS_9allocatorIiEEEENS1_IS3_EEE16__destroy_vectorC1B8ue170006ERS5_, symObjAddr: 0xCAA0, symBinAddr: 0x100010D18, symSize: 0x34 }
  - { offsetInCU: 0x2BD2D, offset: 0x35CFC, size: 0x8, addend: 0x0, symName: __ZNSt3__16vectorINS0_IiNS_9allocatorIiEEEENS1_IS3_EEE16__destroy_vectorclB8ue170006Ev, symObjAddr: 0xCAD4, symBinAddr: 0x100010D4C, symSize: 0x90 }
  - { offsetInCU: 0x2BD51, offset: 0x35D20, size: 0x8, addend: 0x0, symName: __ZNSt3__16vectorINS0_IiNS_9allocatorIiEEEENS1_IS3_EEE16__destroy_vectorC2B8ue170006ERS5_, symObjAddr: 0xCB64, symBinAddr: 0x100010DDC, symSize: 0x20 }
  - { offsetInCU: 0x2BD88, offset: 0x35D57, size: 0x8, addend: 0x0, symName: __ZNSt3__16vectorINS0_IiNS_9allocatorIiEEEENS1_IS3_EEE7__clearB8ue170006Ev, symObjAddr: 0xCB84, symBinAddr: 0x100010DFC, symSize: 0x28 }
  - { offsetInCU: 0x2BDAC, offset: 0x35D7B, size: 0x8, addend: 0x0, symName: __ZNKSt3__16vectorINS0_IiNS_9allocatorIiEEEENS1_IS3_EEE17__annotate_deleteB8ue170006Ev, symObjAddr: 0xCBAC, symBinAddr: 0x100010E24, symSize: 0xD4 }
  - { offsetInCU: 0x2BDD0, offset: 0x35D9F, size: 0x8, addend: 0x0, symName: __ZNSt3__116allocator_traitsINS_9allocatorINS_6vectorIiNS1_IiEEEEEEE10deallocateB8ue170006ERS5_PS4_m, symObjAddr: 0xCC80, symBinAddr: 0x100010EF8, symSize: 0x34 }
  - { offsetInCU: 0x2BE11, offset: 0x35DE0, size: 0x8, addend: 0x0, symName: __ZNSt3__16vectorINS0_IiNS_9allocatorIiEEEENS1_IS3_EEE7__allocB8ue170006Ev, symObjAddr: 0xCCB4, symBinAddr: 0x100010F2C, symSize: 0x28 }
  - { offsetInCU: 0x2BE35, offset: 0x35E04, size: 0x8, addend: 0x0, symName: __ZNKSt3__16vectorINS0_IiNS_9allocatorIiEEEENS1_IS3_EEE8capacityB8ue170006Ev, symObjAddr: 0xCCDC, symBinAddr: 0x100010F54, symSize: 0x40 }
  - { offsetInCU: 0x2BE59, offset: 0x35E28, size: 0x8, addend: 0x0, symName: __ZNSt3__16vectorINS0_IiNS_9allocatorIiEEEENS1_IS3_EEE22__base_destruct_at_endB8ue170006EPS3_, symObjAddr: 0xCD1C, symBinAddr: 0x100010F94, symSize: 0x8C }
  - { offsetInCU: 0x2BE9B, offset: 0x35E6A, size: 0x8, addend: 0x0, symName: __ZNSt3__116allocator_traitsINS_9allocatorINS_6vectorIiNS1_IiEEEEEEE7destroyB8ue170006IS4_vEEvRS5_PT_, symObjAddr: 0xCDA8, symBinAddr: 0x100011020, symSize: 0x2C }
  - { offsetInCU: 0x2BED7, offset: 0x35EA6, size: 0x8, addend: 0x0, symName: __ZNSt3__19allocatorINS_6vectorIiNS0_IiEEEEE7destroyB8ue170006EPS3_, symObjAddr: 0xCDE8, symBinAddr: 0x100011060, symSize: 0x28 }
  - { offsetInCU: 0x2BF09, offset: 0x35ED8, size: 0x8, addend: 0x0, symName: __ZNKSt3__16vectorINS0_IiNS_9allocatorIiEEEENS1_IS3_EEE31__annotate_contiguous_containerB8ue170006EPKvS7_S7_S7_, symObjAddr: 0xCE10, symBinAddr: 0x100011088, symSize: 0x20 }
  - { offsetInCU: 0x2BF59, offset: 0x35F28, size: 0x8, addend: 0x0, symName: __ZNKSt3__16vectorINS0_IiNS_9allocatorIiEEEENS1_IS3_EEE4dataB8ue170006Ev, symObjAddr: 0xCE30, symBinAddr: 0x1000110A8, symSize: 0x28 }
  - { offsetInCU: 0x2BF7D, offset: 0x35F4C, size: 0x8, addend: 0x0, symName: __ZNKSt3__16vectorINS0_IiNS_9allocatorIiEEEENS1_IS3_EEE4sizeB8ue170006Ev, symObjAddr: 0xCE58, symBinAddr: 0x1000110D0, symSize: 0x28 }
  - { offsetInCU: 0x2BFA1, offset: 0x35F70, size: 0x8, addend: 0x0, symName: __ZNSt3__19allocatorINS_6vectorIiNS0_IiEEEEE10deallocateB8ue170006EPS3_m, symObjAddr: 0xCE80, symBinAddr: 0x1000110F8, symSize: 0x44 }
  - { offsetInCU: 0x2BFE1, offset: 0x35FB0, size: 0x8, addend: 0x0, symName: __ZNSt3__117__compressed_pairIPNS_6vectorIiNS_9allocatorIiEEEENS2_IS4_EEE6secondB8ue170006Ev, symObjAddr: 0xCEC4, symBinAddr: 0x10001113C, symSize: 0x24 }
  - { offsetInCU: 0x2C005, offset: 0x35FD4, size: 0x8, addend: 0x0, symName: __ZNSt3__122__compressed_pair_elemINS_9allocatorINS_6vectorIiNS1_IiEEEEEELi1ELb1EE5__getB8ue170006Ev, symObjAddr: 0xCEE8, symBinAddr: 0x100011160, symSize: 0x14 }
  - { offsetInCU: 0x2C029, offset: 0x35FF8, size: 0x8, addend: 0x0, symName: __ZNKSt3__16vectorINS0_IiNS_9allocatorIiEEEENS1_IS3_EEE9__end_capB8ue170006Ev, symObjAddr: 0xCEFC, symBinAddr: 0x100011174, symSize: 0x28 }
  - { offsetInCU: 0x2C04D, offset: 0x3601C, size: 0x8, addend: 0x0, symName: __ZNKSt3__117__compressed_pairIPNS_6vectorIiNS_9allocatorIiEEEENS2_IS4_EEE5firstB8ue170006Ev, symObjAddr: 0xCF24, symBinAddr: 0x10001119C, symSize: 0x24 }
  - { offsetInCU: 0x2C071, offset: 0x36040, size: 0x8, addend: 0x0, symName: __ZNKSt3__122__compressed_pair_elemIPNS_6vectorIiNS_9allocatorIiEEEELi0ELb0EE5__getB8ue170006Ev, symObjAddr: 0xCF48, symBinAddr: 0x1000111C0, symSize: 0x14 }
  - { offsetInCU: 0x2C095, offset: 0x36064, size: 0x8, addend: 0x0, symName: __ZNSt3__13mapIiN5boost7variantIiJfbEEENS_4lessIiEENS_9allocatorINS_4pairIKiS3_EEEEED2B8ue170006Ev, symObjAddr: 0xCF5C, symBinAddr: 0x1000111D4, symSize: 0x2C }
  - { offsetInCU: 0x2C0BD, offset: 0x3608C, size: 0x8, addend: 0x0, symName: __ZNSt3__16__treeINS_12__value_typeIiN5boost7variantIiJfbEEEEENS_19__map_value_compareIiS5_NS_4lessIiEELb1EEENS_9allocatorIS5_EEED1Ev, symObjAddr: 0xCF88, symBinAddr: 0x100011200, symSize: 0x2C }
  - { offsetInCU: 0x2C0E7, offset: 0x360B6, size: 0x8, addend: 0x0, symName: __ZNSt3__16__treeINS_12__value_typeIiN5boost7variantIiJfbEEEEENS_19__map_value_compareIiS5_NS_4lessIiEELb1EEENS_9allocatorIS5_EEED2Ev, symObjAddr: 0xCFB4, symBinAddr: 0x10001122C, symSize: 0x38 }
  - { offsetInCU: 0x2C111, offset: 0x360E0, size: 0x8, addend: 0x0, symName: __ZNSt3__16__treeINS_12__value_typeIiN5boost7variantIiJfbEEEEENS_19__map_value_compareIiS5_NS_4lessIiEELb1EEENS_9allocatorIS5_EEE7destroyEPNS_11__tree_nodeIS5_PvEE, symObjAddr: 0xCFEC, symBinAddr: 0x100011264, symSize: 0xAC }
  - { offsetInCU: 0x2C15B, offset: 0x3612A, size: 0x8, addend: 0x0, symName: __ZNKSt3__16__treeINS_12__value_typeIiN5boost7variantIiJfbEEEEENS_19__map_value_compareIiS5_NS_4lessIiEELb1EEENS_9allocatorIS5_EEE6__rootB8ue170006Ev, symObjAddr: 0xD098, symBinAddr: 0x100011310, symSize: 0x28 }
  - { offsetInCU: 0x2C17F, offset: 0x3614E, size: 0x8, addend: 0x0, symName: __ZNSt3__16__treeINS_12__value_typeIiN5boost7variantIiJfbEEEEENS_19__map_value_compareIiS5_NS_4lessIiEELb1EEENS_9allocatorIS5_EEE12__node_allocB8ue170006Ev, symObjAddr: 0xD0C0, symBinAddr: 0x100011338, symSize: 0x28 }
  - { offsetInCU: 0x2C1A8, offset: 0x36177, size: 0x8, addend: 0x0, symName: __ZNSt3__116allocator_traitsINS_9allocatorINS_11__tree_nodeINS_12__value_typeIiN5boost7variantIiJfbEEEEEPvEEEEE7destroyB8ue170006INS_4pairIKiS6_EEvvEEvRSA_PT_, symObjAddr: 0xD0E8, symBinAddr: 0x100011360, symSize: 0x28 }
  - { offsetInCU: 0x2C1E1, offset: 0x361B0, size: 0x8, addend: 0x0, symName: __ZNSt3__122__tree_key_value_typesINS_12__value_typeIiN5boost7variantIiJfbEEEEEE9__get_ptrB8ue170006ERS5_, symObjAddr: 0xD110, symBinAddr: 0x100011388, symSize: 0x24 }
  - { offsetInCU: 0x2C204, offset: 0x361D3, size: 0x8, addend: 0x0, symName: __ZNSt3__116allocator_traitsINS_9allocatorINS_11__tree_nodeINS_12__value_typeIiN5boost7variantIiJfbEEEEEPvEEEEE10deallocateB8ue170006ERSA_PS9_m, symObjAddr: 0xD134, symBinAddr: 0x1000113AC, symSize: 0x34 }
  - { offsetInCU: 0x2C245, offset: 0x36214, size: 0x8, addend: 0x0, symName: __ZNSt3__117__compressed_pairINS_15__tree_end_nodeIPNS_16__tree_node_baseIPvEEEENS_9allocatorINS_11__tree_nodeINS_12__value_typeIiN5boost7variantIiJfbEEEEES3_EEEEE6secondB8ue170006Ev, symObjAddr: 0xD168, symBinAddr: 0x1000113E0, symSize: 0x24 }
  - { offsetInCU: 0x2C269, offset: 0x36238, size: 0x8, addend: 0x0, symName: __ZNSt3__122__compressed_pair_elemINS_9allocatorINS_11__tree_nodeINS_12__value_typeIiN5boost7variantIiJfbEEEEEPvEEEELi1ELb1EE5__getB8ue170006Ev, symObjAddr: 0xD18C, symBinAddr: 0x100011404, symSize: 0x14 }
  - { offsetInCU: 0x2C28D, offset: 0x3625C, size: 0x8, addend: 0x0, symName: __ZNSt3__14pairIKiN5boost7variantIiJfbEEEED1Ev, symObjAddr: 0xD1A0, symBinAddr: 0x100011418, symSize: 0x2C }
  - { offsetInCU: 0x2C2B7, offset: 0x36286, size: 0x8, addend: 0x0, symName: __ZNSt3__14pairIKiN5boost7variantIiJfbEEEED2Ev, symObjAddr: 0xD1CC, symBinAddr: 0x100011444, symSize: 0x30 }
  - { offsetInCU: 0x2C2E1, offset: 0x362B0, size: 0x8, addend: 0x0, symName: __ZN5boost7variantIiJfbEED1Ev, symObjAddr: 0xD1FC, symBinAddr: 0x100011474, symSize: 0x2C }
  - { offsetInCU: 0x2C309, offset: 0x362D8, size: 0x8, addend: 0x0, symName: __ZN5boost7variantIiJfbEED2Ev, symObjAddr: 0xD228, symBinAddr: 0x1000114A0, symSize: 0x38 }
  - { offsetInCU: 0x2C3BA, offset: 0x36389, size: 0x8, addend: 0x0, symName: __ZN5boost7variantIiJfbEE15destroy_contentEv, symObjAddr: 0xD260, symBinAddr: 0x1000114D8, symSize: 0x3B8 }
  - { offsetInCU: 0x2C4A3, offset: 0x36472, size: 0x8, addend: 0x0, symName: __ZN5boost15aligned_storageILm4ELm4EED1Ev, symObjAddr: 0xD668, symBinAddr: 0x1000118E0, symSize: 0x2C }
  - { offsetInCU: 0x2C4CB, offset: 0x3649A, size: 0x8, addend: 0x0, symName: __ZNK5boost7variantIiJfbEE5whichEv, symObjAddr: 0xD694, symBinAddr: 0x10001190C, symSize: 0x60 }
  - { offsetInCU: 0x2C4EF, offset: 0x364BE, size: 0x8, addend: 0x0, symName: __ZN5boost15aligned_storageILm4ELm4EE7addressEv, symObjAddr: 0xD6F4, symBinAddr: 0x10001196C, symSize: 0x24 }
  - { offsetInCU: 0x2C51D, offset: 0x364EC, size: 0x8, addend: 0x0, symName: __ZNK5boost6detail7variant9destroyer14internal_visitIiEEvRT_i, symObjAddr: 0xD888, symBinAddr: 0x100011B00, symSize: 0x18 }
  - { offsetInCU: 0x2C564, offset: 0x36533, size: 0x8, addend: 0x0, symName: __ZNK5boost6detail7variant9destroyer14internal_visitIfEEvRT_i, symObjAddr: 0xD8FC, symBinAddr: 0x100011B74, symSize: 0x18 }
  - { offsetInCU: 0x2C5AB, offset: 0x3657A, size: 0x8, addend: 0x0, symName: __ZNK5boost6detail7variant9destroyer14internal_visitIbEEvRT_i, symObjAddr: 0xD970, symBinAddr: 0x100011BE8, symSize: 0x18 }
  - { offsetInCU: 0x2C5F2, offset: 0x365C1, size: 0x8, addend: 0x0, symName: __ZNK5boost7variantIiJfbEE12using_backupEv, symObjAddr: 0xD9C8, symBinAddr: 0x100011C40, symSize: 0x24 }
  - { offsetInCU: 0x2C616, offset: 0x365E5, size: 0x8, addend: 0x0, symName: __ZNK5boost6detail15aligned_storage19aligned_storage_impILm4ELm4EE7addressEv, symObjAddr: 0xD9EC, symBinAddr: 0x100011C64, symSize: 0x14 }
  - { offsetInCU: 0x2C63A, offset: 0x36609, size: 0x8, addend: 0x0, symName: __ZN5boost15aligned_storageILm4ELm4EED2Ev, symObjAddr: 0xDA00, symBinAddr: 0x100011C78, symSize: 0x14 }
  - { offsetInCU: 0x2C662, offset: 0x36631, size: 0x8, addend: 0x0, symName: __ZNSt3__112__value_typeIiN5boost7variantIiJfbEEEE11__get_valueB8ue170006Ev, symObjAddr: 0xDA14, symBinAddr: 0x100011C8C, symSize: 0x14 }
  - { offsetInCU: 0x2C686, offset: 0x36655, size: 0x8, addend: 0x0, symName: __ZNSt3__19allocatorINS_11__tree_nodeINS_12__value_typeIiN5boost7variantIiJfbEEEEEPvEEE10deallocateB8ue170006EPS8_m, symObjAddr: 0xDA28, symBinAddr: 0x100011CA0, symSize: 0x44 }
  - { offsetInCU: 0x2C6C6, offset: 0x36695, size: 0x8, addend: 0x0, symName: __ZNKSt3__16__treeINS_12__value_typeIiN5boost7variantIiJfbEEEEENS_19__map_value_compareIiS5_NS_4lessIiEELb1EEENS_9allocatorIS5_EEE10__end_nodeB8ue170006Ev, symObjAddr: 0xDA6C, symBinAddr: 0x100011CE4, symSize: 0x2C }
  - { offsetInCU: 0x2C6EA, offset: 0x366B9, size: 0x8, addend: 0x0, symName: __ZNKSt3__117__compressed_pairINS_15__tree_end_nodeIPNS_16__tree_node_baseIPvEEEENS_9allocatorINS_11__tree_nodeINS_12__value_typeIiN5boost7variantIiJfbEEEEES3_EEEEE5firstB8ue170006Ev, symObjAddr: 0xDA98, symBinAddr: 0x100011D10, symSize: 0x24 }
  - { offsetInCU: 0x2C70E, offset: 0x366DD, size: 0x8, addend: 0x0, symName: __ZNSt3__15dequeIiNS_9allocatorIiEEE4backEv, symObjAddr: 0xDAD0, symBinAddr: 0x100011D34, symSize: 0x68 }
  - { offsetInCU: 0x2C743, offset: 0x36712, size: 0x8, addend: 0x0, symName: __ZNSt3__15dequeIiNS_9allocatorIiEEE8pop_backEv, symObjAddr: 0xDB38, symBinAddr: 0x100011D9C, symSize: 0xE0 }
  - { offsetInCU: 0x2C7A5, offset: 0x36774, size: 0x8, addend: 0x0, symName: __ZNKSt3__15dequeIiNS_9allocatorIiEEE22__annotate_shrink_backB8ue170006Emm, symObjAddr: 0xDC18, symBinAddr: 0x100011E7C, symSize: 0x60 }
  - { offsetInCU: 0x2C7E7, offset: 0x367B6, size: 0x8, addend: 0x0, symName: __ZNSt3__15dequeIiNS_9allocatorIiEEE25__maybe_remove_back_spareB8ue170006Eb, symObjAddr: 0xDC78, symBinAddr: 0x100011EDC, symSize: 0xE8 }
  - { offsetInCU: 0x2C81A, offset: 0x367E9, size: 0x8, addend: 0x0, symName: __ZNKSt3__15dequeIiNS_9allocatorIiEEE19__back_spare_blocksB8ue170006Ev, symObjAddr: 0xDD60, symBinAddr: 0x100011FC4, symSize: 0x2C }
  - { offsetInCU: 0x2C83E, offset: 0x3680D, size: 0x8, addend: 0x0, symName: __ZNSt3__114__split_bufferIPiNS_9allocatorIS1_EEE4backB8ue170006Ev, symObjAddr: 0xDD8C, symBinAddr: 0x100011FF0, symSize: 0x1C }
  - { offsetInCU: 0x2C862, offset: 0x36831, size: 0x8, addend: 0x0, symName: __ZNSt3__114__split_bufferIPiNS_9allocatorIS1_EEE8pop_backB8ue170006Ev, symObjAddr: 0xDDA8, symBinAddr: 0x10001200C, symSize: 0x2C }
  - { offsetInCU: 0x2C886, offset: 0x36855, size: 0x8, addend: 0x0, symName: __ZNKSt3__15dequeIiNS_9allocatorIiEEE12__back_spareB8ue170006Ev, symObjAddr: 0xDDD4, symBinAddr: 0x100012038, symSize: 0x54 }
  - { offsetInCU: 0x2C8AA, offset: 0x36879, size: 0x8, addend: 0x0, symName: __ZNKSt3__15dequeIiNS_9allocatorIiEEE10__capacityB8ue170006Ev, symObjAddr: 0xDE28, symBinAddr: 0x10001208C, symSize: 0x60 }
  - { offsetInCU: 0x2C8CE, offset: 0x3689D, size: 0x8, addend: 0x0, symName: __ZNSt3__113unordered_mapIiNS0_IiNS0_IiiNS_4hashIiEENS_8equal_toIiEENS_9allocatorINS_4pairIKiiEEEEEES2_S4_NS5_INS6_IS7_SA_EEEEEES2_S4_NS5_INS6_IS7_SD_EEEEE4findB8ue170006ERS7_, symObjAddr: 0xDE88, symBinAddr: 0x1000120EC, symSize: 0x40 }
  - { offsetInCU: 0x2C901, offset: 0x368D0, size: 0x8, addend: 0x0, symName: __ZNSt3__113unordered_mapIiNS0_IiNS0_IiiNS_4hashIiEENS_8equal_toIiEENS_9allocatorINS_4pairIKiiEEEEEES2_S4_NS5_INS6_IS7_SA_EEEEEES2_S4_NS5_INS6_IS7_SD_EEEEE3endB8ue170006Ev, symObjAddr: 0xDEF8, symBinAddr: 0x10001215C, symSize: 0x38 }
  - { offsetInCU: 0x2C925, offset: 0x368F4, size: 0x8, addend: 0x0, symName: __ZNKSt3__119__hash_map_iteratorINS_15__hash_iteratorIPNS_11__hash_nodeINS_17__hash_value_typeIiNS_13unordered_mapIiNS4_IiiNS_4hashIiEENS_8equal_toIiEENS_9allocatorINS_4pairIKiiEEEEEES6_S8_NS9_INSA_ISB_SE_EEEEEEEEPvEEEEEptB8ue170006Ev, symObjAddr: 0xDF94, symBinAddr: 0x1000121F8, symSize: 0x2C }
  - { offsetInCU: 0x2C949, offset: 0x36918, size: 0x8, addend: 0x0, symName: __ZNSt3__112__hash_tableINS_17__hash_value_typeIiNS_13unordered_mapIiNS2_IiiNS_4hashIiEENS_8equal_toIiEENS_9allocatorINS_4pairIKiiEEEEEES4_S6_NS7_INS8_IS9_SC_EEEEEEEENS_22__unordered_map_hasherIiSG_S4_S6_Lb1EEENS_21__unordered_map_equalIiSG_S6_S4_Lb1EEENS7_ISG_EEE4findIiEENS_15__hash_iteratorIPNS_11__hash_nodeISG_PvEEEERKT_, symObjAddr: 0xDFC0, symBinAddr: 0x100012224, symSize: 0x1B0 }
  - { offsetInCU: 0x2C9D1, offset: 0x369A0, size: 0x8, addend: 0x0, symName: __ZNSt3__119__hash_map_iteratorINS_15__hash_iteratorIPNS_11__hash_nodeINS_17__hash_value_typeIiNS_13unordered_mapIiNS4_IiiNS_4hashIiEENS_8equal_toIiEENS_9allocatorINS_4pairIKiiEEEEEES6_S8_NS9_INSA_ISB_SE_EEEEEEEEPvEEEEEC1B8ue170006ESM_, symObjAddr: 0xE170, symBinAddr: 0x1000123D4, symSize: 0x34 }
  - { offsetInCU: 0x2CA08, offset: 0x369D7, size: 0x8, addend: 0x0, symName: __ZNSt3__112__hash_tableINS_17__hash_value_typeIiNS_13unordered_mapIiNS2_IiiNS_4hashIiEENS_8equal_toIiEENS_9allocatorINS_4pairIKiiEEEEEES4_S6_NS7_INS8_IS9_SC_EEEEEEEENS_22__unordered_map_hasherIiSG_S4_S6_Lb1EEENS_21__unordered_map_equalIiSG_S6_S4_Lb1EEENS7_ISG_EEE3endEv, symObjAddr: 0xE1A4, symBinAddr: 0x100012408, symSize: 0x2C }
  - { offsetInCU: 0x2CA2E, offset: 0x369FD, size: 0x8, addend: 0x0, symName: __ZNSt3__119__hash_map_iteratorINS_15__hash_iteratorIPNS_11__hash_nodeINS_17__hash_value_typeIiNS_13unordered_mapIiNS4_IiiNS_4hashIiEENS_8equal_toIiEENS_9allocatorINS_4pairIKiiEEEEEES6_S8_NS9_INSA_ISB_SE_EEEEEEEEPvEEEEEC2B8ue170006ESM_, symObjAddr: 0xE1D0, symBinAddr: 0x100012434, symSize: 0x20 }
  - { offsetInCU: 0x2CA65, offset: 0x36A34, size: 0x8, addend: 0x0, symName: __ZNSt12out_of_rangeC1B8ue170006EPKc, symObjAddr: 0xE220, symBinAddr: 0x100012484, symSize: 0x34 }
  - { offsetInCU: 0x2CA9B, offset: 0x36A6A, size: 0x8, addend: 0x0, symName: __ZNSt12out_of_rangeC2B8ue170006EPKc, symObjAddr: 0xE254, symBinAddr: 0x1000124B8, symSize: 0x4C }
  - { offsetInCU: 0x2CAD1, offset: 0x36AA0, size: 0x8, addend: 0x0, symName: __ZNSt3__114pointer_traitsIPNS_4pairIKiNS_13unordered_mapIiNS3_IiiNS_4hashIiEENS_8equal_toIiEENS_9allocatorINS1_IS2_iEEEEEES5_S7_NS8_INS1_IS2_SB_EEEEEEEEE10pointer_toB8ue170006ERSF_, symObjAddr: 0xE2A0, symBinAddr: 0x100012504, symSize: 0x14 }
  - { offsetInCU: 0x2CAF3, offset: 0x36AC2, size: 0x8, addend: 0x0, symName: __ZNSt3__113unordered_mapIiNS0_IiiNS_4hashIiEENS_8equal_toIiEENS_9allocatorINS_4pairIKiiEEEEEES2_S4_NS5_INS6_IS7_SA_EEEEE4findB8ue170006ERS7_, symObjAddr: 0xE2B4, symBinAddr: 0x100012518, symSize: 0x40 }
  - { offsetInCU: 0x2CB26, offset: 0x36AF5, size: 0x8, addend: 0x0, symName: __ZNSt3__113unordered_mapIiNS0_IiiNS_4hashIiEENS_8equal_toIiEENS_9allocatorINS_4pairIKiiEEEEEES2_S4_NS5_INS6_IS7_SA_EEEEE3endB8ue170006Ev, symObjAddr: 0xE324, symBinAddr: 0x100012588, symSize: 0x38 }
  - { offsetInCU: 0x2CB4A, offset: 0x36B19, size: 0x8, addend: 0x0, symName: __ZNKSt3__119__hash_map_iteratorINS_15__hash_iteratorIPNS_11__hash_nodeINS_17__hash_value_typeIiNS_13unordered_mapIiiNS_4hashIiEENS_8equal_toIiEENS_9allocatorINS_4pairIKiiEEEEEEEEPvEEEEEptB8ue170006Ev, symObjAddr: 0xE35C, symBinAddr: 0x1000125C0, symSize: 0x2C }
  - { offsetInCU: 0x2CB6E, offset: 0x36B3D, size: 0x8, addend: 0x0, symName: __ZNSt3__112__hash_tableINS_17__hash_value_typeIiNS_13unordered_mapIiiNS_4hashIiEENS_8equal_toIiEENS_9allocatorINS_4pairIKiiEEEEEEEENS_22__unordered_map_hasherIiSD_S4_S6_Lb1EEENS_21__unordered_map_equalIiSD_S6_S4_Lb1EEENS7_ISD_EEE4findIiEENS_15__hash_iteratorIPNS_11__hash_nodeISD_PvEEEERKT_, symObjAddr: 0xE388, symBinAddr: 0x1000125EC, symSize: 0x1B0 }
  - { offsetInCU: 0x2CBF6, offset: 0x36BC5, size: 0x8, addend: 0x0, symName: __ZNSt3__119__hash_map_iteratorINS_15__hash_iteratorIPNS_11__hash_nodeINS_17__hash_value_typeIiNS_13unordered_mapIiiNS_4hashIiEENS_8equal_toIiEENS_9allocatorINS_4pairIKiiEEEEEEEEPvEEEEEC1B8ue170006ESJ_, symObjAddr: 0xE538, symBinAddr: 0x10001279C, symSize: 0x34 }
  - { offsetInCU: 0x2CC2D, offset: 0x36BFC, size: 0x8, addend: 0x0, symName: __ZNSt3__112__hash_tableINS_17__hash_value_typeIiNS_13unordered_mapIiiNS_4hashIiEENS_8equal_toIiEENS_9allocatorINS_4pairIKiiEEEEEEEENS_22__unordered_map_hasherIiSD_S4_S6_Lb1EEENS_21__unordered_map_equalIiSD_S6_S4_Lb1EEENS7_ISD_EEE3endEv, symObjAddr: 0xE56C, symBinAddr: 0x1000127D0, symSize: 0x2C }
  - { offsetInCU: 0x2CC53, offset: 0x36C22, size: 0x8, addend: 0x0, symName: __ZNSt3__119__hash_map_iteratorINS_15__hash_iteratorIPNS_11__hash_nodeINS_17__hash_value_typeIiNS_13unordered_mapIiiNS_4hashIiEENS_8equal_toIiEENS_9allocatorINS_4pairIKiiEEEEEEEEPvEEEEEC2B8ue170006ESJ_, symObjAddr: 0xE598, symBinAddr: 0x1000127FC, symSize: 0x20 }
  - { offsetInCU: 0x2CC8A, offset: 0x36C59, size: 0x8, addend: 0x0, symName: __ZNSt3__114pointer_traitsIPNS_4pairIKiNS_13unordered_mapIiiNS_4hashIiEENS_8equal_toIiEENS_9allocatorINS1_IS2_iEEEEEEEEE10pointer_toB8ue170006ERSC_, symObjAddr: 0xE5E8, symBinAddr: 0x10001284C, symSize: 0x14 }
  - { offsetInCU: 0x2CCAC, offset: 0x36C7B, size: 0x8, addend: 0x0, symName: __ZNSt3__113unordered_mapIiiNS_4hashIiEENS_8equal_toIiEENS_9allocatorINS_4pairIKiiEEEEE4findB8ue170006ERS7_, symObjAddr: 0xE5FC, symBinAddr: 0x100012860, symSize: 0x40 }
  - { offsetInCU: 0x2CCDF, offset: 0x36CAE, size: 0x8, addend: 0x0, symName: __ZNSt3__113unordered_mapIiiNS_4hashIiEENS_8equal_toIiEENS_9allocatorINS_4pairIKiiEEEEE3endB8ue170006Ev, symObjAddr: 0xE66C, symBinAddr: 0x1000128D0, symSize: 0x38 }
  - { offsetInCU: 0x2CD03, offset: 0x36CD2, size: 0x8, addend: 0x0, symName: __ZNKSt3__119__hash_map_iteratorINS_15__hash_iteratorIPNS_11__hash_nodeINS_17__hash_value_typeIiiEEPvEEEEEptB8ue170006Ev, symObjAddr: 0xE6A4, symBinAddr: 0x100012908, symSize: 0x2C }
  - { offsetInCU: 0x2CD27, offset: 0x36CF6, size: 0x8, addend: 0x0, symName: __ZNSt3__112__hash_tableINS_17__hash_value_typeIiiEENS_22__unordered_map_hasherIiS2_NS_4hashIiEENS_8equal_toIiEELb1EEENS_21__unordered_map_equalIiS2_S7_S5_Lb1EEENS_9allocatorIS2_EEE4findIiEENS_15__hash_iteratorIPNS_11__hash_nodeIS2_PvEEEERKT_, symObjAddr: 0xE6D0, symBinAddr: 0x100012934, symSize: 0x1B0 }
  - { offsetInCU: 0x2CDAF, offset: 0x36D7E, size: 0x8, addend: 0x0, symName: __ZNSt3__119__hash_map_iteratorINS_15__hash_iteratorIPNS_11__hash_nodeINS_17__hash_value_typeIiiEEPvEEEEEC1B8ue170006ES8_, symObjAddr: 0xE880, symBinAddr: 0x100012AE4, symSize: 0x34 }
  - { offsetInCU: 0x2CDE6, offset: 0x36DB5, size: 0x8, addend: 0x0, symName: __ZNSt3__112__hash_tableINS_17__hash_value_typeIiiEENS_22__unordered_map_hasherIiS2_NS_4hashIiEENS_8equal_toIiEELb1EEENS_21__unordered_map_equalIiS2_S7_S5_Lb1EEENS_9allocatorIS2_EEE3endEv, symObjAddr: 0xE8B4, symBinAddr: 0x100012B18, symSize: 0x2C }
  - { offsetInCU: 0x2CE0C, offset: 0x36DDB, size: 0x8, addend: 0x0, symName: __ZNSt3__119__hash_map_iteratorINS_15__hash_iteratorIPNS_11__hash_nodeINS_17__hash_value_typeIiiEEPvEEEEEC2B8ue170006ES8_, symObjAddr: 0xE8E0, symBinAddr: 0x100012B44, symSize: 0x20 }
  - { offsetInCU: 0x2CE43, offset: 0x36E12, size: 0x8, addend: 0x0, symName: __ZNSt3__114pointer_traitsIPNS_4pairIKiiEEE10pointer_toB8ue170006ERS3_, symObjAddr: 0xE930, symBinAddr: 0x100012B94, symSize: 0x14 }
  - { offsetInCU: 0x2CE65, offset: 0x36E34, size: 0x8, addend: 0x0, symName: __ZNKSt3__115__hash_iteratorIPNS_11__hash_nodeINS_17__hash_value_typeIiiEEPvEEEptB8ue170006Ev, symObjAddr: 0xE944, symBinAddr: 0x100012BA8, symSize: 0x30 }
  - { offsetInCU: 0x2CE89, offset: 0x36E58, size: 0x8, addend: 0x0, symName: __ZNSt3__114pointer_traitsIPNS_17__hash_value_typeIiiEEE10pointer_toB8ue170006ERS2_, symObjAddr: 0xE974, symBinAddr: 0x100012BD8, symSize: 0x14 }
  - { offsetInCU: 0x2CEAB, offset: 0x36E7A, size: 0x8, addend: 0x0, symName: __ZNSt3__16vectorINS0_IiNS_9allocatorIiEEEENS1_IS3_EEE9__end_capB8ue170006Ev, symObjAddr: 0xE988, symBinAddr: 0x100012BEC, symSize: 0x28 }
  - { offsetInCU: 0x2CECF, offset: 0x36E9E, size: 0x8, addend: 0x0, symName: __ZNSt3__16vectorINS0_IiNS_9allocatorIiEEEENS1_IS3_EEE22__construct_one_at_endB8ue170006IJS3_EEEvDpOT_, symObjAddr: 0xE9B0, symBinAddr: 0x100012C14, symSize: 0x90 }
  - { offsetInCU: 0x2CF1C, offset: 0x36EEB, size: 0x8, addend: 0x0, symName: __ZNSt3__16vectorINS0_IiNS_9allocatorIiEEEENS1_IS3_EEE21__push_back_slow_pathIS3_EEvOT_, symObjAddr: 0xEA40, symBinAddr: 0x100012CA4, symSize: 0xD8 }
  - { offsetInCU: 0x2CF78, offset: 0x36F47, size: 0x8, addend: 0x0, symName: __ZNSt3__117__compressed_pairIPNS_6vectorIiNS_9allocatorIiEEEENS2_IS4_EEE5firstB8ue170006Ev, symObjAddr: 0xEB18, symBinAddr: 0x100012D7C, symSize: 0x24 }
  - { offsetInCU: 0x2CF9C, offset: 0x36F6B, size: 0x8, addend: 0x0, symName: __ZNSt3__122__compressed_pair_elemIPNS_6vectorIiNS_9allocatorIiEEEELi0ELb0EE5__getB8ue170006Ev, symObjAddr: 0xEB3C, symBinAddr: 0x100012DA0, symSize: 0x14 }
  - { offsetInCU: 0x2CFD9, offset: 0x36FA8, size: 0x8, addend: 0x0, symName: __ZNSt3__16vectorINS0_IiNS_9allocatorIiEEEENS1_IS3_EEE21_ConstructTransactionC1B8ue170006ERS5_m, symObjAddr: 0xEB50, symBinAddr: 0x100012DB4, symSize: 0x3C }
  - { offsetInCU: 0x2D01F, offset: 0x36FEE, size: 0x8, addend: 0x0, symName: __ZNSt3__116allocator_traitsINS_9allocatorINS_6vectorIiNS1_IiEEEEEEE9constructB8ue170006IS4_JS4_EvEEvRS5_PT_DpOT0_, symObjAddr: 0xEB8C, symBinAddr: 0x100012DF0, symSize: 0x34 }
  - { offsetInCU: 0x2D075, offset: 0x37044, size: 0x8, addend: 0x0, symName: __ZNSt3__16vectorINS0_IiNS_9allocatorIiEEEENS1_IS3_EEE21_ConstructTransactionD1B8ue170006Ev, symObjAddr: 0xEBC0, symBinAddr: 0x100012E24, symSize: 0x2C }
  - { offsetInCU: 0x2D09D, offset: 0x3706C, size: 0x8, addend: 0x0, symName: __ZNSt3__16vectorINS0_IiNS_9allocatorIiEEEENS1_IS3_EEE21_ConstructTransactionC2B8ue170006ERS5_m, symObjAddr: 0xEBEC, symBinAddr: 0x100012E50, symSize: 0x4C }
  - { offsetInCU: 0x2D0E3, offset: 0x370B2, size: 0x8, addend: 0x0, symName: __ZNSt3__19allocatorINS_6vectorIiNS0_IiEEEEE9constructB8ue170006IS3_JS3_EEEvPT_DpOT0_, symObjAddr: 0xEC38, symBinAddr: 0x100012E9C, symSize: 0x30 }
  - { offsetInCU: 0x2D137, offset: 0x37106, size: 0x8, addend: 0x0, symName: __ZNSt3__16vectorIiNS_9allocatorIiEEEC1B8ue170006EOS3_, symObjAddr: 0xEC68, symBinAddr: 0x100012ECC, symSize: 0x34 }
  - { offsetInCU: 0x2D170, offset: 0x3713F, size: 0x8, addend: 0x0, symName: __ZNSt3__16vectorIiNS_9allocatorIiEEEC2B8ue170006EOS3_, symObjAddr: 0xEC9C, symBinAddr: 0x100012F00, symSize: 0xC4 }
  - { offsetInCU: 0x2D1A9, offset: 0x37178, size: 0x8, addend: 0x0, symName: __ZNSt3__16vectorIiNS_9allocatorIiEEE7__allocB8ue170006Ev, symObjAddr: 0xED60, symBinAddr: 0x100012FC4, symSize: 0x28 }
  - { offsetInCU: 0x2D1D2, offset: 0x371A1, size: 0x8, addend: 0x0, symName: __ZNSt3__117__compressed_pairIPiNS_9allocatorIiEEEC1B8ue170006IDnS3_EEOT_OT0_, symObjAddr: 0xED88, symBinAddr: 0x100012FEC, symSize: 0x3C }
  - { offsetInCU: 0x2D228, offset: 0x371F7, size: 0x8, addend: 0x0, symName: __ZNSt3__16vectorIiNS_9allocatorIiEEE9__end_capB8ue170006Ev, symObjAddr: 0xEDC4, symBinAddr: 0x100013028, symSize: 0x28 }
  - { offsetInCU: 0x2D24C, offset: 0x3721B, size: 0x8, addend: 0x0, symName: __ZNSt3__117__compressed_pairIPiNS_9allocatorIiEEE6secondB8ue170006Ev, symObjAddr: 0xEDEC, symBinAddr: 0x100013050, symSize: 0x24 }
  - { offsetInCU: 0x2D270, offset: 0x3723F, size: 0x8, addend: 0x0, symName: __ZNSt3__117__compressed_pairIPiNS_9allocatorIiEEEC2B8ue170006IDnS3_EEOT_OT0_, symObjAddr: 0xEE10, symBinAddr: 0x100013074, symSize: 0x44 }
  - { offsetInCU: 0x2D2C6, offset: 0x37295, size: 0x8, addend: 0x0, symName: __ZNSt3__122__compressed_pair_elemIPiLi0ELb0EEC2B8ue170006IDnvEEOT_, symObjAddr: 0xEE54, symBinAddr: 0x1000130B8, symSize: 0x1C }
  - { offsetInCU: 0x2D306, offset: 0x372D5, size: 0x8, addend: 0x0, symName: __ZNSt3__122__compressed_pair_elemINS_9allocatorIiEELi1ELb1EEC2B8ue170006IS2_vEEOT_, symObjAddr: 0xEE70, symBinAddr: 0x1000130D4, symSize: 0x18 }
  - { offsetInCU: 0x2D346, offset: 0x37315, size: 0x8, addend: 0x0, symName: __ZNSt3__117__compressed_pairIPiNS_9allocatorIiEEE5firstB8ue170006Ev, symObjAddr: 0xEE88, symBinAddr: 0x1000130EC, symSize: 0x24 }
  - { offsetInCU: 0x2D36A, offset: 0x37339, size: 0x8, addend: 0x0, symName: __ZNSt3__122__compressed_pair_elemIPiLi0ELb0EE5__getB8ue170006Ev, symObjAddr: 0xEEAC, symBinAddr: 0x100013110, symSize: 0x14 }
  - { offsetInCU: 0x2D38E, offset: 0x3735D, size: 0x8, addend: 0x0, symName: __ZNSt3__16vectorINS0_IiNS_9allocatorIiEEEENS1_IS3_EEE21_ConstructTransactionD2B8ue170006Ev, symObjAddr: 0xEEC0, symBinAddr: 0x100013124, symSize: 0x20 }
  - { offsetInCU: 0x2D3B6, offset: 0x37385, size: 0x8, addend: 0x0, symName: __ZNKSt3__16vectorINS0_IiNS_9allocatorIiEEEENS1_IS3_EEE11__recommendB8ue170006Em, symObjAddr: 0xEEE0, symBinAddr: 0x100013144, symSize: 0xB4 }
  - { offsetInCU: 0x2D409, offset: 0x373D8, size: 0x8, addend: 0x0, symName: __ZNSt3__114__split_bufferINS_6vectorIiNS_9allocatorIiEEEERNS2_IS4_EEEC1EmmS6_, symObjAddr: 0xEF94, symBinAddr: 0x1000131F8, symSize: 0x44 }
  - { offsetInCU: 0x2D45D, offset: 0x3742C, size: 0x8, addend: 0x0, symName: __ZNSt3__114__split_bufferINS_6vectorIiNS_9allocatorIiEEEERNS2_IS4_EEED1Ev, symObjAddr: 0xF0E8, symBinAddr: 0x10001334C, symSize: 0x2C }
  - { offsetInCU: 0x2D487, offset: 0x37456, size: 0x8, addend: 0x0, symName: __ZNKSt3__16vectorINS0_IiNS_9allocatorIiEEEENS1_IS3_EEE8max_sizeEv, symObjAddr: 0xF114, symBinAddr: 0x100013378, symSize: 0x60 }
  - { offsetInCU: 0x2D4AD, offset: 0x3747C, size: 0x8, addend: 0x0, symName: __ZNKSt3__16vectorINS0_IiNS_9allocatorIiEEEENS1_IS3_EEE20__throw_length_errorB8ue170006Ev, symObjAddr: 0xF174, symBinAddr: 0x1000133D8, symSize: 0x1C }
  - { offsetInCU: 0x2D4DB, offset: 0x374AA, size: 0x8, addend: 0x0, symName: __ZNSt3__116allocator_traitsINS_9allocatorINS_6vectorIiNS1_IiEEEEEEE8max_sizeB8ue170006IS5_vEEmRKS5_, symObjAddr: 0xF1BC, symBinAddr: 0x100013420, symSize: 0x24 }
  - { offsetInCU: 0x2D508, offset: 0x374D7, size: 0x8, addend: 0x0, symName: __ZNKSt3__16vectorINS0_IiNS_9allocatorIiEEEENS1_IS3_EEE7__allocB8ue170006Ev, symObjAddr: 0xF1E0, symBinAddr: 0x100013444, symSize: 0x28 }
  - { offsetInCU: 0x2D52C, offset: 0x374FB, size: 0x8, addend: 0x0, symName: __ZNSt3__114numeric_limitsIlE3maxB8ue170006Ev, symObjAddr: 0xF208, symBinAddr: 0x10001346C, symSize: 0x14 }
  - { offsetInCU: 0x2D540, offset: 0x3750F, size: 0x8, addend: 0x0, symName: __ZNKSt3__19allocatorINS_6vectorIiNS0_IiEEEEE8max_sizeB8ue170006Ev, symObjAddr: 0xF270, symBinAddr: 0x1000134D4, symSize: 0x18 }
  - { offsetInCU: 0x2D564, offset: 0x37533, size: 0x8, addend: 0x0, symName: __ZNKSt3__117__compressed_pairIPNS_6vectorIiNS_9allocatorIiEEEENS2_IS4_EEE6secondB8ue170006Ev, symObjAddr: 0xF288, symBinAddr: 0x1000134EC, symSize: 0x24 }
  - { offsetInCU: 0x2D588, offset: 0x37557, size: 0x8, addend: 0x0, symName: __ZNKSt3__122__compressed_pair_elemINS_9allocatorINS_6vectorIiNS1_IiEEEEEELi1ELb1EE5__getB8ue170006Ev, symObjAddr: 0xF2AC, symBinAddr: 0x100013510, symSize: 0x14 }
  - { offsetInCU: 0x2D5AC, offset: 0x3757B, size: 0x8, addend: 0x0, symName: __ZNSt3__123__libcpp_numeric_limitsIlLb1EE3maxB8ue170006Ev, symObjAddr: 0xF2C0, symBinAddr: 0x100013524, symSize: 0x8 }
  - { offsetInCU: 0x2D5C0, offset: 0x3758F, size: 0x8, addend: 0x0, symName: __ZNSt12length_errorC1B8ue170006EPKc, symObjAddr: 0xF32C, symBinAddr: 0x100013590, symSize: 0x34 }
  - { offsetInCU: 0x2D5F6, offset: 0x375C5, size: 0x8, addend: 0x0, symName: __ZNSt12length_errorC2B8ue170006EPKc, symObjAddr: 0xF360, symBinAddr: 0x1000135C4, symSize: 0x4C }
  - { offsetInCU: 0x2D62C, offset: 0x375FB, size: 0x8, addend: 0x0, symName: __ZNSt3__114__split_bufferINS_6vectorIiNS_9allocatorIiEEEERNS2_IS4_EEEC2EmmS6_, symObjAddr: 0xF3AC, symBinAddr: 0x100013610, symSize: 0xE0 }
  - { offsetInCU: 0x2D69D, offset: 0x3766C, size: 0x8, addend: 0x0, symName: __ZNSt3__117__compressed_pairIPNS_6vectorIiNS_9allocatorIiEEEERNS2_IS4_EEEC1B8ue170006IDnS7_EEOT_OT0_, symObjAddr: 0xF48C, symBinAddr: 0x1000136F0, symSize: 0x3C }
  - { offsetInCU: 0x2D6F3, offset: 0x376C2, size: 0x8, addend: 0x0, symName: __ZNSt3__114__split_bufferINS_6vectorIiNS_9allocatorIiEEEERNS2_IS4_EEE7__allocB8ue170006Ev, symObjAddr: 0xF508, symBinAddr: 0x10001376C, symSize: 0x28 }
  - { offsetInCU: 0x2D717, offset: 0x376E6, size: 0x8, addend: 0x0, symName: __ZNSt3__114__split_bufferINS_6vectorIiNS_9allocatorIiEEEERNS2_IS4_EEE9__end_capB8ue170006Ev, symObjAddr: 0xF530, symBinAddr: 0x100013794, symSize: 0x28 }
  - { offsetInCU: 0x2D73B, offset: 0x3770A, size: 0x8, addend: 0x0, symName: __ZNSt3__117__compressed_pairIPNS_6vectorIiNS_9allocatorIiEEEERNS2_IS4_EEEC2B8ue170006IDnS7_EEOT_OT0_, symObjAddr: 0xF558, symBinAddr: 0x1000137BC, symSize: 0x48 }
  - { offsetInCU: 0x2D791, offset: 0x37760, size: 0x8, addend: 0x0, symName: __ZNSt3__122__compressed_pair_elemIRNS_9allocatorINS_6vectorIiNS1_IiEEEEEELi1ELb0EEC2B8ue170006IS6_vEEOT_, symObjAddr: 0xF5A0, symBinAddr: 0x100013804, symSize: 0x20 }
  - { offsetInCU: 0x2D7D1, offset: 0x377A0, size: 0x8, addend: 0x0, symName: __ZNSt3__19allocatorINS_6vectorIiNS0_IiEEEEE8allocateB8ue170006Em, symObjAddr: 0xF5C0, symBinAddr: 0x100013824, symSize: 0x5C }
  - { offsetInCU: 0x2D803, offset: 0x377D2, size: 0x8, addend: 0x0, symName: __ZNSt3__117__compressed_pairIPNS_6vectorIiNS_9allocatorIiEEEERNS2_IS4_EEE6secondB8ue170006Ev, symObjAddr: 0xF61C, symBinAddr: 0x100013880, symSize: 0x28 }
  - { offsetInCU: 0x2D827, offset: 0x377F6, size: 0x8, addend: 0x0, symName: __ZNSt3__122__compressed_pair_elemIRNS_9allocatorINS_6vectorIiNS1_IiEEEEEELi1ELb0EE5__getB8ue170006Ev, symObjAddr: 0xF644, symBinAddr: 0x1000138A8, symSize: 0x18 }
  - { offsetInCU: 0x2D84B, offset: 0x3781A, size: 0x8, addend: 0x0, symName: __ZNSt3__117__compressed_pairIPNS_6vectorIiNS_9allocatorIiEEEERNS2_IS4_EEE5firstB8ue170006Ev, symObjAddr: 0xF65C, symBinAddr: 0x1000138C0, symSize: 0x24 }
  - { offsetInCU: 0x2D86F, offset: 0x3783E, size: 0x8, addend: 0x0, symName: __ZNSt3__116reverse_iteratorIPNS_6vectorIiNS_9allocatorIiEEEEEC1B8ue170006ES5_, symObjAddr: 0xF7AC, symBinAddr: 0x100013A10, symSize: 0x34 }
  - { offsetInCU: 0x2D8A5, offset: 0x37874, size: 0x8, addend: 0x0, symName: __ZNKSt3__116reverse_iteratorIPNS_6vectorIiNS_9allocatorIiEEEEE4baseB8ue170006Ev, symObjAddr: 0xF7E0, symBinAddr: 0x100013A44, symSize: 0x18 }
  - { offsetInCU: 0x2D8C9, offset: 0x37898, size: 0x8, addend: 0x0, symName: __ZNKSt3__16vectorINS0_IiNS_9allocatorIiEEEENS1_IS3_EEE14__annotate_newB8ue170006Em, symObjAddr: 0xF834, symBinAddr: 0x100013A98, symSize: 0xC8 }
  - { offsetInCU: 0x2D8FC, offset: 0x378CB, size: 0x8, addend: 0x0, symName: __ZNSt3__129_AllocatorDestroyRangeReverseINS_9allocatorINS_6vectorIiNS1_IiEEEEEENS_16reverse_iteratorIPS4_EEEC1B8ue170006ERS5_RS8_SB_, symObjAddr: 0xF948, symBinAddr: 0x100013BAC, symSize: 0x44 }
  - { offsetInCU: 0x2D951, offset: 0x37920, size: 0x8, addend: 0x0, symName: __ZNKSt3__116reverse_iteratorIPNS_6vectorIiNS_9allocatorIiEEEEEdeB8ue170006Ev, symObjAddr: 0xF9F8, symBinAddr: 0x100013C5C, symSize: 0x28 }
  - { offsetInCU: 0x2D984, offset: 0x37953, size: 0x8, addend: 0x0, symName: __ZNSt3__116reverse_iteratorIPNS_6vectorIiNS_9allocatorIiEEEEEppB8ue170006Ev, symObjAddr: 0xFA20, symBinAddr: 0x100013C84, symSize: 0x20 }
  - { offsetInCU: 0x2D9A8, offset: 0x37977, size: 0x8, addend: 0x0, symName: __ZNSt3__128__exception_guard_exceptionsINS_29_AllocatorDestroyRangeReverseINS_9allocatorINS_6vectorIiNS2_IiEEEEEENS_16reverse_iteratorIPS5_EEEEE10__completeB8ue170006Ev, symObjAddr: 0xFA40, symBinAddr: 0x100013CA4, symSize: 0x1C }
  - { offsetInCU: 0x2D9CC, offset: 0x3799B, size: 0x8, addend: 0x0, symName: __ZNSt3__128__exception_guard_exceptionsINS_29_AllocatorDestroyRangeReverseINS_9allocatorINS_6vectorIiNS2_IiEEEEEENS_16reverse_iteratorIPS5_EEEEED1B8ue170006Ev, symObjAddr: 0xFA5C, symBinAddr: 0x100013CC0, symSize: 0x2C }
  - { offsetInCU: 0x2D9F4, offset: 0x379C3, size: 0x8, addend: 0x0, symName: __ZNSt3__128__exception_guard_exceptionsINS_29_AllocatorDestroyRangeReverseINS_9allocatorINS_6vectorIiNS2_IiEEEEEENS_16reverse_iteratorIPS5_EEEEEC1B8ue170006ESA_, symObjAddr: 0xFA88, symBinAddr: 0x100013CEC, symSize: 0x34 }
  - { offsetInCU: 0x2DA2B, offset: 0x379FA, size: 0x8, addend: 0x0, symName: __ZNSt3__128__exception_guard_exceptionsINS_29_AllocatorDestroyRangeReverseINS_9allocatorINS_6vectorIiNS2_IiEEEEEENS_16reverse_iteratorIPS5_EEEEEC2B8ue170006ESA_, symObjAddr: 0xFABC, symBinAddr: 0x100013D20, symSize: 0x30 }
  - { offsetInCU: 0x2DA62, offset: 0x37A31, size: 0x8, addend: 0x0, symName: __ZNSt3__129_AllocatorDestroyRangeReverseINS_9allocatorINS_6vectorIiNS1_IiEEEEEENS_16reverse_iteratorIPS4_EEEC2B8ue170006ERS5_RS8_SB_, symObjAddr: 0xFAEC, symBinAddr: 0x100013D50, symSize: 0x38 }
  - { offsetInCU: 0x2DABC, offset: 0x37A8B, size: 0x8, addend: 0x0, symName: __ZNSt3__119__to_address_helperINS_16reverse_iteratorIPNS_6vectorIiNS_9allocatorIiEEEEEEvE6__callB8ue170006ERKS7_, symObjAddr: 0xFB24, symBinAddr: 0x100013D88, symSize: 0x38 }
  - { offsetInCU: 0x2DADE, offset: 0x37AAD, size: 0x8, addend: 0x0, symName: __ZNKSt3__116reverse_iteratorIPNS_6vectorIiNS_9allocatorIiEEEEEptB8ue170006Ev, symObjAddr: 0xFB5C, symBinAddr: 0x100013DC0, symSize: 0x24 }
  - { offsetInCU: 0x2DB02, offset: 0x37AD1, size: 0x8, addend: 0x0, symName: __ZNSt3__128__exception_guard_exceptionsINS_29_AllocatorDestroyRangeReverseINS_9allocatorINS_6vectorIiNS2_IiEEEEEENS_16reverse_iteratorIPS5_EEEEED2B8ue170006Ev, symObjAddr: 0xFB80, symBinAddr: 0x100013DE4, symSize: 0x50 }
  - { offsetInCU: 0x2DB2A, offset: 0x37AF9, size: 0x8, addend: 0x0, symName: __ZNKSt3__129_AllocatorDestroyRangeReverseINS_9allocatorINS_6vectorIiNS1_IiEEEEEENS_16reverse_iteratorIPS4_EEEclB8ue170006Ev, symObjAddr: 0xFBD0, symBinAddr: 0x100013E34, symSize: 0xB4 }
  - { offsetInCU: 0x2DB4F, offset: 0x37B1E, size: 0x8, addend: 0x0, symName: __ZNSt3__116reverse_iteratorINS0_IPNS_6vectorIiNS_9allocatorIiEEEEEEEC1B8ue170006ES6_, symObjAddr: 0xFCF4, symBinAddr: 0x100013F58, symSize: 0x3C }
  - { offsetInCU: 0x2DB85, offset: 0x37B54, size: 0x8, addend: 0x0, symName: __ZNSt3__116reverse_iteratorINS0_IPNS_6vectorIiNS_9allocatorIiEEEEEEEppB8ue170006Ev, symObjAddr: 0xFDB4, symBinAddr: 0x100014018, symSize: 0x30 }
  - { offsetInCU: 0x2DBA9, offset: 0x37B78, size: 0x8, addend: 0x0, symName: __ZNKSt3__116reverse_iteratorINS0_IPNS_6vectorIiNS_9allocatorIiEEEEEEE4baseB8ue170006Ev, symObjAddr: 0xFDE4, symBinAddr: 0x100014048, symSize: 0x24 }
  - { offsetInCU: 0x2DBD2, offset: 0x37BA1, size: 0x8, addend: 0x0, symName: __ZNSt3__119__to_address_helperINS_16reverse_iteratorINS1_IPNS_6vectorIiNS_9allocatorIiEEEEEEEEvE6__callB8ue170006ERKS8_, symObjAddr: 0xFE08, symBinAddr: 0x10001406C, symSize: 0x38 }
  - { offsetInCU: 0x2DBF4, offset: 0x37BC3, size: 0x8, addend: 0x0, symName: __ZNKSt3__116reverse_iteratorINS0_IPNS_6vectorIiNS_9allocatorIiEEEEEEEptB8ue170006Ev, symObjAddr: 0xFE40, symBinAddr: 0x1000140A4, symSize: 0x24 }
  - { offsetInCU: 0x2DC18, offset: 0x37BE7, size: 0x8, addend: 0x0, symName: __ZNKSt3__116reverse_iteratorINS0_IPNS_6vectorIiNS_9allocatorIiEEEEEEEdeB8ue170006Ev, symObjAddr: 0xFE64, symBinAddr: 0x1000140C8, symSize: 0x34 }
  - { offsetInCU: 0x2DC4B, offset: 0x37C1A, size: 0x8, addend: 0x0, symName: __ZNSt3__116reverse_iteratorIPNS_6vectorIiNS_9allocatorIiEEEEEmmB8ue170006Ev, symObjAddr: 0xFE98, symBinAddr: 0x1000140FC, symSize: 0x20 }
  - { offsetInCU: 0x2DC6F, offset: 0x37C3E, size: 0x8, addend: 0x0, symName: __ZNSt3__116reverse_iteratorINS0_IPNS_6vectorIiNS_9allocatorIiEEEEEEEC2B8ue170006ES6_, symObjAddr: 0xFEB8, symBinAddr: 0x10001411C, symSize: 0x2C }
  - { offsetInCU: 0x2DCA5, offset: 0x37C74, size: 0x8, addend: 0x0, symName: __ZNSt3__116reverse_iteratorIPNS_6vectorIiNS_9allocatorIiEEEEEC2B8ue170006ES5_, symObjAddr: 0xFEE4, symBinAddr: 0x100014148, symSize: 0x28 }
  - { offsetInCU: 0x2DCDB, offset: 0x37CAA, size: 0x8, addend: 0x0, symName: __ZNSt3__114__split_bufferINS_6vectorIiNS_9allocatorIiEEEERNS2_IS4_EEED2Ev, symObjAddr: 0xFF0C, symBinAddr: 0x100014170, symSize: 0x8C }
  - { offsetInCU: 0x2DD05, offset: 0x37CD4, size: 0x8, addend: 0x0, symName: __ZNSt3__114__split_bufferINS_6vectorIiNS_9allocatorIiEEEERNS2_IS4_EEE5clearB8ue170006Ev, symObjAddr: 0xFF98, symBinAddr: 0x1000141FC, symSize: 0x28 }
  - { offsetInCU: 0x2DD29, offset: 0x37CF8, size: 0x8, addend: 0x0, symName: __ZNKSt3__114__split_bufferINS_6vectorIiNS_9allocatorIiEEEERNS2_IS4_EEE8capacityB8ue170006Ev, symObjAddr: 0xFFC0, symBinAddr: 0x100014224, symSize: 0x40 }
  - { offsetInCU: 0x2DD4D, offset: 0x37D1C, size: 0x8, addend: 0x0, symName: __ZNSt3__114__split_bufferINS_6vectorIiNS_9allocatorIiEEEERNS2_IS4_EEE17__destruct_at_endB8ue170006EPS4_, symObjAddr: 0x10000, symBinAddr: 0x100014264, symSize: 0x2C }
  - { offsetInCU: 0x2DD7F, offset: 0x37D4E, size: 0x8, addend: 0x0, symName: __ZNSt3__114__split_bufferINS_6vectorIiNS_9allocatorIiEEEERNS2_IS4_EEE17__destruct_at_endB8ue170006EPS4_NS_17integral_constantIbLb0EEE, symObjAddr: 0x1002C, symBinAddr: 0x100014290, symSize: 0x80 }
  - { offsetInCU: 0x2DDBD, offset: 0x37D8C, size: 0x8, addend: 0x0, symName: __ZNKSt3__114__split_bufferINS_6vectorIiNS_9allocatorIiEEEERNS2_IS4_EEE9__end_capB8ue170006Ev, symObjAddr: 0x100AC, symBinAddr: 0x100014310, symSize: 0x28 }
  - { offsetInCU: 0x2DDE1, offset: 0x37DB0, size: 0x8, addend: 0x0, symName: __ZNKSt3__117__compressed_pairIPNS_6vectorIiNS_9allocatorIiEEEERNS2_IS4_EEE5firstB8ue170006Ev, symObjAddr: 0x100D4, symBinAddr: 0x100014338, symSize: 0x24 }
  - { offsetInCU: 0x2DE05, offset: 0x37DD4, size: 0x8, addend: 0x0, symName: __ZNSt3__16vectorIiNS_9allocatorIiEEEC2B8ue170006ESt16initializer_listIiE, symObjAddr: 0x100F8, symBinAddr: 0x10001435C, symSize: 0x120 }
  - { offsetInCU: 0x2DE53, offset: 0x37E22, size: 0x8, addend: 0x0, symName: __ZNSt3__117__compressed_pairIPiNS_9allocatorIiEEEC1B8ue170006IDnNS_18__default_init_tagEEEOT_OT0_, symObjAddr: 0x10218, symBinAddr: 0x10001447C, symSize: 0x3C }
  - { offsetInCU: 0x2DEA9, offset: 0x37E78, size: 0x8, addend: 0x0, symName: __ZNSt3__16vectorIiNS_9allocatorIiEEE16__destroy_vectorC1B8ue170006ERS3_, symObjAddr: 0x10294, symBinAddr: 0x1000144F8, symSize: 0x34 }
  - { offsetInCU: 0x2DEE0, offset: 0x37EAF, size: 0x8, addend: 0x0, symName: __ZNKSt16initializer_listIiE4sizeB8ue170006Ev, symObjAddr: 0x102C8, symBinAddr: 0x10001452C, symSize: 0x18 }
  - { offsetInCU: 0x2DF04, offset: 0x37ED3, size: 0x8, addend: 0x0, symName: __ZNSt3__16vectorIiNS_9allocatorIiEEE11__vallocateB8ue170006Em, symObjAddr: 0x102E0, symBinAddr: 0x100014544, symSize: 0xAC }
  - { offsetInCU: 0x2DF46, offset: 0x37F15, size: 0x8, addend: 0x0, symName: __ZNSt3__16vectorIiNS_9allocatorIiEEE18__construct_at_endIPKiS6_EEvT_T0_m, symObjAddr: 0x1038C, symBinAddr: 0x1000145F0, symSize: 0x8C }
  - { offsetInCU: 0x2DFBA, offset: 0x37F89, size: 0x8, addend: 0x0, symName: __ZNKSt16initializer_listIiE5beginB8ue170006Ev, symObjAddr: 0x10418, symBinAddr: 0x10001467C, symSize: 0x18 }
  - { offsetInCU: 0x2DFDE, offset: 0x37FAD, size: 0x8, addend: 0x0, symName: __ZNKSt16initializer_listIiE3endB8ue170006Ev, symObjAddr: 0x10430, symBinAddr: 0x100014694, symSize: 0x20 }
  - { offsetInCU: 0x2E002, offset: 0x37FD1, size: 0x8, addend: 0x0, symName: __ZNSt3__128__exception_guard_exceptionsINS_6vectorIiNS_9allocatorIiEEE16__destroy_vectorEE10__completeB8ue170006Ev, symObjAddr: 0x10450, symBinAddr: 0x1000146B4, symSize: 0x1C }
  - { offsetInCU: 0x2E026, offset: 0x37FF5, size: 0x8, addend: 0x0, symName: __ZNSt3__128__exception_guard_exceptionsINS_6vectorIiNS_9allocatorIiEEE16__destroy_vectorEED1B8ue170006Ev, symObjAddr: 0x1046C, symBinAddr: 0x1000146D0, symSize: 0x2C }
  - { offsetInCU: 0x2E04E, offset: 0x3801D, size: 0x8, addend: 0x0, symName: __ZNSt3__117__compressed_pairIPiNS_9allocatorIiEEEC2B8ue170006IDnNS_18__default_init_tagEEEOT_OT0_, symObjAddr: 0x10498, symBinAddr: 0x1000146FC, symSize: 0x40 }
  - { offsetInCU: 0x2E0A4, offset: 0x38073, size: 0x8, addend: 0x0, symName: __ZNSt3__128__exception_guard_exceptionsINS_6vectorIiNS_9allocatorIiEEE16__destroy_vectorEEC1B8ue170006ES5_, symObjAddr: 0x104D8, symBinAddr: 0x10001473C, symSize: 0x34 }
  - { offsetInCU: 0x2E0DA, offset: 0x380A9, size: 0x8, addend: 0x0, symName: __ZNSt3__128__exception_guard_exceptionsINS_6vectorIiNS_9allocatorIiEEE16__destroy_vectorEEC2B8ue170006ES5_, symObjAddr: 0x1050C, symBinAddr: 0x100014770, symSize: 0x24 }
  - { offsetInCU: 0x2E110, offset: 0x380DF, size: 0x8, addend: 0x0, symName: __ZNSt3__16vectorIiNS_9allocatorIiEEE16__destroy_vectorC2B8ue170006ERS3_, symObjAddr: 0x10530, symBinAddr: 0x100014794, symSize: 0x20 }
  - { offsetInCU: 0x2E147, offset: 0x38116, size: 0x8, addend: 0x0, symName: __ZNKSt3__16vectorIiNS_9allocatorIiEEE8max_sizeEv, symObjAddr: 0x10550, symBinAddr: 0x1000147B4, symSize: 0x60 }
  - { offsetInCU: 0x2E16D, offset: 0x3813C, size: 0x8, addend: 0x0, symName: __ZNKSt3__16vectorIiNS_9allocatorIiEEE20__throw_length_errorB8ue170006Ev, symObjAddr: 0x105B0, symBinAddr: 0x100014814, symSize: 0x1C }
  - { offsetInCU: 0x2E191, offset: 0x38160, size: 0x8, addend: 0x0, symName: __ZNKSt3__16vectorIiNS_9allocatorIiEEE14__annotate_newB8ue170006Em, symObjAddr: 0x1060C, symBinAddr: 0x100014870, symSize: 0xAC }
  - { offsetInCU: 0x2E1CE, offset: 0x3819D, size: 0x8, addend: 0x0, symName: __ZNSt3__116allocator_traitsINS_9allocatorIiEEE8max_sizeB8ue170006IS2_vEEmRKS2_, symObjAddr: 0x106B8, symBinAddr: 0x10001491C, symSize: 0x24 }
  - { offsetInCU: 0x2E1FB, offset: 0x381CA, size: 0x8, addend: 0x0, symName: __ZNKSt3__16vectorIiNS_9allocatorIiEEE7__allocB8ue170006Ev, symObjAddr: 0x106DC, symBinAddr: 0x100014940, symSize: 0x28 }
  - { offsetInCU: 0x2E21F, offset: 0x381EE, size: 0x8, addend: 0x0, symName: __ZNKSt3__19allocatorIiE8max_sizeB8ue170006Ev, symObjAddr: 0x10704, symBinAddr: 0x100014968, symSize: 0x14 }
  - { offsetInCU: 0x2E243, offset: 0x38212, size: 0x8, addend: 0x0, symName: __ZNKSt3__117__compressed_pairIPiNS_9allocatorIiEEE6secondB8ue170006Ev, symObjAddr: 0x10718, symBinAddr: 0x10001497C, symSize: 0x24 }
  - { offsetInCU: 0x2E267, offset: 0x38236, size: 0x8, addend: 0x0, symName: __ZNKSt3__122__compressed_pair_elemINS_9allocatorIiEELi1ELb1EE5__getB8ue170006Ev, symObjAddr: 0x1073C, symBinAddr: 0x1000149A0, symSize: 0x14 }
  - { offsetInCU: 0x2E28B, offset: 0x3825A, size: 0x8, addend: 0x0, symName: __ZNSt3__19allocatorIiE8allocateB8ue170006Em, symObjAddr: 0x10750, symBinAddr: 0x1000149B4, symSize: 0x58 }
  - { offsetInCU: 0x2E2BD, offset: 0x3828C, size: 0x8, addend: 0x0, symName: __ZNKSt3__16vectorIiNS_9allocatorIiEEE31__annotate_contiguous_containerB8ue170006EPKvS5_S5_S5_, symObjAddr: 0x107A8, symBinAddr: 0x100014A0C, symSize: 0x20 }
  - { offsetInCU: 0x2E30D, offset: 0x382DC, size: 0x8, addend: 0x0, symName: __ZNKSt3__16vectorIiNS_9allocatorIiEEE4dataB8ue170006Ev, symObjAddr: 0x107C8, symBinAddr: 0x100014A2C, symSize: 0x28 }
  - { offsetInCU: 0x2E331, offset: 0x38300, size: 0x8, addend: 0x0, symName: __ZNKSt3__16vectorIiNS_9allocatorIiEEE8capacityB8ue170006Ev, symObjAddr: 0x107F0, symBinAddr: 0x100014A54, symSize: 0x40 }
  - { offsetInCU: 0x2E355, offset: 0x38324, size: 0x8, addend: 0x0, symName: __ZNKSt3__16vectorIiNS_9allocatorIiEEE9__end_capB8ue170006Ev, symObjAddr: 0x10830, symBinAddr: 0x100014A94, symSize: 0x28 }
  - { offsetInCU: 0x2E379, offset: 0x38348, size: 0x8, addend: 0x0, symName: __ZNKSt3__117__compressed_pairIPiNS_9allocatorIiEEE5firstB8ue170006Ev, symObjAddr: 0x10858, symBinAddr: 0x100014ABC, symSize: 0x24 }
  - { offsetInCU: 0x2E39D, offset: 0x3836C, size: 0x8, addend: 0x0, symName: __ZNKSt3__122__compressed_pair_elemIPiLi0ELb0EE5__getB8ue170006Ev, symObjAddr: 0x1087C, symBinAddr: 0x100014AE0, symSize: 0x14 }
  - { offsetInCU: 0x2E3DA, offset: 0x383A9, size: 0x8, addend: 0x0, symName: __ZNSt3__16vectorIiNS_9allocatorIiEEE21_ConstructTransactionC1B8ue170006ERS3_m, symObjAddr: 0x10890, symBinAddr: 0x100014AF4, symSize: 0x3C }
  - { offsetInCU: 0x2E420, offset: 0x383EF, size: 0x8, addend: 0x0, symName: __ZNSt3__16vectorIiNS_9allocatorIiEEE21_ConstructTransactionD1B8ue170006Ev, symObjAddr: 0x1094C, symBinAddr: 0x100014BB0, symSize: 0x2C }
  - { offsetInCU: 0x2E448, offset: 0x38417, size: 0x8, addend: 0x0, symName: __ZNSt3__16vectorIiNS_9allocatorIiEEE21_ConstructTransactionC2B8ue170006ERS3_m, symObjAddr: 0x10978, symBinAddr: 0x100014BDC, symSize: 0x44 }
  - { offsetInCU: 0x2E4AC, offset: 0x3847B, size: 0x8, addend: 0x0, symName: __ZNSt3__14pairIPKiS2_EC1B8ue170006IS2_S2_LPv0EEEOT_OT0_, symObjAddr: 0x10B10, symBinAddr: 0x100014D74, symSize: 0x3C }
  - { offsetInCU: 0x2E508, offset: 0x384D7, size: 0x8, addend: 0x0, symName: __ZNSt3__14pairIPKiS2_EC2B8ue170006IS2_S2_LPv0EEEOT_OT0_, symObjAddr: 0x10B4C, symBinAddr: 0x100014DB0, symSize: 0x34 }
  - { offsetInCU: 0x2E564, offset: 0x38533, size: 0x8, addend: 0x0, symName: __ZNSt3__118__unwrap_iter_implIPKiLb1EE8__unwrapB8ue170006ES2_, symObjAddr: 0x10B80, symBinAddr: 0x100014DE4, symSize: 0x24 }
  - { offsetInCU: 0x2E5A9, offset: 0x38578, size: 0x8, addend: 0x0, symName: __ZNKSt3__114__copy_trivialclB8ue170006IKiiLi0EEENS_4pairIPT_PT0_EES5_S5_S7_, symObjAddr: 0x10D34, symBinAddr: 0x100014F98, symSize: 0x48 }
  - { offsetInCU: 0x2E614, offset: 0x385E3, size: 0x8, addend: 0x0, symName: __ZNSt3__14pairIPKiPiEC1B8ue170006IRS2_S3_LPv0EEEOT_OT0_, symObjAddr: 0x10EFC, symBinAddr: 0x100015160, symSize: 0x3C }
  - { offsetInCU: 0x2E670, offset: 0x3863F, size: 0x8, addend: 0x0, symName: __ZNSt3__14pairIPKiPiEC2B8ue170006IRS2_S3_LPv0EEEOT_OT0_, symObjAddr: 0x10F38, symBinAddr: 0x10001519C, symSize: 0x34 }
  - { offsetInCU: 0x2E6CC, offset: 0x3869B, size: 0x8, addend: 0x0, symName: __ZNSt3__14pairIPKiPiEC1B8ue170006IS2_S3_LPv0EEEOT_OT0_, symObjAddr: 0x10F6C, symBinAddr: 0x1000151D0, symSize: 0x3C }
  - { offsetInCU: 0x2E728, offset: 0x386F7, size: 0x8, addend: 0x0, symName: __ZNSt3__14pairIPKiPiEC2B8ue170006IS2_S3_LPv0EEEOT_OT0_, symObjAddr: 0x10FA8, symBinAddr: 0x10001520C, symSize: 0x34 }
  - { offsetInCU: 0x2E784, offset: 0x38753, size: 0x8, addend: 0x0, symName: __ZNSt3__118__unwrap_iter_implIPKiLb1EE8__rewrapB8ue170006ES2_S2_, symObjAddr: 0x11018, symBinAddr: 0x10001527C, symSize: 0x50 }
  - { offsetInCU: 0x2E7B4, offset: 0x38783, size: 0x8, addend: 0x0, symName: __ZNSt3__118__unwrap_iter_implIPiLb1EE8__unwrapB8ue170006ES1_, symObjAddr: 0x11068, symBinAddr: 0x1000152CC, symSize: 0x24 }
  - { offsetInCU: 0x2E7D6, offset: 0x387A5, size: 0x8, addend: 0x0, symName: __ZNSt3__118__unwrap_iter_implIPiLb1EE8__rewrapB8ue170006ES1_S1_, symObjAddr: 0x1108C, symBinAddr: 0x1000152F0, symSize: 0x50 }
  - { offsetInCU: 0x2E806, offset: 0x387D5, size: 0x8, addend: 0x0, symName: __ZNSt3__16vectorIiNS_9allocatorIiEEE21_ConstructTransactionD2B8ue170006Ev, symObjAddr: 0x110DC, symBinAddr: 0x100015340, symSize: 0x20 }
  - { offsetInCU: 0x2E82E, offset: 0x387FD, size: 0x8, addend: 0x0, symName: __ZNSt3__128__exception_guard_exceptionsINS_6vectorIiNS_9allocatorIiEEE16__destroy_vectorEED2B8ue170006Ev, symObjAddr: 0x110FC, symBinAddr: 0x100015360, symSize: 0x50 }
  - { offsetInCU: 0x2E856, offset: 0x38825, size: 0x8, addend: 0x0, symName: __ZNSt3__16vectorIiNS_9allocatorIiEEE16__destroy_vectorclB8ue170006Ev, symObjAddr: 0x1114C, symBinAddr: 0x1000153B0, symSize: 0x90 }
  - { offsetInCU: 0x2E87A, offset: 0x38849, size: 0x8, addend: 0x0, symName: __ZNSt3__16vectorIiNS_9allocatorIiEEE7__clearB8ue170006Ev, symObjAddr: 0x111DC, symBinAddr: 0x100015440, symSize: 0x28 }
  - { offsetInCU: 0x2E89E, offset: 0x3886D, size: 0x8, addend: 0x0, symName: __ZNKSt3__16vectorIiNS_9allocatorIiEEE17__annotate_deleteB8ue170006Ev, symObjAddr: 0x11204, symBinAddr: 0x100015468, symSize: 0xB8 }
  - { offsetInCU: 0x2E8C2, offset: 0x38891, size: 0x8, addend: 0x0, symName: __ZNSt3__16vectorIiNS_9allocatorIiEEE22__base_destruct_at_endB8ue170006EPi, symObjAddr: 0x112BC, symBinAddr: 0x100015520, symSize: 0x8C }
  - { offsetInCU: 0x2E904, offset: 0x388D3, size: 0x8, addend: 0x0, symName: __ZNKSt3__16vectorIiNS_9allocatorIiEEE4sizeB8ue170006Ev, symObjAddr: 0x11348, symBinAddr: 0x1000155AC, symSize: 0x28 }
  - { offsetInCU: 0x2E928, offset: 0x388F7, size: 0x8, addend: 0x0, symName: __ZNSt3__16vectorIiNS_9allocatorIiEEED2B8ue170006Ev, symObjAddr: 0x11370, symBinAddr: 0x1000155D4, symSize: 0x40 }
  - { offsetInCU: 0x2E950, offset: 0x3891F, size: 0x8, addend: 0x0, symName: __ZNSt3__15dequeIiNS_9allocatorIiEEE9push_backERKi, symObjAddr: 0x113B0, symBinAddr: 0x100015614, symSize: 0xAC }
  - { offsetInCU: 0x2E994, offset: 0x38963, size: 0x8, addend: 0x0, symName: __ZNSt3__15dequeIiNS_9allocatorIiEEE19__add_back_capacityEv, symObjAddr: 0x1145C, symBinAddr: 0x1000156C0, symSize: 0x34C }
  - { offsetInCU: 0x2EA47, offset: 0x38A16, size: 0x8, addend: 0x0, symName: __ZNKSt3__15dequeIiNS_9allocatorIiEEE24__annotate_increase_backB8ue170006Em, symObjAddr: 0x117A8, symBinAddr: 0x100015A0C, symSize: 0x7C }
  - { offsetInCU: 0x2EA7A, offset: 0x38A49, size: 0x8, addend: 0x0, symName: __ZNSt3__116allocator_traitsINS_9allocatorIiEEE9constructB8ue170006IiJRKiEvEEvRS2_PT_DpOT0_, symObjAddr: 0x11824, symBinAddr: 0x100015A88, symSize: 0x34 }
  - { offsetInCU: 0x2EAD0, offset: 0x38A9F, size: 0x8, addend: 0x0, symName: __ZNKSt3__15dequeIiNS_9allocatorIiEEE13__front_spareB8ue170006Ev, symObjAddr: 0x11858, symBinAddr: 0x100015ABC, symSize: 0x18 }
  - { offsetInCU: 0x2EAF4, offset: 0x38AC3, size: 0x8, addend: 0x0, symName: __ZNSt3__114__split_bufferIPiNS_9allocatorIS1_EEE9push_backB8ue170006ERKS1_, symObjAddr: 0x11870, symBinAddr: 0x100015AD4, symSize: 0x260 }
  - { offsetInCU: 0x2EB6A, offset: 0x38B39, size: 0x8, addend: 0x0, symName: __ZNKSt3__114__split_bufferIPiNS_9allocatorIS1_EEE12__back_spareB8ue170006Ev, symObjAddr: 0x11AD0, symBinAddr: 0x100015D34, symSize: 0x40 }
  - { offsetInCU: 0x2EB8E, offset: 0x38B5D, size: 0x8, addend: 0x0, symName: __ZNSt3__114__split_bufferIPiNS_9allocatorIS1_EEE9push_backEOS1_, symObjAddr: 0x11B10, symBinAddr: 0x100015D74, symSize: 0x260 }
  - { offsetInCU: 0x2EC04, offset: 0x38BD3, size: 0x8, addend: 0x0, symName: __ZNSt3__116allocator_traitsINS_9allocatorIiEEE8allocateB8ue170006ERS2_m, symObjAddr: 0x11D70, symBinAddr: 0x100015FD4, symSize: 0x2C }
  - { offsetInCU: 0x2EC36, offset: 0x38C05, size: 0x8, addend: 0x0, symName: __ZNSt3__114__split_bufferIPiNS_9allocatorIS1_EEE10push_frontEOS1_, symObjAddr: 0x11D9C, symBinAddr: 0x100016000, symSize: 0x25C }
  - { offsetInCU: 0x2ECAC, offset: 0x38C7B, size: 0x8, addend: 0x0, symName: __ZNSt3__114__split_bufferIPiRNS_9allocatorIS1_EEEC1EmmS4_, symObjAddr: 0x11FF8, symBinAddr: 0x10001625C, symSize: 0x44 }
  - { offsetInCU: 0x2ED05, offset: 0x38CD4, size: 0x8, addend: 0x0, symName: __ZNSt3__122__allocator_destructorINS_9allocatorIiEEEC1B8ue170006ERS2_m, symObjAddr: 0x1203C, symBinAddr: 0x1000162A0, symSize: 0x3C }
  - { offsetInCU: 0x2EDB2, offset: 0x38D81, size: 0x8, addend: 0x0, symName: __ZNSt3__110unique_ptrIPiNS_22__allocator_destructorINS_9allocatorIiEEEEEC1B8ue170006ILb1EvEES1_NS_16__dependent_typeINS_27__unique_ptr_deleter_sfinaeIS5_EEXT_EE20__good_rval_ref_typeE, symObjAddr: 0x12078, symBinAddr: 0x1000162DC, symSize: 0x3C }
  - { offsetInCU: 0x2EE01, offset: 0x38DD0, size: 0x8, addend: 0x0, symName: __ZNSt3__114__split_bufferIPiRNS_9allocatorIS1_EEE9push_backEOS1_, symObjAddr: 0x120B4, symBinAddr: 0x100016318, symSize: 0x260 }
  - { offsetInCU: 0x2EE77, offset: 0x38E46, size: 0x8, addend: 0x0, symName: __ZNKSt3__110unique_ptrIPiNS_22__allocator_destructorINS_9allocatorIiEEEEE3getB8ue170006Ev, symObjAddr: 0x12314, symBinAddr: 0x100016578, symSize: 0x28 }
  - { offsetInCU: 0x2EE9B, offset: 0x38E6A, size: 0x8, addend: 0x0, symName: __ZNSt3__110unique_ptrIPiNS_22__allocator_destructorINS_9allocatorIiEEEEE7releaseB8ue170006Ev, symObjAddr: 0x1233C, symBinAddr: 0x1000165A0, symSize: 0x44 }
  - { offsetInCU: 0x2EECE, offset: 0x38E9D, size: 0x8, addend: 0x0, symName: __ZNSt3__114__split_bufferIPiRNS_9allocatorIS1_EEE10push_frontERKS1_, symObjAddr: 0x12380, symBinAddr: 0x1000165E4, symSize: 0x25C }
  - { offsetInCU: 0x2EF44, offset: 0x38F13, size: 0x8, addend: 0x0, symName: __ZNSt3__114__split_bufferIPiNS_9allocatorIS1_EEE9__end_capB8ue170006Ev, symObjAddr: 0x12618, symBinAddr: 0x10001687C, symSize: 0x28 }
  - { offsetInCU: 0x2EF68, offset: 0x38F37, size: 0x8, addend: 0x0, symName: __ZNSt3__114__split_bufferIPiRNS_9allocatorIS1_EEE9__end_capB8ue170006Ev, symObjAddr: 0x12640, symBinAddr: 0x1000168A4, symSize: 0x28 }
  - { offsetInCU: 0x2EF8C, offset: 0x38F5B, size: 0x8, addend: 0x0, symName: __ZNSt3__110unique_ptrIPiNS_22__allocator_destructorINS_9allocatorIiEEEEED1B8ue170006Ev, symObjAddr: 0x12668, symBinAddr: 0x1000168CC, symSize: 0x2C }
  - { offsetInCU: 0x2EFB4, offset: 0x38F83, size: 0x8, addend: 0x0, symName: __ZNSt3__114__split_bufferIPiRNS_9allocatorIS1_EEED1Ev, symObjAddr: 0x12694, symBinAddr: 0x1000168F8, symSize: 0x2C }
  - { offsetInCU: 0x2EFDE, offset: 0x38FAD, size: 0x8, addend: 0x0, symName: __ZNSt3__114__split_bufferIPiRNS_9allocatorIS1_EEE18__construct_at_endINS_13move_iteratorIPS1_EEEENS_9enable_ifIXsr31__has_forward_iterator_categoryIT_EE5valueEvE4typeESB_SB_, symObjAddr: 0x12700, symBinAddr: 0x100016964, symSize: 0x60 }
  - { offsetInCU: 0x2F029, offset: 0x38FF8, size: 0x8, addend: 0x0, symName: __ZNSt3__113move_iteratorIPPiEC1B8ue170006ES2_, symObjAddr: 0x12760, symBinAddr: 0x1000169C4, symSize: 0x34 }
  - { offsetInCU: 0x2F05F, offset: 0x3902E, size: 0x8, addend: 0x0, symName: __ZNSt3__116allocator_traitsINS_9allocatorIPiEEE9constructB8ue170006IS2_JRKS2_EvEEvRS3_PT_DpOT0_, symObjAddr: 0x12794, symBinAddr: 0x1000169F8, symSize: 0x34 }
  - { offsetInCU: 0x2F0D8, offset: 0x390A7, size: 0x8, addend: 0x0, symName: __ZNKSt3__114__move_trivialclB8ue170006IPiS2_Li0EEENS_4pairIPT_PT0_EES5_S5_S7_, symObjAddr: 0x12964, symBinAddr: 0x100016BC8, symSize: 0x48 }
  - { offsetInCU: 0x2F143, offset: 0x39112, size: 0x8, addend: 0x0, symName: __ZNSt3__14pairIPPiS2_EC1B8ue170006IRS2_S2_LPv0EEEOT_OT0_, symObjAddr: 0x12B8C, symBinAddr: 0x100016DF0, symSize: 0x3C }
  - { offsetInCU: 0x2F19F, offset: 0x3916E, size: 0x8, addend: 0x0, symName: __ZNSt3__14pairIPPiS2_EC2B8ue170006IRS2_S2_LPv0EEEOT_OT0_, symObjAddr: 0x12BC8, symBinAddr: 0x100016E2C, symSize: 0x34 }
  - { offsetInCU: 0x2F1FB, offset: 0x391CA, size: 0x8, addend: 0x0, symName: __ZNSt3__118__unwrap_iter_implIPPiLb1EE8__unwrapB8ue170006ES2_, symObjAddr: 0x12BFC, symBinAddr: 0x100016E60, symSize: 0x24 }
  - { offsetInCU: 0x2F21D, offset: 0x391EC, size: 0x8, addend: 0x0, symName: __ZNSt3__14pairIPPiS2_EC1B8ue170006IS2_S2_LPv0EEEOT_OT0_, symObjAddr: 0x12C20, symBinAddr: 0x100016E84, symSize: 0x3C }
  - { offsetInCU: 0x2F279, offset: 0x39248, size: 0x8, addend: 0x0, symName: __ZNSt3__14pairIPPiS2_EC2B8ue170006IS2_S2_LPv0EEEOT_OT0_, symObjAddr: 0x12C5C, symBinAddr: 0x100016EC0, symSize: 0x34 }
  - { offsetInCU: 0x2F2D5, offset: 0x392A4, size: 0x8, addend: 0x0, symName: __ZNSt3__118__unwrap_iter_implIPPiLb1EE8__rewrapB8ue170006ES2_S2_, symObjAddr: 0x12C90, symBinAddr: 0x100016EF4, symSize: 0x50 }
  - { offsetInCU: 0x2F305, offset: 0x392D4, size: 0x8, addend: 0x0, symName: __ZNSt3__114__split_bufferIPiRNS_9allocatorIS1_EEE28__construct_at_end_with_sizeINS_13move_iteratorIPS1_EEEEvT_m, symObjAddr: 0x12CE0, symBinAddr: 0x100016F44, symSize: 0xDC }
  - { offsetInCU: 0x2F369, offset: 0x39338, size: 0x8, addend: 0x0, symName: __ZNSt3__114__split_bufferIPiRNS_9allocatorIS1_EEE21_ConstructTransactionC1B8ue170006EPPS1_m, symObjAddr: 0x12DF8, symBinAddr: 0x10001705C, symSize: 0x3C }
  - { offsetInCU: 0x2F3AD, offset: 0x3937C, size: 0x8, addend: 0x0, symName: __ZNSt3__116allocator_traitsINS_9allocatorIPiEEE9constructB8ue170006IS2_JS2_EvEEvRS3_PT_DpOT0_, symObjAddr: 0x12E34, symBinAddr: 0x100017098, symSize: 0x34 }
  - { offsetInCU: 0x2F403, offset: 0x393D2, size: 0x8, addend: 0x0, symName: __ZNSt3__114__split_bufferIPiRNS_9allocatorIS1_EEE7__allocB8ue170006Ev, symObjAddr: 0x12E68, symBinAddr: 0x1000170CC, symSize: 0x28 }
  - { offsetInCU: 0x2F427, offset: 0x393F6, size: 0x8, addend: 0x0, symName: __ZNKSt3__113move_iteratorIPPiEdeB8ue170006Ev, symObjAddr: 0x12E90, symBinAddr: 0x1000170F4, symSize: 0x18 }
  - { offsetInCU: 0x2F44B, offset: 0x3941A, size: 0x8, addend: 0x0, symName: __ZNSt3__113move_iteratorIPPiEppB8ue170006Ev, symObjAddr: 0x12EA8, symBinAddr: 0x10001710C, symSize: 0x20 }
  - { offsetInCU: 0x2F46F, offset: 0x3943E, size: 0x8, addend: 0x0, symName: __ZNSt3__114__split_bufferIPiRNS_9allocatorIS1_EEE21_ConstructTransactionD1B8ue170006Ev, symObjAddr: 0x12EC8, symBinAddr: 0x10001712C, symSize: 0x2C }
  - { offsetInCU: 0x2F497, offset: 0x39466, size: 0x8, addend: 0x0, symName: __ZNSt3__114__split_bufferIPiRNS_9allocatorIS1_EEE21_ConstructTransactionC2B8ue170006EPPS1_m, symObjAddr: 0x12EF4, symBinAddr: 0x100017158, symSize: 0x44 }
  - { offsetInCU: 0x2F4DB, offset: 0x394AA, size: 0x8, addend: 0x0, symName: __ZNSt3__19allocatorIPiE9constructB8ue170006IS1_JS1_EEEvPT_DpOT0_, symObjAddr: 0x12F38, symBinAddr: 0x10001719C, symSize: 0x28 }
  - { offsetInCU: 0x2F52F, offset: 0x394FE, size: 0x8, addend: 0x0, symName: __ZNSt3__117__compressed_pairIPPiRNS_9allocatorIS1_EEE6secondB8ue170006Ev, symObjAddr: 0x12F60, symBinAddr: 0x1000171C4, symSize: 0x28 }
  - { offsetInCU: 0x2F553, offset: 0x39522, size: 0x8, addend: 0x0, symName: __ZNSt3__122__compressed_pair_elemIRNS_9allocatorIPiEELi1ELb0EE5__getB8ue170006Ev, symObjAddr: 0x12F88, symBinAddr: 0x1000171EC, symSize: 0x18 }
  - { offsetInCU: 0x2F577, offset: 0x39546, size: 0x8, addend: 0x0, symName: __ZNSt3__114__split_bufferIPiRNS_9allocatorIS1_EEE21_ConstructTransactionD2B8ue170006Ev, symObjAddr: 0x12FA0, symBinAddr: 0x100017204, symSize: 0x20 }
  - { offsetInCU: 0x2F59F, offset: 0x3956E, size: 0x8, addend: 0x0, symName: __ZNKSt3__113move_iteratorIPPiE4baseB8ue170006Ev, symObjAddr: 0x13038, symBinAddr: 0x10001729C, symSize: 0x18 }
  - { offsetInCU: 0x2F5C3, offset: 0x39592, size: 0x8, addend: 0x0, symName: __ZNSt3__113move_iteratorIPPiEC2B8ue170006ES2_, symObjAddr: 0x13050, symBinAddr: 0x1000172B4, symSize: 0x20 }
  - { offsetInCU: 0x2F5F9, offset: 0x395C8, size: 0x8, addend: 0x0, symName: __ZNSt3__19allocatorIPiE9constructB8ue170006IS1_JRKS1_EEEvPT_DpOT0_, symObjAddr: 0x13070, symBinAddr: 0x1000172D4, symSize: 0x28 }
  - { offsetInCU: 0x2F657, offset: 0x39626, size: 0x8, addend: 0x0, symName: __ZNKSt3__123__move_backward_trivialclB8ue170006IPiS2_Li0EEENS_4pairIPT_PT0_EES5_S5_S7_, symObjAddr: 0x13214, symBinAddr: 0x100017478, symSize: 0x48 }
  - { offsetInCU: 0x2F6BD, offset: 0x3968C, size: 0x8, addend: 0x0, symName: __ZNSt3__14pairIPPiS2_EC1B8ue170006IRS2_S5_LPv0EEEOT_OT0_, symObjAddr: 0x13324, symBinAddr: 0x100017588, symSize: 0x3C }
  - { offsetInCU: 0x2F719, offset: 0x396E8, size: 0x8, addend: 0x0, symName: __ZNSt3__14pairIPPiS2_EC2B8ue170006IRS2_S5_LPv0EEEOT_OT0_, symObjAddr: 0x13360, symBinAddr: 0x1000175C4, symSize: 0x34 }
  - { offsetInCU: 0x2F775, offset: 0x39744, size: 0x8, addend: 0x0, symName: __ZNSt3__114__split_bufferIPiRNS_9allocatorIS1_EEEC2EmmS4_, symObjAddr: 0x13394, symBinAddr: 0x1000175F8, symSize: 0xD4 }
  - { offsetInCU: 0x2F7E6, offset: 0x397B5, size: 0x8, addend: 0x0, symName: __ZNSt3__117__compressed_pairIPPiRNS_9allocatorIS1_EEEC1B8ue170006IDnS5_EEOT_OT0_, symObjAddr: 0x13468, symBinAddr: 0x1000176CC, symSize: 0x3C }
  - { offsetInCU: 0x2F83C, offset: 0x3980B, size: 0x8, addend: 0x0, symName: __ZNSt3__117__compressed_pairIPPiRNS_9allocatorIS1_EEEC2B8ue170006IDnS5_EEOT_OT0_, symObjAddr: 0x134E4, symBinAddr: 0x100017748, symSize: 0x48 }
  - { offsetInCU: 0x2F892, offset: 0x39861, size: 0x8, addend: 0x0, symName: __ZNSt3__122__compressed_pair_elemIRNS_9allocatorIPiEELi1ELb0EEC2B8ue170006IS4_vEEOT_, symObjAddr: 0x1352C, symBinAddr: 0x100017790, symSize: 0x20 }
  - { offsetInCU: 0x2F8D2, offset: 0x398A1, size: 0x8, addend: 0x0, symName: __ZNSt3__19allocatorIPiE8allocateB8ue170006Em, symObjAddr: 0x1354C, symBinAddr: 0x1000177B0, symSize: 0x58 }
  - { offsetInCU: 0x2F90E, offset: 0x398DD, size: 0x8, addend: 0x0, symName: __ZNSt3__116allocator_traitsINS_9allocatorIPiEEE8max_sizeB8ue170006IS3_vEEmRKS3_, symObjAddr: 0x135A4, symBinAddr: 0x100017808, symSize: 0x24 }
  - { offsetInCU: 0x2F93B, offset: 0x3990A, size: 0x8, addend: 0x0, symName: __ZNKSt3__19allocatorIPiE8max_sizeB8ue170006Ev, symObjAddr: 0x135C8, symBinAddr: 0x10001782C, symSize: 0x14 }
  - { offsetInCU: 0x2F95F, offset: 0x3992E, size: 0x8, addend: 0x0, symName: __ZNSt3__122__allocator_destructorINS_9allocatorIiEEEC2B8ue170006ERS2_m, symObjAddr: 0x135DC, symBinAddr: 0x100017840, symSize: 0x2C }
  - { offsetInCU: 0x2F9A3, offset: 0x39972, size: 0x8, addend: 0x0, symName: __ZNSt3__110unique_ptrIPiNS_22__allocator_destructorINS_9allocatorIiEEEEEC2B8ue170006ILb1EvEES1_NS_16__dependent_typeINS_27__unique_ptr_deleter_sfinaeIS5_EEXT_EE20__good_rval_ref_typeE, symObjAddr: 0x13608, symBinAddr: 0x10001786C, symSize: 0x48 }
  - { offsetInCU: 0x2F9F2, offset: 0x399C1, size: 0x8, addend: 0x0, symName: __ZNSt3__117__compressed_pairIPiNS_22__allocator_destructorINS_9allocatorIiEEEEEC1B8ue170006IRS1_S5_EEOT_OT0_, symObjAddr: 0x13650, symBinAddr: 0x1000178B4, symSize: 0x3C }
  - { offsetInCU: 0x2FA48, offset: 0x39A17, size: 0x8, addend: 0x0, symName: __ZNSt3__117__compressed_pairIPiNS_22__allocator_destructorINS_9allocatorIiEEEEEC2B8ue170006IRS1_S5_EEOT_OT0_, symObjAddr: 0x1368C, symBinAddr: 0x1000178F0, symSize: 0x48 }
  - { offsetInCU: 0x2FA9E, offset: 0x39A6D, size: 0x8, addend: 0x0, symName: __ZNSt3__122__compressed_pair_elemIPiLi0ELb0EEC2B8ue170006IRS1_vEEOT_, symObjAddr: 0x136D4, symBinAddr: 0x100017938, symSize: 0x24 }
  - { offsetInCU: 0x2FADE, offset: 0x39AAD, size: 0x8, addend: 0x0, symName: __ZNSt3__122__compressed_pair_elemINS_22__allocator_destructorINS_9allocatorIiEEEELi1ELb0EEC2B8ue170006IS4_vEEOT_, symObjAddr: 0x136F8, symBinAddr: 0x10001795C, symSize: 0x24 }
  - { offsetInCU: 0x2FB1E, offset: 0x39AED, size: 0x8, addend: 0x0, symName: __ZNKSt3__117__compressed_pairIPiNS_22__allocator_destructorINS_9allocatorIiEEEEE5firstB8ue170006Ev, symObjAddr: 0x1371C, symBinAddr: 0x100017980, symSize: 0x24 }
  - { offsetInCU: 0x2FB42, offset: 0x39B11, size: 0x8, addend: 0x0, symName: __ZNSt3__117__compressed_pairIPiNS_22__allocator_destructorINS_9allocatorIiEEEEE5firstB8ue170006Ev, symObjAddr: 0x13740, symBinAddr: 0x1000179A4, symSize: 0x24 }
  - { offsetInCU: 0x2FB66, offset: 0x39B35, size: 0x8, addend: 0x0, symName: __ZNSt3__117__compressed_pairIPPiNS_9allocatorIS1_EEE5firstB8ue170006Ev, symObjAddr: 0x13764, symBinAddr: 0x1000179C8, symSize: 0x24 }
  - { offsetInCU: 0x2FB8A, offset: 0x39B59, size: 0x8, addend: 0x0, symName: __ZNSt3__122__compressed_pair_elemIPPiLi0ELb0EE5__getB8ue170006Ev, symObjAddr: 0x13788, symBinAddr: 0x1000179EC, symSize: 0x14 }
  - { offsetInCU: 0x2FBAE, offset: 0x39B7D, size: 0x8, addend: 0x0, symName: __ZNSt3__117__compressed_pairIPPiRNS_9allocatorIS1_EEE5firstB8ue170006Ev, symObjAddr: 0x1379C, symBinAddr: 0x100017A00, symSize: 0x24 }
  - { offsetInCU: 0x2FBD2, offset: 0x39BA1, size: 0x8, addend: 0x0, symName: __ZNSt3__110unique_ptrIPiNS_22__allocator_destructorINS_9allocatorIiEEEEED2B8ue170006Ev, symObjAddr: 0x137C0, symBinAddr: 0x100017A24, symSize: 0x30 }
  - { offsetInCU: 0x2FBFA, offset: 0x39BC9, size: 0x8, addend: 0x0, symName: __ZNSt3__110unique_ptrIPiNS_22__allocator_destructorINS_9allocatorIiEEEEE5resetB8ue170006ES1_, symObjAddr: 0x137F0, symBinAddr: 0x100017A54, symSize: 0x78 }
  - { offsetInCU: 0x2FC3C, offset: 0x39C0B, size: 0x8, addend: 0x0, symName: __ZNSt3__117__compressed_pairIPiNS_22__allocator_destructorINS_9allocatorIiEEEEE6secondB8ue170006Ev, symObjAddr: 0x13868, symBinAddr: 0x100017ACC, symSize: 0x28 }
  - { offsetInCU: 0x2FC60, offset: 0x39C2F, size: 0x8, addend: 0x0, symName: __ZNSt3__122__allocator_destructorINS_9allocatorIiEEEclB8ue170006EPi, symObjAddr: 0x13890, symBinAddr: 0x100017AF4, symSize: 0x34 }
  - { offsetInCU: 0x2FC92, offset: 0x39C61, size: 0x8, addend: 0x0, symName: __ZNSt3__122__compressed_pair_elemINS_22__allocator_destructorINS_9allocatorIiEEEELi1ELb0EE5__getB8ue170006Ev, symObjAddr: 0x138C4, symBinAddr: 0x100017B28, symSize: 0x14 }
  - { offsetInCU: 0x2FCB6, offset: 0x39C85, size: 0x8, addend: 0x0, symName: __ZNSt3__114__split_bufferIPiRNS_9allocatorIS1_EEED2Ev, symObjAddr: 0x138D8, symBinAddr: 0x100017B3C, symSize: 0x8C }
  - { offsetInCU: 0x2FCE0, offset: 0x39CAF, size: 0x8, addend: 0x0, symName: __ZNSt3__114__split_bufferIPiRNS_9allocatorIS1_EEE5clearB8ue170006Ev, symObjAddr: 0x13964, symBinAddr: 0x100017BC8, symSize: 0x28 }
  - { offsetInCU: 0x2FD04, offset: 0x39CD3, size: 0x8, addend: 0x0, symName: __ZNKSt3__114__split_bufferIPiRNS_9allocatorIS1_EEE8capacityB8ue170006Ev, symObjAddr: 0x1398C, symBinAddr: 0x100017BF0, symSize: 0x40 }
  - { offsetInCU: 0x2FD28, offset: 0x39CF7, size: 0x8, addend: 0x0, symName: __ZNSt3__114__split_bufferIPiRNS_9allocatorIS1_EEE17__destruct_at_endB8ue170006EPS1_, symObjAddr: 0x139CC, symBinAddr: 0x100017C30, symSize: 0x2C }
  - { offsetInCU: 0x2FD5A, offset: 0x39D29, size: 0x8, addend: 0x0, symName: __ZNSt3__114__split_bufferIPiRNS_9allocatorIS1_EEE17__destruct_at_endB8ue170006EPS1_NS_17integral_constantIbLb0EEE, symObjAddr: 0x139F8, symBinAddr: 0x100017C5C, symSize: 0x80 }
  - { offsetInCU: 0x2FD98, offset: 0x39D67, size: 0x8, addend: 0x0, symName: __ZNKSt3__114__split_bufferIPiRNS_9allocatorIS1_EEE9__end_capB8ue170006Ev, symObjAddr: 0x13A78, symBinAddr: 0x100017CDC, symSize: 0x28 }
  - { offsetInCU: 0x2FDBC, offset: 0x39D8B, size: 0x8, addend: 0x0, symName: __ZNKSt3__117__compressed_pairIPPiRNS_9allocatorIS1_EEE5firstB8ue170006Ev, symObjAddr: 0x13AA0, symBinAddr: 0x100017D04, symSize: 0x24 }
  - { offsetInCU: 0x2FDE0, offset: 0x39DAF, size: 0x8, addend: 0x0, symName: __ZNSt3__19allocatorIiE9constructB8ue170006IiJRKiEEEvPT_DpOT0_, symObjAddr: 0x13AC4, symBinAddr: 0x100017D28, symSize: 0x28 }
  - { offsetInCU: 0x2FE34, offset: 0x39E03, size: 0x8, addend: 0x0, symName: __ZNKSt3__19basic_iosIcNS_11char_traitsIcEEE5widenB8ue170006Ec, symObjAddr: 0x13AEC, symBinAddr: 0x100017D50, symSize: 0x84 }
  - { offsetInCU: 0x2FE9B, offset: 0x39E6A, size: 0x8, addend: 0x0, symName: __ZNKSt3__15ctypeIcE5widenB8ue170006Ec, symObjAddr: 0x13B9C, symBinAddr: 0x100017E00, symSize: 0x38 }
  - { offsetInCU: 0x2FECE, offset: 0x39E9D, size: 0x8, addend: 0x0, symName: __ZNSt3__16vectorINS0_IiNS_9allocatorIiEEEENS1_IS3_EEE11__make_iterB8ue170006EPS3_, symObjAddr: 0x13BD4, symBinAddr: 0x100017E38, symSize: 0x30 }
  - { offsetInCU: 0x2FF01, offset: 0x39ED0, size: 0x8, addend: 0x0, symName: __ZNSt3__111__wrap_iterIPNS_6vectorIiNS_9allocatorIiEEEEEC1B8ue170006ES5_, symObjAddr: 0x13C04, symBinAddr: 0x100017E68, symSize: 0x34 }
  - { offsetInCU: 0x2FF37, offset: 0x39F06, size: 0x8, addend: 0x0, symName: __ZNSt3__111__wrap_iterIPNS_6vectorIiNS_9allocatorIiEEEEEC2B8ue170006ES5_, symObjAddr: 0x13C38, symBinAddr: 0x100017E9C, symSize: 0x20 }
  - { offsetInCU: 0x2FF6D, offset: 0x39F3C, size: 0x8, addend: 0x0, symName: __ZNSt3__111char_traitsIwE6lengthB8ue170006EPKw, symObjAddr: 0x13E40, symBinAddr: 0x1000180A4, symSize: 0x34 }
  - { offsetInCU: 0x2FFAE, offset: 0x39F7D, size: 0x8, addend: 0x0, symName: __ZNKSt3__113basic_ostreamIwNS_11char_traitsIwEEE6sentrycvbB8ue170006Ev, symObjAddr: 0x13E74, symBinAddr: 0x1000180D8, symSize: 0x1C }
  - { offsetInCU: 0x2FFD2, offset: 0x39FA1, size: 0x8, addend: 0x0, symName: __ZNSt3__119ostreambuf_iteratorIwNS_11char_traitsIwEEEC1B8ue170006ERNS_13basic_ostreamIwS2_EE, symObjAddr: 0x140E8, symBinAddr: 0x10001834C, symSize: 0x34 }
  - { offsetInCU: 0x30008, offset: 0x39FD7, size: 0x8, addend: 0x0, symName: __ZNKSt3__18ios_base5flagsB8ue170006Ev, symObjAddr: 0x1411C, symBinAddr: 0x100018380, symSize: 0x18 }
  - { offsetInCU: 0x3002F, offset: 0x39FFE, size: 0x8, addend: 0x0, symName: __ZNKSt3__19basic_iosIwNS_11char_traitsIwEEE4fillB8ue170006Ev, symObjAddr: 0x14134, symBinAddr: 0x100018398, symSize: 0x5C }
  - { offsetInCU: 0x30055, offset: 0x3A024, size: 0x8, addend: 0x0, symName: __ZNKSt3__119ostreambuf_iteratorIwNS_11char_traitsIwEEE6failedB8ue170006Ev, symObjAddr: 0x14190, symBinAddr: 0x1000183F4, symSize: 0x24 }
  - { offsetInCU: 0x30079, offset: 0x3A048, size: 0x8, addend: 0x0, symName: __ZNSt3__19basic_iosIwNS_11char_traitsIwEEE8setstateB8ue170006Ej, symObjAddr: 0x141B4, symBinAddr: 0x100018418, symSize: 0x2C }
  - { offsetInCU: 0x300AC, offset: 0x3A07B, size: 0x8, addend: 0x0, symName: __ZNKSt3__18ios_base5widthB8ue170006Ev, symObjAddr: 0x141E0, symBinAddr: 0x100018444, symSize: 0x18 }
  - { offsetInCU: 0x300D3, offset: 0x3A0A2, size: 0x8, addend: 0x0, symName: __ZNSt3__115basic_streambufIwNS_11char_traitsIwEEE5sputnB8ue170006EPKwl, symObjAddr: 0x141F8, symBinAddr: 0x10001845C, symSize: 0x3C }
  - { offsetInCU: 0x30225, offset: 0x3A1F4, size: 0x8, addend: 0x0, symName: __ZNSt3__112basic_stringIwNS_11char_traitsIwEENS_9allocatorIwEEEC1B8ue170006Emw, symObjAddr: 0x14234, symBinAddr: 0x100018498, symSize: 0x3C }
  - { offsetInCU: 0x3026B, offset: 0x3A23A, size: 0x8, addend: 0x0, symName: __ZNKSt3__112basic_stringIwNS_11char_traitsIwEENS_9allocatorIwEEE4dataB8ue170006Ev, symObjAddr: 0x14270, symBinAddr: 0x1000184D4, symSize: 0x28 }
  - { offsetInCU: 0x3028F, offset: 0x3A25E, size: 0x8, addend: 0x0, symName: __ZNSt3__18ios_base5widthB8ue170006El, symObjAddr: 0x14298, symBinAddr: 0x1000184FC, symSize: 0x2C }
  - { offsetInCU: 0x302D4, offset: 0x3A2A3, size: 0x8, addend: 0x0, symName: __ZNSt3__112basic_stringIwNS_11char_traitsIwEENS_9allocatorIwEEEC2B8ue170006Emw, symObjAddr: 0x142C4, symBinAddr: 0x100018528, symSize: 0x4C }
  - { offsetInCU: 0x3031A, offset: 0x3A2E9, size: 0x8, addend: 0x0, symName: __ZNSt3__117__compressed_pairINS_12basic_stringIwNS_11char_traitsIwEENS_9allocatorIwEEE5__repES5_EC1B8ue170006INS_18__default_init_tagESA_EEOT_OT0_, symObjAddr: 0x14310, symBinAddr: 0x100018574, symSize: 0x3C }
  - { offsetInCU: 0x30370, offset: 0x3A33F, size: 0x8, addend: 0x0, symName: __ZNSt3__117__compressed_pairINS_12basic_stringIwNS_11char_traitsIwEENS_9allocatorIwEEE5__repES5_EC2B8ue170006INS_18__default_init_tagESA_EEOT_OT0_, symObjAddr: 0x1434C, symBinAddr: 0x1000185B0, symSize: 0x3C }
  - { offsetInCU: 0x303C6, offset: 0x3A395, size: 0x8, addend: 0x0, symName: __ZNSt3__122__compressed_pair_elemINS_12basic_stringIwNS_11char_traitsIwEENS_9allocatorIwEEE5__repELi0ELb0EEC2B8ue170006ENS_18__default_init_tagE, symObjAddr: 0x14388, symBinAddr: 0x1000185EC, symSize: 0x14 }
  - { offsetInCU: 0x303F8, offset: 0x3A3C7, size: 0x8, addend: 0x0, symName: __ZNSt3__122__compressed_pair_elemINS_9allocatorIwEELi1ELb1EEC2B8ue170006ENS_18__default_init_tagE, symObjAddr: 0x1439C, symBinAddr: 0x100018600, symSize: 0x2C }
  - { offsetInCU: 0x3042A, offset: 0x3A3F9, size: 0x8, addend: 0x0, symName: __ZNSt3__19allocatorIwEC2B8ue170006Ev, symObjAddr: 0x143C8, symBinAddr: 0x10001862C, symSize: 0x2C }
  - { offsetInCU: 0x30452, offset: 0x3A421, size: 0x8, addend: 0x0, symName: __ZNSt3__116__non_trivial_ifILb1ENS_9allocatorIwEEEC2B8ue170006Ev, symObjAddr: 0x143F4, symBinAddr: 0x100018658, symSize: 0x14 }
  - { offsetInCU: 0x3047A, offset: 0x3A449, size: 0x8, addend: 0x0, symName: __ZNKSt3__112basic_stringIwNS_11char_traitsIwEENS_9allocatorIwEEE13__get_pointerB8ue170006Ev, symObjAddr: 0x1441C, symBinAddr: 0x100018680, symSize: 0x54 }
  - { offsetInCU: 0x3049E, offset: 0x3A46D, size: 0x8, addend: 0x0, symName: __ZNKSt3__112basic_stringIwNS_11char_traitsIwEENS_9allocatorIwEEE9__is_longB8ue170006Ev, symObjAddr: 0x14470, symBinAddr: 0x1000186D4, symSize: 0x38 }
  - { offsetInCU: 0x304C2, offset: 0x3A491, size: 0x8, addend: 0x0, symName: __ZNKSt3__112basic_stringIwNS_11char_traitsIwEENS_9allocatorIwEEE18__get_long_pointerB8ue170006Ev, symObjAddr: 0x144A8, symBinAddr: 0x10001870C, symSize: 0x28 }
  - { offsetInCU: 0x304E6, offset: 0x3A4B5, size: 0x8, addend: 0x0, symName: __ZNKSt3__112basic_stringIwNS_11char_traitsIwEENS_9allocatorIwEEE19__get_short_pointerB8ue170006Ev, symObjAddr: 0x144D0, symBinAddr: 0x100018734, symSize: 0x28 }
  - { offsetInCU: 0x3050A, offset: 0x3A4D9, size: 0x8, addend: 0x0, symName: __ZNKSt3__117__compressed_pairINS_12basic_stringIwNS_11char_traitsIwEENS_9allocatorIwEEE5__repES5_E5firstB8ue170006Ev, symObjAddr: 0x144F8, symBinAddr: 0x10001875C, symSize: 0x24 }
  - { offsetInCU: 0x3052E, offset: 0x3A4FD, size: 0x8, addend: 0x0, symName: __ZNKSt3__122__compressed_pair_elemINS_12basic_stringIwNS_11char_traitsIwEENS_9allocatorIwEEE5__repELi0ELb0EE5__getB8ue170006Ev, symObjAddr: 0x1451C, symBinAddr: 0x100018780, symSize: 0x14 }
  - { offsetInCU: 0x30552, offset: 0x3A521, size: 0x8, addend: 0x0, symName: __ZNSt3__114pointer_traitsIPKwE10pointer_toB8ue170006ERS1_, symObjAddr: 0x14530, symBinAddr: 0x100018794, symSize: 0x14 }
  - { offsetInCU: 0x30574, offset: 0x3A543, size: 0x8, addend: 0x0, symName: __ZNSt3__119ostreambuf_iteratorIwNS_11char_traitsIwEEEC2B8ue170006ERNS_13basic_ostreamIwS2_EE, symObjAddr: 0x14544, symBinAddr: 0x1000187A8, symSize: 0x54 }
  - { offsetInCU: 0x305AA, offset: 0x3A579, size: 0x8, addend: 0x0, symName: __ZNKSt3__19basic_iosIwNS_11char_traitsIwEEE5rdbufB8ue170006Ev, symObjAddr: 0x14598, symBinAddr: 0x1000187FC, symSize: 0x24 }
  - { offsetInCU: 0x305D0, offset: 0x3A59F, size: 0x8, addend: 0x0, symName: __ZNKSt3__18ios_base5rdbufB8ue170006Ev, symObjAddr: 0x145BC, symBinAddr: 0x100018820, symSize: 0x18 }
  - { offsetInCU: 0x305F4, offset: 0x3A5C3, size: 0x8, addend: 0x0, symName: __ZNSt3__111char_traitsIwE11eq_int_typeB8ue170006Eii, symObjAddr: 0x145D4, symBinAddr: 0x100018838, symSize: 0x28 }
  - { offsetInCU: 0x30626, offset: 0x3A5F5, size: 0x8, addend: 0x0, symName: __ZNSt3__111char_traitsIwE3eofB8ue170006Ev, symObjAddr: 0x145FC, symBinAddr: 0x100018860, symSize: 0x8 }
  - { offsetInCU: 0x3063A, offset: 0x3A609, size: 0x8, addend: 0x0, symName: __ZNKSt3__19basic_iosIwNS_11char_traitsIwEEE5widenB8ue170006Ec, symObjAddr: 0x14604, symBinAddr: 0x100018868, symSize: 0x80 }
  - { offsetInCU: 0x3068D, offset: 0x3A65C, size: 0x8, addend: 0x0, symName: __ZNKSt3__15ctypeIwE5widenB8ue170006Ec, symObjAddr: 0x146B0, symBinAddr: 0x100018914, symSize: 0x34 }
  - { offsetInCU: 0x306C0, offset: 0x3A68F, size: 0x8, addend: 0x0, symName: __ZNSt3__18ios_base8setstateB8ue170006Ej, symObjAddr: 0x146E4, symBinAddr: 0x100018948, symSize: 0x34 }
  - { offsetInCU: 0x306F5, offset: 0x3A6C4, size: 0x8, addend: 0x0, symName: __ZNSt3__16__treeINS_12__value_typeIiN5boost7variantIiJfbEEEEENS_19__map_value_compareIiS5_NS_4lessIiEELb1EEENS_9allocatorIS5_EEE5beginB8ue170006Ev, symObjAddr: 0x1473C, symBinAddr: 0x1000189A0, symSize: 0x34 }
  - { offsetInCU: 0x30719, offset: 0x3A6E8, size: 0x8, addend: 0x0, symName: __ZNSt3__114__map_iteratorINS_15__tree_iteratorINS_12__value_typeIiN5boost7variantIiJfbEEEEEPNS_11__tree_nodeIS6_PvEElEEEC1B8ue170006ESB_, symObjAddr: 0x14770, symBinAddr: 0x1000189D4, symSize: 0x34 }
  - { offsetInCU: 0x30750, offset: 0x3A71F, size: 0x8, addend: 0x0, symName: __ZNSt3__115__tree_iteratorINS_12__value_typeIiN5boost7variantIiJfbEEEEEPNS_11__tree_nodeIS5_PvEElEC1B8ue170006EPNS_15__tree_end_nodeIPNS_16__tree_node_baseIS7_EEEE, symObjAddr: 0x147A4, symBinAddr: 0x100018A08, symSize: 0x34 }
  - { offsetInCU: 0x30787, offset: 0x3A756, size: 0x8, addend: 0x0, symName: __ZNSt3__115__tree_iteratorINS_12__value_typeIiN5boost7variantIiJfbEEEEEPNS_11__tree_nodeIS5_PvEElEC2B8ue170006EPNS_15__tree_end_nodeIPNS_16__tree_node_baseIS7_EEEE, symObjAddr: 0x147D8, symBinAddr: 0x100018A3C, symSize: 0x20 }
  - { offsetInCU: 0x307BE, offset: 0x3A78D, size: 0x8, addend: 0x0, symName: __ZNSt3__114__map_iteratorINS_15__tree_iteratorINS_12__value_typeIiN5boost7variantIiJfbEEEEEPNS_11__tree_nodeIS6_PvEElEEEC2B8ue170006ESB_, symObjAddr: 0x147F8, symBinAddr: 0x100018A5C, symSize: 0x20 }
  - { offsetInCU: 0x307F5, offset: 0x3A7C4, size: 0x8, addend: 0x0, symName: __ZNSt3__16__treeINS_12__value_typeIiN5boost7variantIiJfbEEEEENS_19__map_value_compareIiS5_NS_4lessIiEELb1EEENS_9allocatorIS5_EEE3endB8ue170006Ev, symObjAddr: 0x14818, symBinAddr: 0x100018A7C, symSize: 0x34 }
  - { offsetInCU: 0x30819, offset: 0x3A7E8, size: 0x8, addend: 0x0, symName: __ZNSt3__115__tree_iteratorINS_12__value_typeIiN5boost7variantIiJfbEEEEEPNS_11__tree_nodeIS5_PvEElEppB8ue170006Ev, symObjAddr: 0x148B0, symBinAddr: 0x100018B14, symSize: 0x38 }
  - { offsetInCU: 0x3083D, offset: 0x3A80C, size: 0x8, addend: 0x0, symName: __ZNKSt3__115__tree_iteratorINS_12__value_typeIiN5boost7variantIiJfbEEEEEPNS_11__tree_nodeIS5_PvEElEptB8ue170006Ev, symObjAddr: 0x149FC, symBinAddr: 0x100018C1C, symSize: 0x2C }
  - { offsetInCU: 0x30861, offset: 0x3A830, size: 0x8, addend: 0x0, symName: __ZNSt3__114pointer_traitsIPNS_12__value_typeIiN5boost7variantIiJfbEEEEEE10pointer_toB8ue170006ERS5_, symObjAddr: 0x14A28, symBinAddr: 0x100018C48, symSize: 0x14 }
  - { offsetInCU: 0x30883, offset: 0x3A852, size: 0x8, addend: 0x0, symName: __ZNKSt3__115__tree_iteratorINS_12__value_typeIiN5boost7variantIiJfbEEEEEPNS_11__tree_nodeIS5_PvEElE8__get_npB8ue170006Ev, symObjAddr: 0x14A3C, symBinAddr: 0x100018C5C, symSize: 0x18 }
  - { offsetInCU: 0x308A7, offset: 0x3A876, size: 0x8, addend: 0x0, symName: __ZNSt3__110__get_pairILm0EE3getB8ue170006IKiN5boost7variantIiJfbEEEEERKT_RKNS_4pairIS7_T0_EE, symObjAddr: 0x14A54, symBinAddr: 0x100018C74, symSize: 0x14 }
  - { offsetInCU: 0x308DC, offset: 0x3A8AB, size: 0x8, addend: 0x0, symName: __ZNSt3__110__get_pairILm1EE3getB8ue170006IKiN5boost7variantIiJfbEEEEERKT0_RKNS_4pairIT_S7_EE, symObjAddr: 0x14A68, symBinAddr: 0x100018C88, symSize: 0x18 }
  - { offsetInCU: 0x30911, offset: 0x3A8E0, size: 0x8, addend: 0x0, symName: __ZNSt3__111char_traitsIcE6lengthB8ue170006EPKc, symObjAddr: 0x14C60, symBinAddr: 0x100018E80, symSize: 0x34 }
  - { offsetInCU: 0x30951, offset: 0x3A920, size: 0x8, addend: 0x0, symName: __ZNKSt3__113basic_ostreamIcNS_11char_traitsIcEEE6sentrycvbB8ue170006Ev, symObjAddr: 0x14C94, symBinAddr: 0x100018EB4, symSize: 0x1C }
  - { offsetInCU: 0x30975, offset: 0x3A944, size: 0x8, addend: 0x0, symName: __ZNSt3__119ostreambuf_iteratorIcNS_11char_traitsIcEEEC1B8ue170006ERNS_13basic_ostreamIcS2_EE, symObjAddr: 0x14EF0, symBinAddr: 0x100019110, symSize: 0x34 }
  - { offsetInCU: 0x309AB, offset: 0x3A97A, size: 0x8, addend: 0x0, symName: __ZNKSt3__19basic_iosIcNS_11char_traitsIcEEE4fillB8ue170006Ev, symObjAddr: 0x14F24, symBinAddr: 0x100019144, symSize: 0x64 }
  - { offsetInCU: 0x309D1, offset: 0x3A9A0, size: 0x8, addend: 0x0, symName: __ZNKSt3__119ostreambuf_iteratorIcNS_11char_traitsIcEEE6failedB8ue170006Ev, symObjAddr: 0x14F88, symBinAddr: 0x1000191A8, symSize: 0x24 }
  - { offsetInCU: 0x309F5, offset: 0x3A9C4, size: 0x8, addend: 0x0, symName: __ZNSt3__19basic_iosIcNS_11char_traitsIcEEE8setstateB8ue170006Ej, symObjAddr: 0x14FAC, symBinAddr: 0x1000191CC, symSize: 0x2C }
  - { offsetInCU: 0x30A28, offset: 0x3A9F7, size: 0x8, addend: 0x0, symName: __ZNSt3__115basic_streambufIcNS_11char_traitsIcEEE5sputnB8ue170006EPKcl, symObjAddr: 0x14FD8, symBinAddr: 0x1000191F8, symSize: 0x3C }
  - { offsetInCU: 0x30A68, offset: 0x3AA37, size: 0x8, addend: 0x0, symName: __ZNSt3__112basic_stringIcNS_11char_traitsIcEENS_9allocatorIcEEEC1B8ue170006Emc, symObjAddr: 0x15014, symBinAddr: 0x100019234, symSize: 0x3C }
  - { offsetInCU: 0x30AAE, offset: 0x3AA7D, size: 0x8, addend: 0x0, symName: __ZNKSt3__112basic_stringIcNS_11char_traitsIcEENS_9allocatorIcEEE4dataB8ue170006Ev, symObjAddr: 0x15050, symBinAddr: 0x100019270, symSize: 0x28 }
  - { offsetInCU: 0x30AD2, offset: 0x3AAA1, size: 0x8, addend: 0x0, symName: __ZNSt3__112basic_stringIcNS_11char_traitsIcEENS_9allocatorIcEEEC2B8ue170006Emc, symObjAddr: 0x15078, symBinAddr: 0x100019298, symSize: 0x4C }
  - { offsetInCU: 0x30B18, offset: 0x3AAE7, size: 0x8, addend: 0x0, symName: __ZNKSt3__112basic_stringIcNS_11char_traitsIcEENS_9allocatorIcEEE13__get_pointerB8ue170006Ev, symObjAddr: 0x151D0, symBinAddr: 0x1000192F8, symSize: 0x54 }
  - { offsetInCU: 0x30B3C, offset: 0x3AB0B, size: 0x8, addend: 0x0, symName: __ZNKSt3__112basic_stringIcNS_11char_traitsIcEENS_9allocatorIcEEE9__is_longB8ue170006Ev, symObjAddr: 0x15224, symBinAddr: 0x10001934C, symSize: 0x38 }
  - { offsetInCU: 0x30B60, offset: 0x3AB2F, size: 0x8, addend: 0x0, symName: __ZNKSt3__112basic_stringIcNS_11char_traitsIcEENS_9allocatorIcEEE18__get_long_pointerB8ue170006Ev, symObjAddr: 0x1525C, symBinAddr: 0x100019384, symSize: 0x28 }
  - { offsetInCU: 0x30B84, offset: 0x3AB53, size: 0x8, addend: 0x0, symName: __ZNKSt3__112basic_stringIcNS_11char_traitsIcEENS_9allocatorIcEEE19__get_short_pointerB8ue170006Ev, symObjAddr: 0x15284, symBinAddr: 0x1000193AC, symSize: 0x28 }
  - { offsetInCU: 0x30BA8, offset: 0x3AB77, size: 0x8, addend: 0x0, symName: __ZNKSt3__117__compressed_pairINS_12basic_stringIcNS_11char_traitsIcEENS_9allocatorIcEEE5__repES5_E5firstB8ue170006Ev, symObjAddr: 0x152AC, symBinAddr: 0x1000193D4, symSize: 0x24 }
  - { offsetInCU: 0x30BCC, offset: 0x3AB9B, size: 0x8, addend: 0x0, symName: __ZNKSt3__122__compressed_pair_elemINS_12basic_stringIcNS_11char_traitsIcEENS_9allocatorIcEEE5__repELi0ELb0EE5__getB8ue170006Ev, symObjAddr: 0x152D0, symBinAddr: 0x1000193F8, symSize: 0x14 }
  - { offsetInCU: 0x30BF0, offset: 0x3ABBF, size: 0x8, addend: 0x0, symName: __ZNSt3__114pointer_traitsIPKcE10pointer_toB8ue170006ERS1_, symObjAddr: 0x152E4, symBinAddr: 0x10001940C, symSize: 0x14 }
  - { offsetInCU: 0x30C12, offset: 0x3ABE1, size: 0x8, addend: 0x0, symName: __ZNSt3__119ostreambuf_iteratorIcNS_11char_traitsIcEEEC2B8ue170006ERNS_13basic_ostreamIcS2_EE, symObjAddr: 0x152F8, symBinAddr: 0x100019420, symSize: 0x54 }
  - { offsetInCU: 0x30C48, offset: 0x3AC17, size: 0x8, addend: 0x0, symName: __ZNKSt3__19basic_iosIcNS_11char_traitsIcEEE5rdbufB8ue170006Ev, symObjAddr: 0x1534C, symBinAddr: 0x100019474, symSize: 0x24 }
  - { offsetInCU: 0x30C6E, offset: 0x3AC3D, size: 0x8, addend: 0x0, symName: __ZNSt3__111char_traitsIcE11eq_int_typeB8ue170006Eii, symObjAddr: 0x15370, symBinAddr: 0x100019498, symSize: 0x28 }
  - { offsetInCU: 0x30CA0, offset: 0x3AC6F, size: 0x8, addend: 0x0, symName: __ZNSt3__111char_traitsIcE3eofB8ue170006Ev, symObjAddr: 0x15398, symBinAddr: 0x1000194C0, symSize: 0x8 }
  - { offsetInCU: 0x30D33, offset: 0x3AD02, size: 0x8, addend: 0x0, symName: __ZNKR5boost7variantIiJfbEE13apply_visitorINS_6detail7variant11get_visitorIKiEEEENT_11result_typeERS8_, symObjAddr: 0x15448, symBinAddr: 0x100019570, symSize: 0x3BC }
  - { offsetInCU: 0x30E36, offset: 0x3AE05, size: 0x8, addend: 0x0, symName: __ZN5boost6detail7variant14invoke_visitorINS1_11get_visitorIKiEELb0EEC1ERS5_, symObjAddr: 0x15854, symBinAddr: 0x10001997C, symSize: 0x34 }
  - { offsetInCU: 0x30E6D, offset: 0x3AE3C, size: 0x8, addend: 0x0, symName: __ZN5boost6detail7variant14invoke_visitorINS1_11get_visitorIKiEELb0EEC2ERS5_, symObjAddr: 0x15888, symBinAddr: 0x1000199B0, symSize: 0x20 }
  - { offsetInCU: 0x30EA4, offset: 0x3AE73, size: 0x8, addend: 0x0, symName: __ZNK5boost15aligned_storageILm4ELm4EE7addressEv, symObjAddr: 0x158A8, symBinAddr: 0x1000199D0, symSize: 0x24 }
  - { offsetInCU: 0x30EC8, offset: 0x3AE97, size: 0x8, addend: 0x0, symName: __ZN5boost6detail7variant14invoke_visitorINS1_11get_visitorIKiEELb0EE14internal_visitIRS4_EENS_12disable_if_cIXaaLb0Esr7is_sameIT_SA_EE5valueEPS4_E4typeEOSA_i, symObjAddr: 0x15A20, symBinAddr: 0x100019B48, symSize: 0x34 }
  - { offsetInCU: 0x30F0F, offset: 0x3AEDE, size: 0x8, addend: 0x0, symName: __ZNK5boost6detail7variant11get_visitorIKiEclERS3_, symObjAddr: 0x15A68, symBinAddr: 0x100019B90, symSize: 0x28 }
  - { offsetInCU: 0x30F41, offset: 0x3AF10, size: 0x8, addend: 0x0, symName: __ZN5boost6detail7variant14invoke_visitorINS1_11get_visitorIKiEELb0EE14internal_visitIRKfEENS_12disable_if_cIXaaLb0Esr7is_sameIT_SB_EE5valueEPS4_E4typeEOSB_i, symObjAddr: 0x15AEC, symBinAddr: 0x100019C14, symSize: 0x34 }
  - { offsetInCU: 0x30F88, offset: 0x3AF57, size: 0x8, addend: 0x0, symName: __ZNK5boost6detail7variant11get_visitorIKiEclIfEEPS3_RKT_, symObjAddr: 0x15B34, symBinAddr: 0x100019C5C, symSize: 0x18 }
  - { offsetInCU: 0x30FBF, offset: 0x3AF8E, size: 0x8, addend: 0x0, symName: __ZN5boost6detail7variant14invoke_visitorINS1_11get_visitorIKiEELb0EE14internal_visitIRKbEENS_12disable_if_cIXaaLb0Esr7is_sameIT_SB_EE5valueEPS4_E4typeEOSB_i, symObjAddr: 0x15B94, symBinAddr: 0x100019CBC, symSize: 0x34 }
  - { offsetInCU: 0x31006, offset: 0x3AFD5, size: 0x8, addend: 0x0, symName: __ZNK5boost6detail7variant11get_visitorIKiEclIbEEPS3_RKT_, symObjAddr: 0x15BDC, symBinAddr: 0x100019D04, symSize: 0x18 }
  - { offsetInCU: 0x310B7, offset: 0x3B086, size: 0x8, addend: 0x0, symName: __ZNKR5boost7variantIiJfbEE13apply_visitorINS_6detail7variant11get_visitorIKfEEEENT_11result_typeERS8_, symObjAddr: 0x15CA4, symBinAddr: 0x100019DCC, symSize: 0x3BC }
  - { offsetInCU: 0x311BA, offset: 0x3B189, size: 0x8, addend: 0x0, symName: __ZN5boost6detail7variant14invoke_visitorINS1_11get_visitorIKfEELb0EEC1ERS5_, symObjAddr: 0x160B0, symBinAddr: 0x10001A1D8, symSize: 0x34 }
  - { offsetInCU: 0x311F1, offset: 0x3B1C0, size: 0x8, addend: 0x0, symName: __ZN5boost6detail7variant14invoke_visitorINS1_11get_visitorIKfEELb0EEC2ERS5_, symObjAddr: 0x160E4, symBinAddr: 0x10001A20C, symSize: 0x20 }
  - { offsetInCU: 0x31228, offset: 0x3B1F7, size: 0x8, addend: 0x0, symName: __ZN5boost6detail7variant14invoke_visitorINS1_11get_visitorIKfEELb0EE14internal_visitIRKiEENS_12disable_if_cIXaaLb0Esr7is_sameIT_SB_EE5valueEPS4_E4typeEOSB_i, symObjAddr: 0x16258, symBinAddr: 0x10001A380, symSize: 0x34 }
  - { offsetInCU: 0x3126F, offset: 0x3B23E, size: 0x8, addend: 0x0, symName: __ZNK5boost6detail7variant11get_visitorIKfEclIiEEPS3_RKT_, symObjAddr: 0x1628C, symBinAddr: 0x10001A3B4, symSize: 0x18 }
  - { offsetInCU: 0x312A6, offset: 0x3B275, size: 0x8, addend: 0x0, symName: __ZN5boost6detail7variant14invoke_visitorINS1_11get_visitorIKfEELb0EE14internal_visitIRS4_EENS_12disable_if_cIXaaLb0Esr7is_sameIT_SA_EE5valueEPS4_E4typeEOSA_i, symObjAddr: 0x162EC, symBinAddr: 0x10001A414, symSize: 0x34 }
  - { offsetInCU: 0x312ED, offset: 0x3B2BC, size: 0x8, addend: 0x0, symName: __ZNK5boost6detail7variant11get_visitorIKfEclERS3_, symObjAddr: 0x16320, symBinAddr: 0x10001A448, symSize: 0x28 }
  - { offsetInCU: 0x3131F, offset: 0x3B2EE, size: 0x8, addend: 0x0, symName: __ZN5boost6detail7variant14invoke_visitorINS1_11get_visitorIKfEELb0EE14internal_visitIRKbEENS_12disable_if_cIXaaLb0Esr7is_sameIT_SB_EE5valueEPS4_E4typeEOSB_i, symObjAddr: 0x163A4, symBinAddr: 0x10001A4CC, symSize: 0x34 }
  - { offsetInCU: 0x31366, offset: 0x3B335, size: 0x8, addend: 0x0, symName: __ZNK5boost6detail7variant11get_visitorIKfEclIbEEPS3_RKT_, symObjAddr: 0x163D8, symBinAddr: 0x10001A500, symSize: 0x18 }
  - { offsetInCU: 0x31417, offset: 0x3B3E6, size: 0x8, addend: 0x0, symName: __ZNKR5boost7variantIiJfbEE13apply_visitorINS_6detail7variant11get_visitorIKbEEEENT_11result_typeERS8_, symObjAddr: 0x164A0, symBinAddr: 0x10001A5C8, symSize: 0x3BC }
  - { offsetInCU: 0x3151A, offset: 0x3B4E9, size: 0x8, addend: 0x0, symName: __ZN5boost6detail7variant14invoke_visitorINS1_11get_visitorIKbEELb0EEC1ERS5_, symObjAddr: 0x168AC, symBinAddr: 0x10001A9D4, symSize: 0x34 }
  - { offsetInCU: 0x31551, offset: 0x3B520, size: 0x8, addend: 0x0, symName: __ZN5boost6detail7variant14invoke_visitorINS1_11get_visitorIKbEELb0EEC2ERS5_, symObjAddr: 0x168E0, symBinAddr: 0x10001AA08, symSize: 0x20 }
  - { offsetInCU: 0x31588, offset: 0x3B557, size: 0x8, addend: 0x0, symName: __ZN5boost6detail7variant14invoke_visitorINS1_11get_visitorIKbEELb0EE14internal_visitIRKiEENS_12disable_if_cIXaaLb0Esr7is_sameIT_SB_EE5valueEPS4_E4typeEOSB_i, symObjAddr: 0x16A54, symBinAddr: 0x10001AB7C, symSize: 0x34 }
  - { offsetInCU: 0x315CF, offset: 0x3B59E, size: 0x8, addend: 0x0, symName: __ZNK5boost6detail7variant11get_visitorIKbEclIiEEPS3_RKT_, symObjAddr: 0x16A88, symBinAddr: 0x10001ABB0, symSize: 0x18 }
  - { offsetInCU: 0x31606, offset: 0x3B5D5, size: 0x8, addend: 0x0, symName: __ZN5boost6detail7variant14invoke_visitorINS1_11get_visitorIKbEELb0EE14internal_visitIRKfEENS_12disable_if_cIXaaLb0Esr7is_sameIT_SB_EE5valueEPS4_E4typeEOSB_i, symObjAddr: 0x16AE8, symBinAddr: 0x10001AC10, symSize: 0x34 }
  - { offsetInCU: 0x3164D, offset: 0x3B61C, size: 0x8, addend: 0x0, symName: __ZNK5boost6detail7variant11get_visitorIKbEclIfEEPS3_RKT_, symObjAddr: 0x16B1C, symBinAddr: 0x10001AC44, symSize: 0x18 }
  - { offsetInCU: 0x31684, offset: 0x3B653, size: 0x8, addend: 0x0, symName: __ZN5boost6detail7variant14invoke_visitorINS1_11get_visitorIKbEELb0EE14internal_visitIRS4_EENS_12disable_if_cIXaaLb0Esr7is_sameIT_SA_EE5valueEPS4_E4typeEOSA_i, symObjAddr: 0x16B7C, symBinAddr: 0x10001ACA4, symSize: 0x34 }
  - { offsetInCU: 0x316CB, offset: 0x3B69A, size: 0x8, addend: 0x0, symName: __ZNK5boost6detail7variant11get_visitorIKbEclERS3_, symObjAddr: 0x16BB0, symBinAddr: 0x10001ACD8, symSize: 0x28 }
  - { offsetInCU: 0x316FD, offset: 0x3B6CC, size: 0x8, addend: 0x0, symName: __ZNSt3__19basic_iosIcNS_11char_traitsIcEEEC2B8ue170006Ev, symObjAddr: 0x16C18, symBinAddr: 0x10001AD40, symSize: 0x44 }
  - { offsetInCU: 0x31725, offset: 0x3B6F4, size: 0x8, addend: 0x0, symName: __ZNSt3__113basic_ostreamIcNS_11char_traitsIcEEEC2B8ue170006EPNS_15basic_streambufIcS2_EE, symObjAddr: 0x16C5C, symBinAddr: 0x10001AD84, symSize: 0x60 }
  - { offsetInCU: 0x31767, offset: 0x3B736, size: 0x8, addend: 0x0, symName: __ZNSt3__113basic_filebufIcNS_11char_traitsIcEEE4openERKNS_12basic_stringIcS2_NS_9allocatorIcEEEEj, symObjAddr: 0x16CBC, symBinAddr: 0x10001ADE4, symSize: 0x44 }
  - { offsetInCU: 0x317A9, offset: 0x3B778, size: 0x8, addend: 0x0, symName: __ZNSt3__18ios_baseC2B8ue170006Ev, symObjAddr: 0x16D00, symBinAddr: 0x10001AE28, symSize: 0x24 }
  - { offsetInCU: 0x317D1, offset: 0x3B7A0, size: 0x8, addend: 0x0, symName: __ZNSt3__19basic_iosIcNS_11char_traitsIcEEE4initB8ue170006EPNS_15basic_streambufIcS2_EE, symObjAddr: 0x16D24, symBinAddr: 0x10001AE4C, symSize: 0x44 }
  - { offsetInCU: 0x31806, offset: 0x3B7D5, size: 0x8, addend: 0x0, symName: __ZNKSt3__112basic_stringIcNS_11char_traitsIcEENS_9allocatorIcEEE5c_strB8ue170006Ev, symObjAddr: 0x16D68, symBinAddr: 0x10001AE90, symSize: 0x24 }
  - { offsetInCU: 0x3182A, offset: 0x3B7F9, size: 0x8, addend: 0x0, symName: __ZNKSt3__19basic_iosIcNS_11char_traitsIcEEE4failB8ue170006Ev, symObjAddr: 0x16D8C, symBinAddr: 0x10001AEB4, symSize: 0x28 }
  - { offsetInCU: 0x3184E, offset: 0x3B81D, size: 0x8, addend: 0x0, symName: __ZNKSt3__18ios_base4failB8ue170006Ev, symObjAddr: 0x16DB4, symBinAddr: 0x10001AEDC, symSize: 0x28 }
  - { offsetInCU: 0x31875, offset: 0x3B844, size: 0x8, addend: 0x0, symName: __ZNKSt3__112basic_stringIcNS_11char_traitsIcEENS_9allocatorIcEEE4sizeB8ue170006Ev, symObjAddr: 0x16DDC, symBinAddr: 0x10001AF04, symSize: 0x54 }
  - { offsetInCU: 0x31899, offset: 0x3B868, size: 0x8, addend: 0x0, symName: __ZNKSt3__112basic_stringIcNS_11char_traitsIcEENS_9allocatorIcEEE15__get_long_sizeB8ue170006Ev, symObjAddr: 0x16E30, symBinAddr: 0x10001AF58, symSize: 0x28 }
  - { offsetInCU: 0x318BD, offset: 0x3B88C, size: 0x8, addend: 0x0, symName: __ZNKSt3__112basic_stringIcNS_11char_traitsIcEENS_9allocatorIcEEE16__get_short_sizeB8ue170006Ev, symObjAddr: 0x16E58, symBinAddr: 0x10001AF80, symSize: 0x34 }
  - { offsetInCU: 0xC178, offset: 0x47ED7, size: 0x8, addend: 0x0, symName: __ZNSt3__1L19piecewise_constructE, symObjAddr: 0xF048, symBinAddr: 0x10002A4D8, symSize: 0x0 }
  - { offsetInCU: 0xC185, offset: 0x47EE4, size: 0x8, addend: 0x0, symName: __ZNSt3__17advanceB8ue170006IPKillvEEvRT_T0_, symObjAddr: 0x92CC, symBinAddr: 0x10001D8AC, symSize: 0x38 }
  - { offsetInCU: 0xCCFD, offset: 0x48A5C, size: 0x8, addend: 0x0, symName: __ZNSt3__18distanceB8ue170006IPKiEENS_15iterator_traitsIT_E15difference_typeES4_S4_, symObjAddr: 0x90D8, symBinAddr: 0x10001D6B8, symSize: 0x2C }
  - { offsetInCU: 0xCD41, offset: 0x48AA0, size: 0x8, addend: 0x0, symName: __ZNSt3__14nextB8ue170006IPKiEENS_9enable_ifIXsr29__has_input_iterator_categoryIT_EE5valueES4_E4typeES4_NS_15iterator_traitsIS4_E15difference_typeE, symObjAddr: 0x9104, symBinAddr: 0x10001D6E4, symSize: 0x34 }
  - { offsetInCU: 0xCD85, offset: 0x48AE4, size: 0x8, addend: 0x0, symName: __ZNSt3__121__convert_to_integralB8ue170006El, symObjAddr: 0x9304, symBinAddr: 0x10001D8E4, symSize: 0x14 }
  - { offsetInCU: 0xCDB1, offset: 0x48B10, size: 0x8, addend: 0x0, symName: __ZNSt3__19__advanceB8ue170006IPKiEEvRT_NS_15iterator_traitsIS3_E15difference_typeENS_26random_access_iterator_tagE, symObjAddr: 0x9318, symBinAddr: 0x10001D8F8, symSize: 0x28 }
  - { offsetInCU: 0xCDFB, offset: 0x48B5A, size: 0x8, addend: 0x0, symName: __ZNSt3__110__distanceB8ue170006IPKiEENS_15iterator_traitsIT_E15difference_typeES4_S4_NS_26random_access_iterator_tagE, symObjAddr: 0x9438, symBinAddr: 0x10001DA18, symSize: 0x28 }
  - { offsetInCU: 0xE557, offset: 0x4A2B6, size: 0x8, addend: 0x0, symName: __ZN5boost6detail7variant22visitation_impl_invokeINS1_14invoke_visitorINS1_15direct_assignerIfEELb0EEEPviNS_7variantIiJfbEE18has_fallback_type_EEENT_11result_typeEiRSB_T0_PT1_T2_i, symObjAddr: 0xC26C, symBinAddr: 0x10001F6BC, symSize: 0x44 }
  - { offsetInCU: 0xE5E6, offset: 0x4A345, size: 0x8, addend: 0x0, symName: __ZN5boost6detail7variant22visitation_impl_invokeINS1_14invoke_visitorINS1_15direct_assignerIfEELb0EEEPvfNS_7variantIiJfbEE18has_fallback_type_EEENT_11result_typeEiRSB_T0_PT1_T2_i, symObjAddr: 0xC2B0, symBinAddr: 0x10001F700, symSize: 0x44 }
  - { offsetInCU: 0xE675, offset: 0x4A3D4, size: 0x8, addend: 0x0, symName: __ZN5boost6detail7variant22visitation_impl_invokeINS1_14invoke_visitorINS1_15direct_assignerIfEELb0EEEPvbNS_7variantIiJfbEE18has_fallback_type_EEENT_11result_typeEiRSB_T0_PT1_T2_i, symObjAddr: 0xC2F4, symBinAddr: 0x10001F744, symSize: 0x44 }
  - { offsetInCU: 0xE704, offset: 0x4A463, size: 0x8, addend: 0x0, symName: __ZN5boost6detail7variant22visitation_impl_invokeINS1_14invoke_visitorINS1_15direct_assignerIfEELb0EEEPvNS_7variantIiJfbEE18has_fallback_type_EEENT_11result_typeEiRSB_T0_PNS1_22apply_visitor_unrolledET1_l, symObjAddr: 0xC338, symBinAddr: 0x10001F788, symSize: 0x24 }
  - { offsetInCU: 0xE77A, offset: 0x4A4D9, size: 0x8, addend: 0x0, symName: __ZN5boost6detail7variant15visitation_implIN4mpl_4int_ILi20EEENS1_20visitation_impl_stepINS_3mpl6l_iterINS7_5l_endEEESA_EENS1_14invoke_visitorINS1_15direct_assignerIfEELb0EEEPvNS_7variantIiJfbEE18has_fallback_type_EEENT1_11result_typeEiiRSK_T2_NS3_5bool_ILb1EEET3_PT_PT0_, symObjAddr: 0xC35C, symBinAddr: 0x10001F7AC, symSize: 0x28 }
  - { offsetInCU: 0xE816, offset: 0x4A575, size: 0x8, addend: 0x0, symName: __ZN5boost6detail7variant27visitation_impl_invoke_implINS1_14invoke_visitorINS1_15direct_assignerIfEELb0EEEPviEENT_11result_typeEiRS8_T0_PT1_N4mpl_5bool_ILb1EEE, symObjAddr: 0xC384, symBinAddr: 0x10001F7D4, symSize: 0x4C }
  - { offsetInCU: 0xE88A, offset: 0x4A5E9, size: 0x8, addend: 0x0, symName: __ZN5boost6detail7variant27visitation_impl_invoke_implINS1_14invoke_visitorINS1_15direct_assignerIfEELb0EEEPvfEENT_11result_typeEiRS8_T0_PT1_N4mpl_5bool_ILb1EEE, symObjAddr: 0xC424, symBinAddr: 0x10001F874, symSize: 0x4C }
  - { offsetInCU: 0xE8FE, offset: 0x4A65D, size: 0x8, addend: 0x0, symName: __ZN5boost6detail7variant27visitation_impl_invoke_implINS1_14invoke_visitorINS1_15direct_assignerIfEELb0EEEPvbEENT_11result_typeEiRS8_T0_PT1_N4mpl_5bool_ILb1EEE, symObjAddr: 0xC4D8, symBinAddr: 0x10001F928, symSize: 0x4C }
  - { offsetInCU: 0xE973, offset: 0x4A6D2, size: 0x8, addend: 0x0, symName: __ZN5boost6detail7variant13forced_returnIbEET_v, symObjAddr: 0xC578, symBinAddr: 0x10001F9C8, symSize: 0x2C }
  - { offsetInCU: 0xEB5F, offset: 0x4A8BE, size: 0x8, addend: 0x0, symName: __ZN5boost6detail7variant22visitation_impl_invokeINS1_12move_storageEPviNS_7variantIiJfbEE18has_fallback_type_EEENT_11result_typeEiRS8_T0_PT1_T2_i, symObjAddr: 0xC724, symBinAddr: 0x10001FB74, symSize: 0x40 }
  - { offsetInCU: 0xEBEE, offset: 0x4A94D, size: 0x8, addend: 0x0, symName: __ZN5boost6detail7variant22visitation_impl_invokeINS1_12move_storageEPvfNS_7variantIiJfbEE18has_fallback_type_EEENT_11result_typeEiRS8_T0_PT1_T2_i, symObjAddr: 0xC764, symBinAddr: 0x10001FBB4, symSize: 0x40 }
  - { offsetInCU: 0xEC7D, offset: 0x4A9DC, size: 0x8, addend: 0x0, symName: __ZN5boost6detail7variant22visitation_impl_invokeINS1_12move_storageEPvbNS_7variantIiJfbEE18has_fallback_type_EEENT_11result_typeEiRS8_T0_PT1_T2_i, symObjAddr: 0xC7A4, symBinAddr: 0x10001FBF4, symSize: 0x40 }
  - { offsetInCU: 0xED0C, offset: 0x4AA6B, size: 0x8, addend: 0x0, symName: __ZN5boost6detail7variant22visitation_impl_invokeINS1_12move_storageEPvNS_7variantIiJfbEE18has_fallback_type_EEENT_11result_typeEiRS8_T0_PNS1_22apply_visitor_unrolledET1_l, symObjAddr: 0xC7E4, symBinAddr: 0x10001FC34, symSize: 0x24 }
  - { offsetInCU: 0xED82, offset: 0x4AAE1, size: 0x8, addend: 0x0, symName: __ZN5boost6detail7variant15visitation_implIN4mpl_4int_ILi20EEENS1_20visitation_impl_stepINS_3mpl6l_iterINS7_5l_endEEESA_EENS1_12move_storageEPvNS_7variantIiJfbEE18has_fallback_type_EEENT1_11result_typeEiiRSH_T2_NS3_5bool_ILb1EEET3_PT_PT0_, symObjAddr: 0xC808, symBinAddr: 0x10001FC58, symSize: 0x28 }
  - { offsetInCU: 0xEE1E, offset: 0x4AB7D, size: 0x8, addend: 0x0, symName: __ZN5boost6detail7variant27visitation_impl_invoke_implINS1_12move_storageEPviEENT_11result_typeEiRS5_T0_PT1_N4mpl_5bool_ILb1EEE, symObjAddr: 0xC830, symBinAddr: 0x10001FC80, symSize: 0x48 }
  - { offsetInCU: 0xEE92, offset: 0x4ABF1, size: 0x8, addend: 0x0, symName: __ZN5boost6detail7variant27visitation_impl_invoke_implINS1_12move_storageEPvfEENT_11result_typeEiRS5_T0_PT1_N4mpl_5bool_ILb1EEE, symObjAddr: 0xC8A4, symBinAddr: 0x10001FCF4, symSize: 0x48 }
  - { offsetInCU: 0xEF06, offset: 0x4AC65, size: 0x8, addend: 0x0, symName: __ZN5boost6detail7variant27visitation_impl_invoke_implINS1_12move_storageEPvbEENT_11result_typeEiRS5_T0_PT1_N4mpl_5bool_ILb1EEE, symObjAddr: 0xC918, symBinAddr: 0x10001FD68, symSize: 0x48 }
  - { offsetInCU: 0xEF7A, offset: 0x4ACD9, size: 0x8, addend: 0x0, symName: __ZN5boost6detail7variant22visitation_impl_invokeINS_7variantIiJfbEE13move_assignerEPviNS4_18has_fallback_type_EEENT_11result_typeEiRS8_T0_PT1_T2_i, symObjAddr: 0xC9F8, symBinAddr: 0x10001FE48, symSize: 0x40 }
  - { offsetInCU: 0xF009, offset: 0x4AD68, size: 0x8, addend: 0x0, symName: __ZN5boost6detail7variant22visitation_impl_invokeINS_7variantIiJfbEE13move_assignerEPvfNS4_18has_fallback_type_EEENT_11result_typeEiRS8_T0_PT1_T2_i, symObjAddr: 0xCA38, symBinAddr: 0x10001FE88, symSize: 0x40 }
  - { offsetInCU: 0xF098, offset: 0x4ADF7, size: 0x8, addend: 0x0, symName: __ZN5boost6detail7variant22visitation_impl_invokeINS_7variantIiJfbEE13move_assignerEPvbNS4_18has_fallback_type_EEENT_11result_typeEiRS8_T0_PT1_T2_i, symObjAddr: 0xCA78, symBinAddr: 0x10001FEC8, symSize: 0x40 }
  - { offsetInCU: 0xF127, offset: 0x4AE86, size: 0x8, addend: 0x0, symName: __ZN5boost6detail7variant22visitation_impl_invokeINS_7variantIiJfbEE13move_assignerEPvNS4_18has_fallback_type_EEENT_11result_typeEiRS8_T0_PNS1_22apply_visitor_unrolledET1_l, symObjAddr: 0xCAB8, symBinAddr: 0x10001FF08, symSize: 0x24 }
  - { offsetInCU: 0xF19D, offset: 0x4AEFC, size: 0x8, addend: 0x0, symName: __ZN5boost6detail7variant15visitation_implIN4mpl_4int_ILi20EEENS1_20visitation_impl_stepINS_3mpl6l_iterINS7_5l_endEEESA_EENS_7variantIiJfbEE13move_assignerEPvNSD_18has_fallback_type_EEENT1_11result_typeEiiRSH_T2_NS3_5bool_ILb1EEET3_PT_PT0_, symObjAddr: 0xCADC, symBinAddr: 0x10001FF2C, symSize: 0x28 }
  - { offsetInCU: 0xF239, offset: 0x4AF98, size: 0x8, addend: 0x0, symName: __ZN5boost6detail7variant27visitation_impl_invoke_implINS_7variantIiJfbEE13move_assignerEPviEENT_11result_typeEiRS7_T0_PT1_N4mpl_5bool_ILb1EEE, symObjAddr: 0xCB04, symBinAddr: 0x10001FF54, symSize: 0x48 }
  - { offsetInCU: 0xF2AD, offset: 0x4B00C, size: 0x8, addend: 0x0, symName: __ZN5boost6detail7variant27visitation_impl_invoke_implINS_7variantIiJfbEE13move_assignerEPvfEENT_11result_typeEiRS7_T0_PT1_N4mpl_5bool_ILb1EEE, symObjAddr: 0xCC00, symBinAddr: 0x100020050, symSize: 0x48 }
  - { offsetInCU: 0xF321, offset: 0x4B080, size: 0x8, addend: 0x0, symName: __ZN5boost6detail7variant27visitation_impl_invoke_implINS_7variantIiJfbEE13move_assignerEPvbEENT_11result_typeEiRS7_T0_PT1_N4mpl_5bool_ILb1EEE, symObjAddr: 0xCCFC, symBinAddr: 0x10002014C, symSize: 0x48 }
  - { offsetInCU: 0xF414, offset: 0x4B173, size: 0x8, addend: 0x0, symName: __ZN5boost6detail7variant22visitation_impl_invokeINS1_14invoke_visitorINS1_15direct_assignerIiEELb0EEEPviNS_7variantIiJfbEE18has_fallback_type_EEENT_11result_typeEiRSB_T0_PT1_T2_i, symObjAddr: 0xD44C, symBinAddr: 0x10002089C, symSize: 0x44 }
  - { offsetInCU: 0xF4A3, offset: 0x4B202, size: 0x8, addend: 0x0, symName: __ZN5boost6detail7variant22visitation_impl_invokeINS1_14invoke_visitorINS1_15direct_assignerIiEELb0EEEPvfNS_7variantIiJfbEE18has_fallback_type_EEENT_11result_typeEiRSB_T0_PT1_T2_i, symObjAddr: 0xD490, symBinAddr: 0x1000208E0, symSize: 0x44 }
  - { offsetInCU: 0xF532, offset: 0x4B291, size: 0x8, addend: 0x0, symName: __ZN5boost6detail7variant22visitation_impl_invokeINS1_14invoke_visitorINS1_15direct_assignerIiEELb0EEEPvbNS_7variantIiJfbEE18has_fallback_type_EEENT_11result_typeEiRSB_T0_PT1_T2_i, symObjAddr: 0xD4D4, symBinAddr: 0x100020924, symSize: 0x44 }
  - { offsetInCU: 0xF5C1, offset: 0x4B320, size: 0x8, addend: 0x0, symName: __ZN5boost6detail7variant22visitation_impl_invokeINS1_14invoke_visitorINS1_15direct_assignerIiEELb0EEEPvNS_7variantIiJfbEE18has_fallback_type_EEENT_11result_typeEiRSB_T0_PNS1_22apply_visitor_unrolledET1_l, symObjAddr: 0xD518, symBinAddr: 0x100020968, symSize: 0x24 }
  - { offsetInCU: 0xF637, offset: 0x4B396, size: 0x8, addend: 0x0, symName: __ZN5boost6detail7variant15visitation_implIN4mpl_4int_ILi20EEENS1_20visitation_impl_stepINS_3mpl6l_iterINS7_5l_endEEESA_EENS1_14invoke_visitorINS1_15direct_assignerIiEELb0EEEPvNS_7variantIiJfbEE18has_fallback_type_EEENT1_11result_typeEiiRSK_T2_NS3_5bool_ILb1EEET3_PT_PT0_, symObjAddr: 0xD53C, symBinAddr: 0x10002098C, symSize: 0x28 }
  - { offsetInCU: 0xF6D3, offset: 0x4B432, size: 0x8, addend: 0x0, symName: __ZN5boost6detail7variant27visitation_impl_invoke_implINS1_14invoke_visitorINS1_15direct_assignerIiEELb0EEEPviEENT_11result_typeEiRS8_T0_PT1_N4mpl_5bool_ILb1EEE, symObjAddr: 0xD564, symBinAddr: 0x1000209B4, symSize: 0x4C }
  - { offsetInCU: 0xF747, offset: 0x4B4A6, size: 0x8, addend: 0x0, symName: __ZN5boost6detail7variant27visitation_impl_invoke_implINS1_14invoke_visitorINS1_15direct_assignerIiEELb0EEEPvfEENT_11result_typeEiRS8_T0_PT1_N4mpl_5bool_ILb1EEE, symObjAddr: 0xD618, symBinAddr: 0x100020A68, symSize: 0x4C }
  - { offsetInCU: 0xF7BB, offset: 0x4B51A, size: 0x8, addend: 0x0, symName: __ZN5boost6detail7variant27visitation_impl_invoke_implINS1_14invoke_visitorINS1_15direct_assignerIiEELb0EEEPvbEENT_11result_typeEiRS8_T0_PT1_N4mpl_5bool_ILb1EEE, symObjAddr: 0xD6B8, symBinAddr: 0x100020B08, symSize: 0x4C }
  - { offsetInCU: 0xF8AE, offset: 0x4B60D, size: 0x8, addend: 0x0, symName: __ZN5boost6detail7variant22visitation_impl_invokeINS1_14invoke_visitorINS1_12direct_moverIbEELb0EEEPviNS_7variantIiJfbEE18has_fallback_type_EEENT_11result_typeEiRSB_T0_PT1_T2_i, symObjAddr: 0xDE98, symBinAddr: 0x1000212E8, symSize: 0x44 }
  - { offsetInCU: 0xF93D, offset: 0x4B69C, size: 0x8, addend: 0x0, symName: __ZN5boost6detail7variant22visitation_impl_invokeINS1_14invoke_visitorINS1_12direct_moverIbEELb0EEEPvfNS_7variantIiJfbEE18has_fallback_type_EEENT_11result_typeEiRSB_T0_PT1_T2_i, symObjAddr: 0xDEDC, symBinAddr: 0x10002132C, symSize: 0x44 }
  - { offsetInCU: 0xF9CC, offset: 0x4B72B, size: 0x8, addend: 0x0, symName: __ZN5boost6detail7variant22visitation_impl_invokeINS1_14invoke_visitorINS1_12direct_moverIbEELb0EEEPvbNS_7variantIiJfbEE18has_fallback_type_EEENT_11result_typeEiRSB_T0_PT1_T2_i, symObjAddr: 0xDF20, symBinAddr: 0x100021370, symSize: 0x44 }
  - { offsetInCU: 0xFA5B, offset: 0x4B7BA, size: 0x8, addend: 0x0, symName: __ZN5boost6detail7variant22visitation_impl_invokeINS1_14invoke_visitorINS1_12direct_moverIbEELb0EEEPvNS_7variantIiJfbEE18has_fallback_type_EEENT_11result_typeEiRSB_T0_PNS1_22apply_visitor_unrolledET1_l, symObjAddr: 0xDF64, symBinAddr: 0x1000213B4, symSize: 0x24 }
  - { offsetInCU: 0xFAD1, offset: 0x4B830, size: 0x8, addend: 0x0, symName: __ZN5boost6detail7variant15visitation_implIN4mpl_4int_ILi20EEENS1_20visitation_impl_stepINS_3mpl6l_iterINS7_5l_endEEESA_EENS1_14invoke_visitorINS1_12direct_moverIbEELb0EEEPvNS_7variantIiJfbEE18has_fallback_type_EEENT1_11result_typeEiiRSK_T2_NS3_5bool_ILb1EEET3_PT_PT0_, symObjAddr: 0xDF88, symBinAddr: 0x1000213D8, symSize: 0x28 }
  - { offsetInCU: 0xFB6D, offset: 0x4B8CC, size: 0x8, addend: 0x0, symName: __ZN5boost6detail7variant27visitation_impl_invoke_implINS1_14invoke_visitorINS1_12direct_moverIbEELb0EEEPviEENT_11result_typeEiRS8_T0_PT1_N4mpl_5bool_ILb1EEE, symObjAddr: 0xDFB0, symBinAddr: 0x100021400, symSize: 0x4C }
  - { offsetInCU: 0xFBE1, offset: 0x4B940, size: 0x8, addend: 0x0, symName: __ZN5boost6detail7variant27visitation_impl_invoke_implINS1_14invoke_visitorINS1_12direct_moverIbEELb0EEEPvfEENT_11result_typeEiRS8_T0_PT1_N4mpl_5bool_ILb1EEE, symObjAddr: 0xE050, symBinAddr: 0x1000214A0, symSize: 0x4C }
  - { offsetInCU: 0xFC55, offset: 0x4B9B4, size: 0x8, addend: 0x0, symName: __ZN5boost6detail7variant27visitation_impl_invoke_implINS1_14invoke_visitorINS1_12direct_moverIbEELb0EEEPvbEENT_11result_typeEiRS8_T0_PT1_N4mpl_5bool_ILb1EEE, symObjAddr: 0xE0F0, symBinAddr: 0x100021540, symSize: 0x4C }
  - { offsetInCU: 0x10588, offset: 0x4C2E7, size: 0x8, addend: 0x0, symName: __ZN4Zoso6Parser7StartOfEi, symObjAddr: 0x800, symBinAddr: 0x10001B808, symSize: 0x50 }
  - { offsetInCU: 0x105B0, offset: 0x4C30F, size: 0x8, addend: 0x0, symName: __ZZN4Zoso6Parser7StartOfEiE3set, symObjAddr: 0xF098, symBinAddr: 0x100030008, symSize: 0x0 }
  - { offsetInCU: 0x12282, offset: 0x4DFE1, size: 0x8, addend: 0x0, symName: __ZN4Zoso6Parser6SynErrEi, symObjAddr: 0x0, symBinAddr: 0x10001B008, symSize: 0x6C }
  - { offsetInCU: 0x122B7, offset: 0x4E016, size: 0x8, addend: 0x0, symName: __ZN4Zoso6Errors6SynErrEiii, symObjAddr: 0x6C, symBinAddr: 0x10001B074, symSize: 0x418 }
  - { offsetInCU: 0x1233D, offset: 0x4E09C, size: 0x8, addend: 0x0, symName: __ZN4Zoso6Parser6SemErrEPKw, symObjAddr: 0x51C, symBinAddr: 0x10001B524, symSize: 0x6C }
  - { offsetInCU: 0x12372, offset: 0x4E0D1, size: 0x8, addend: 0x0, symName: __ZN4Zoso6Errors5ErrorEiiPKw, symObjAddr: 0x588, symBinAddr: 0x10001B590, symSize: 0x70 }
  - { offsetInCU: 0x123C7, offset: 0x4E126, size: 0x8, addend: 0x0, symName: __ZN4Zoso6Parser3GetEv, symObjAddr: 0x5F8, symBinAddr: 0x10001B600, symSize: 0x120 }
  - { offsetInCU: 0x123EE, offset: 0x4E14D, size: 0x8, addend: 0x0, symName: __ZN4Zoso6Parser6ExpectEi, symObjAddr: 0x718, symBinAddr: 0x10001B720, symSize: 0x60 }
  - { offsetInCU: 0x12423, offset: 0x4E182, size: 0x8, addend: 0x0, symName: __ZN4Zoso6Parser10ExpectWeakEii, symObjAddr: 0x778, symBinAddr: 0x10001B780, symSize: 0x88 }
  - { offsetInCU: 0x12466, offset: 0x4E1C5, size: 0x8, addend: 0x0, symName: __ZN4Zoso6Parser13WeakSeparatorEiii, symObjAddr: 0x850, symBinAddr: 0x10001B858, symSize: 0x128 }
  - { offsetInCU: 0x124B7, offset: 0x4E216, size: 0x8, addend: 0x0, symName: __ZN4Zoso6Parser5IdentERPw, symObjAddr: 0x978, symBinAddr: 0x10001B980, symSize: 0x48 }
  - { offsetInCU: 0x124EC, offset: 0x4E24B, size: 0x8, addend: 0x0, symName: __ZN4Zoso6Parser5AddOpERi, symObjAddr: 0x9C0, symBinAddr: 0x10001B9C8, symSize: 0xC8 }
  - { offsetInCU: 0x12521, offset: 0x4E280, size: 0x8, addend: 0x0, symName: __ZN4Zoso6Parser5MulOpERi, symObjAddr: 0xAB4, symBinAddr: 0x10001BA90, symSize: 0xC8 }
  - { offsetInCU: 0x12556, offset: 0x4E2B5, size: 0x8, addend: 0x0, symName: __ZN4Zoso6Parser5RelOpERi, symObjAddr: 0xB7C, symBinAddr: 0x10001BB58, symSize: 0x160 }
  - { offsetInCU: 0x12589, offset: 0x4E2E8, size: 0x8, addend: 0x0, symName: __ZN4Zoso6Parser19VariableDeclarationEv, symObjAddr: 0xCDC, symBinAddr: 0x10001BCB8, symSize: 0xB4 }
  - { offsetInCU: 0x125CE, offset: 0x4E32D, size: 0x8, addend: 0x0, symName: __ZN4Zoso6Parser4TypeERi, symObjAddr: 0xD90, symBinAddr: 0x10001BD6C, symSize: 0x120 }
  - { offsetInCU: 0x12603, offset: 0x4E362, size: 0x8, addend: 0x0, symName: __ZN4Zoso6Parser19FunctionDeclarationEv, symObjAddr: 0xEB0, symBinAddr: 0x10001BE8C, symSize: 0x110 }
  - { offsetInCU: 0x12648, offset: 0x4E3A7, size: 0x8, addend: 0x0, symName: __ZN4Zoso6Parser9StatementEv, symObjAddr: 0xFC0, symBinAddr: 0x10001BF9C, symSize: 0xB0 }
  - { offsetInCU: 0x1266F, offset: 0x4E3CE, size: 0x8, addend: 0x0, symName: __ZN4Zoso6Parser19VariableAssignationEv, symObjAddr: 0x1070, symBinAddr: 0x10001C04C, symSize: 0xE4 }
  - { offsetInCU: 0x126D2, offset: 0x4E431, size: 0x8, addend: 0x0, symName: __ZN4Zoso6Parser6IfCaseEv, symObjAddr: 0x1154, symBinAddr: 0x10001C130, symSize: 0x450 }
  - { offsetInCU: 0x12748, offset: 0x4E4A7, size: 0x8, addend: 0x0, symName: __ZN4Zoso6Parser9WhileLoopEv, symObjAddr: 0x15A4, symBinAddr: 0x10001C580, symSize: 0xE8 }
  - { offsetInCU: 0x1277E, offset: 0x4E4DD, size: 0x8, addend: 0x0, symName: __ZN4Zoso6Parser16LogicalExpresionERi, symObjAddr: 0x168C, symBinAddr: 0x10001C668, symSize: 0x78 }
  - { offsetInCU: 0x127D1, offset: 0x4E530, size: 0x8, addend: 0x0, symName: __ZNSt3__15stackIiNS_5dequeIiNS_9allocatorIiEEEEE4pushB8ue170006EOi, symObjAddr: 0x1820, symBinAddr: 0x10001C6E0, symSize: 0x2C }
  - { offsetInCU: 0x12804, offset: 0x4E563, size: 0x8, addend: 0x0, symName: __ZNSt3__16vectorINS0_IiNS_9allocatorIiEEEENS1_IS3_EEEixB8ue170006Em, symObjAddr: 0x1874, symBinAddr: 0x10001C70C, symSize: 0x2C }
  - { offsetInCU: 0x1283A, offset: 0x4E599, size: 0x8, addend: 0x0, symName: __ZNSt3__16vectorIiNS_9allocatorIiEEEaSB8ue170006ESt16initializer_listIiE, symObjAddr: 0x18A0, symBinAddr: 0x10001C738, symSize: 0x60 }
  - { offsetInCU: 0x1286D, offset: 0x4E5CC, size: 0x8, addend: 0x0, symName: __ZN4Zoso6Parser7SimExprERi, symObjAddr: 0x1900, symBinAddr: 0x10001C798, symSize: 0xB0 }
  - { offsetInCU: 0x128C0, offset: 0x4E61F, size: 0x8, addend: 0x0, symName: __ZN4Zoso6Parser4TermERi, symObjAddr: 0x19B0, symBinAddr: 0x10001C848, symSize: 0xB0 }
  - { offsetInCU: 0x12913, offset: 0x4E672, size: 0x8, addend: 0x0, symName: __ZN4Zoso6Parser6FactorERi, symObjAddr: 0x1A60, symBinAddr: 0x10001C8F8, symSize: 0x400 }
  - { offsetInCU: 0x12A10, offset: 0x4E76F, size: 0x8, addend: 0x0, symName: __ZNSt3__13mapIiN5boost7variantIiJfbEEENS_4lessIiEENS_9allocatorINS_4pairIKiS3_EEEEEixERS8_, symObjAddr: 0x1ED4, symBinAddr: 0x10001CD6C, symSize: 0x80 }
  - { offsetInCU: 0x12A45, offset: 0x4E7A4, size: 0x8, addend: 0x0, symName: __ZN5boost7variantIiJfbEEaSIfEENS_9enable_ifINS_3mpl3or_INS_7is_sameIT_S1_EENS_6detail7variant29is_variant_constructible_fromIRKS7_NS4_6l_itemIN4mpl_5long_ILl3EEEiNSE_INSG_ILl2EEEfNSE_INSG_ILl1EEEbNS4_5l_endEEEEEEEEENSF_5bool_ILb0EEESQ_SQ_EERS1_E4typeESD_, symObjAddr: 0x1F54, symBinAddr: 0x10001CDEC, symSize: 0x34 }
  - { offsetInCU: 0x12A81, offset: 0x4E7E0, size: 0x8, addend: 0x0, symName: __ZN5boost7variantIiJfbEEaSIiEENS_9enable_ifINS_3mpl3or_INS_7is_sameIT_S1_EENS_6detail7variant29is_variant_constructible_fromIRKS7_NS4_6l_itemIN4mpl_5long_ILl3EEEiNSE_INSG_ILl2EEEfNSE_INSG_ILl1EEEbNS4_5l_endEEEEEEEEENSF_5bool_ILb0EEESQ_SQ_EERS1_E4typeESD_, symObjAddr: 0x1F88, symBinAddr: 0x10001CE20, symSize: 0x34 }
  - { offsetInCU: 0x12AC2, offset: 0x4E821, size: 0x8, addend: 0x0, symName: __ZN5boost7variantIiJfbEEaSIbEENS_9enable_ifINS_3mpl4and_INS_19is_rvalue_referenceIOT_EENS4_4not_INS_8is_constIS7_EEEENS_6detail7variant29is_variant_constructible_fromIS8_NS4_6l_itemIN4mpl_5long_ILl3EEEiNSH_INSJ_ILl2EEEfNSH_INSJ_ILl1EEEbNS4_5l_endEEEEEEEEENSI_5bool_ILb1EEEST_EERS1_E4typeES8_, symObjAddr: 0x1FBC, symBinAddr: 0x10001CE54, symSize: 0x34 }
  - { offsetInCU: 0x12AFE, offset: 0x4E85D, size: 0x8, addend: 0x0, symName: __ZN4Zoso6Parser4ZosoEv, symObjAddr: 0x2024, symBinAddr: 0x10001CE88, symSize: 0x11C }
  - { offsetInCU: 0x12B35, offset: 0x4E894, size: 0x8, addend: 0x0, symName: __ZN4Zoso6Parser16InitDeclarationsEv, symObjAddr: 0x2140, symBinAddr: 0x10001CFA4, symSize: 0xE8 }
  - { offsetInCU: 0x12B59, offset: 0x4E8B8, size: 0x8, addend: 0x0, symName: __ZN4Zoso6Parser5ParseEv, symObjAddr: 0x2228, symBinAddr: 0x10001D08C, symSize: 0xA8 }
  - { offsetInCU: 0x12B81, offset: 0x4E8E0, size: 0x8, addend: 0x0, symName: __ZN4Zoso6ParserC2EPNS_7ScannerE, symObjAddr: 0x22D0, symBinAddr: 0x10001D134, symSize: 0xA0 }
  - { offsetInCU: 0x12BBB, offset: 0x4E91A, size: 0x8, addend: 0x0, symName: __ZN4Zoso16ParserInitCallerINS_6ParserELb0EE8CallInitEPS1_, symObjAddr: 0x2370, symBinAddr: 0x10001D1D4, symSize: 0x10 }
  - { offsetInCU: 0x12BDE, offset: 0x4E93D, size: 0x8, addend: 0x0, symName: __ZN4Zoso6ErrorsC1Ev, symObjAddr: 0x2380, symBinAddr: 0x10001D1E4, symSize: 0x2C }
  - { offsetInCU: 0x12C09, offset: 0x4E968, size: 0x8, addend: 0x0, symName: __ZN4Zoso6ParserC1EPNS_7ScannerE, symObjAddr: 0x23AC, symBinAddr: 0x10001D210, symSize: 0x34 }
  - { offsetInCU: 0x12C43, offset: 0x4E9A2, size: 0x8, addend: 0x0, symName: __ZN4Zoso6ParserD2Ev, symObjAddr: 0x23E0, symBinAddr: 0x10001D244, symSize: 0x94 }
  - { offsetInCU: 0x12C6E, offset: 0x4E9CD, size: 0x8, addend: 0x0, symName: __ZN4Zoso19ParserDestroyCallerINS_6ParserELb0EE11CallDestroyEPS1_, symObjAddr: 0x2474, symBinAddr: 0x10001D2D8, symSize: 0x10 }
  - { offsetInCU: 0x12C91, offset: 0x4E9F0, size: 0x8, addend: 0x0, symName: __ZN4Zoso6ParserD1Ev, symObjAddr: 0x2490, symBinAddr: 0x10001D2E8, symSize: 0x2C }
  - { offsetInCU: 0x12CBC, offset: 0x4EA1B, size: 0x8, addend: 0x0, symName: __ZN4Zoso6ErrorsC2Ev, symObjAddr: 0x24BC, symBinAddr: 0x10001D314, symSize: 0x18 }
  - { offsetInCU: 0x12CE8, offset: 0x4EA47, size: 0x8, addend: 0x0, symName: __ZN4Zoso6Errors7WarningEiiPKw, symObjAddr: 0x24D4, symBinAddr: 0x10001D32C, symSize: 0x58 }
  - { offsetInCU: 0x12D3D, offset: 0x4EA9C, size: 0x8, addend: 0x0, symName: __ZN4Zoso6Errors7WarningEPKw, symObjAddr: 0x252C, symBinAddr: 0x10001D384, symSize: 0x38 }
  - { offsetInCU: 0x12D74, offset: 0x4EAD3, size: 0x8, addend: 0x0, symName: __ZN4Zoso6Errors9ExceptionEPKw, symObjAddr: 0x2564, symBinAddr: 0x10001D3BC, symSize: 0x34 }
  - { offsetInCU: 0x12DF6, offset: 0x4EB55, size: 0x8, addend: 0x0, symName: __ZNSt3__15dequeIiNS_9allocatorIiEEE9push_backEOi, symObjAddr: 0x8E10, symBinAddr: 0x10001D3F0, symSize: 0xAC }
  - { offsetInCU: 0x12E3F, offset: 0x4EB9E, size: 0x8, addend: 0x0, symName: __ZNSt3__116allocator_traitsINS_9allocatorIiEEE9constructB8ue170006IiJiEvEEvRS2_PT_DpOT0_, symObjAddr: 0x8EBC, symBinAddr: 0x10001D49C, symSize: 0x34 }
  - { offsetInCU: 0x12E95, offset: 0x4EBF4, size: 0x8, addend: 0x0, symName: __ZNSt3__19allocatorIiE9constructB8ue170006IiJiEEEvPT_DpOT0_, symObjAddr: 0x8EF0, symBinAddr: 0x10001D4D0, symSize: 0x28 }
  - { offsetInCU: 0x12EE9, offset: 0x4EC48, size: 0x8, addend: 0x0, symName: __ZNSt3__16vectorIiNS_9allocatorIiEEE6assignIPKiLi0EEEvT_S7_, symObjAddr: 0x8F18, symBinAddr: 0x10001D4F8, symSize: 0x5C }
  - { offsetInCU: 0x12F3C, offset: 0x4EC9B, size: 0x8, addend: 0x0, symName: __ZNSt3__16vectorIiNS_9allocatorIiEEE18__assign_with_sizeB8ue170006IPKiS6_EEvT_T0_l, symObjAddr: 0x8F74, symBinAddr: 0x10001D554, symSize: 0x164 }
  - { offsetInCU: 0x12FEA, offset: 0x4ED49, size: 0x8, addend: 0x0, symName: __ZNSt3__16vectorIiNS_9allocatorIiEEE17__destruct_at_endB8ue170006EPi, symObjAddr: 0x9138, symBinAddr: 0x10001D718, symSize: 0x4C }
  - { offsetInCU: 0x1302C, offset: 0x4ED8B, size: 0x8, addend: 0x0, symName: __ZNSt3__16vectorIiNS_9allocatorIiEEE13__vdeallocateEv, symObjAddr: 0x9184, symBinAddr: 0x10001D764, symSize: 0x94 }
  - { offsetInCU: 0x13052, offset: 0x4EDB1, size: 0x8, addend: 0x0, symName: __ZNKSt3__16vectorIiNS_9allocatorIiEEE11__recommendB8ue170006Em, symObjAddr: 0x9218, symBinAddr: 0x10001D7F8, symSize: 0xB4 }
  - { offsetInCU: 0x130A5, offset: 0x4EE04, size: 0x8, addend: 0x0, symName: __ZNKSt3__16vectorIiNS_9allocatorIiEEE17__annotate_shrinkB8ue170006Em, symObjAddr: 0x9340, symBinAddr: 0x10001D920, symSize: 0xB4 }
  - { offsetInCU: 0x130D8, offset: 0x4EE37, size: 0x8, addend: 0x0, symName: __ZNSt3__16vectorIiNS_9allocatorIiEEE5clearB8ue170006Ev, symObjAddr: 0x93F4, symBinAddr: 0x10001D9D4, symSize: 0x44 }
  - { offsetInCU: 0x1311A, offset: 0x4EE79, size: 0x8, addend: 0x0, symName: __ZNSt3__16__treeINS_12__value_typeIiN5boost7variantIiJfbEEEEENS_19__map_value_compareIiS5_NS_4lessIiEELb1EEENS_9allocatorIS5_EEE25__emplace_unique_key_argsIiJRKNS_21piecewise_construct_tENS_5tupleIJRKiEEENSH_IJEEEEEENS_4pairINS_15__tree_iteratorIS5_PNS_11__tree_nodeIS5_PvEElEEbEERKT_DpOT0_, symObjAddr: 0x9460, symBinAddr: 0x10001DA40, symSize: 0x100 }
  - { offsetInCU: 0x131EE, offset: 0x4EF4D, size: 0x8, addend: 0x0, symName: __ZNSt3__16__treeINS_12__value_typeIiN5boost7variantIiJfbEEEEENS_19__map_value_compareIiS5_NS_4lessIiEELb1EEENS_9allocatorIS5_EEE12__find_equalIiEERPNS_16__tree_node_baseIPvEERPNS_15__tree_end_nodeISH_EERKT_, symObjAddr: 0x95D0, symBinAddr: 0x10001DB40, symSize: 0x184 }
  - { offsetInCU: 0x13259, offset: 0x4EFB8, size: 0x8, addend: 0x0, symName: __ZNSt3__16__treeINS_12__value_typeIiN5boost7variantIiJfbEEEEENS_19__map_value_compareIiS5_NS_4lessIiEELb1EEENS_9allocatorIS5_EEE16__construct_nodeIJRKNS_21piecewise_construct_tENS_5tupleIJRKiEEENSH_IJEEEEEENS_10unique_ptrINS_11__tree_nodeIS5_PvEENS_22__tree_node_destructorINSA_ISP_EEEEEEDpOT_, symObjAddr: 0x9754, symBinAddr: 0x10001DCC4, symSize: 0x120 }
  - { offsetInCU: 0x132E0, offset: 0x4F03F, size: 0x8, addend: 0x0, symName: __ZNSt3__16__treeINS_12__value_typeIiN5boost7variantIiJfbEEEEENS_19__map_value_compareIiS5_NS_4lessIiEELb1EEENS_9allocatorIS5_EEE16__insert_node_atEPNS_15__tree_end_nodeIPNS_16__tree_node_baseIPvEEEERSH_SH_, symObjAddr: 0x9874, symBinAddr: 0x10001DDE4, symSize: 0xCC }
  - { offsetInCU: 0x13333, offset: 0x4F092, size: 0x8, addend: 0x0, symName: __ZNKSt3__110unique_ptrINS_11__tree_nodeINS_12__value_typeIiN5boost7variantIiJfbEEEEEPvEENS_22__tree_node_destructorINS_9allocatorIS8_EEEEE3getB8ue170006Ev, symObjAddr: 0x9940, symBinAddr: 0x10001DEB0, symSize: 0x28 }
  - { offsetInCU: 0x13357, offset: 0x4F0B6, size: 0x8, addend: 0x0, symName: __ZNSt3__110unique_ptrINS_11__tree_nodeINS_12__value_typeIiN5boost7variantIiJfbEEEEEPvEENS_22__tree_node_destructorINS_9allocatorIS8_EEEEE7releaseB8ue170006Ev, symObjAddr: 0x9968, symBinAddr: 0x10001DED8, symSize: 0x44 }
  - { offsetInCU: 0x1338A, offset: 0x4F0E9, size: 0x8, addend: 0x0, symName: __ZNSt3__110unique_ptrINS_11__tree_nodeINS_12__value_typeIiN5boost7variantIiJfbEEEEEPvEENS_22__tree_node_destructorINS_9allocatorIS8_EEEEED1B8ue170006Ev, symObjAddr: 0x99AC, symBinAddr: 0x10001DF1C, symSize: 0x2C }
  - { offsetInCU: 0x133B2, offset: 0x4F111, size: 0x8, addend: 0x0, symName: __ZNSt3__115__tree_iteratorINS_12__value_typeIiN5boost7variantIiJfbEEEEEPNS_11__tree_nodeIS5_PvEElEC1B8ue170006ES9_, symObjAddr: 0x99D8, symBinAddr: 0x10001DF48, symSize: 0x34 }
  - { offsetInCU: 0x133EE, offset: 0x4F14D, size: 0x8, addend: 0x0, symName: __ZNSt3__14pairINS_15__tree_iteratorINS_12__value_typeIiN5boost7variantIiJfbEEEEEPNS_11__tree_nodeIS6_PvEElEEbEC1B8ue170006ISB_RbLS8_0EEEOT_OT0_, symObjAddr: 0x9A0C, symBinAddr: 0x10001DF7C, symSize: 0x3C }
  - { offsetInCU: 0x1344A, offset: 0x4F1A9, size: 0x8, addend: 0x0, symName: __ZNKSt3__16__treeINS_12__value_typeIiN5boost7variantIiJfbEEEEENS_19__map_value_compareIiS5_NS_4lessIiEELb1EEENS_9allocatorIS5_EEE10__root_ptrB8ue170006Ev, symObjAddr: 0x9A70, symBinAddr: 0x10001DFB8, symSize: 0x24 }
  - { offsetInCU: 0x1346E, offset: 0x4F1CD, size: 0x8, addend: 0x0, symName: __ZNSt3__16__treeINS_12__value_typeIiN5boost7variantIiJfbEEEEENS_19__map_value_compareIiS5_NS_4lessIiEELb1EEENS_9allocatorIS5_EEE10value_compB8ue170006Ev, symObjAddr: 0x9A94, symBinAddr: 0x10001DFDC, symSize: 0x28 }
  - { offsetInCU: 0x13492, offset: 0x4F1F1, size: 0x8, addend: 0x0, symName: __ZNKSt3__119__map_value_compareIiNS_12__value_typeIiN5boost7variantIiJfbEEEEENS_4lessIiEELb1EEclB8ue170006ERKiRKS5_, symObjAddr: 0x9ABC, symBinAddr: 0x10001E004, symSize: 0x50 }
  - { offsetInCU: 0x134D4, offset: 0x4F233, size: 0x8, addend: 0x0, symName: __ZNKSt3__119__map_value_compareIiNS_12__value_typeIiN5boost7variantIiJfbEEEEENS_4lessIiEELb1EEclB8ue170006ERKS5_RKi, symObjAddr: 0x9B0C, symBinAddr: 0x10001E054, symSize: 0x48 }
  - { offsetInCU: 0x13516, offset: 0x4F275, size: 0x8, addend: 0x0, symName: __ZNSt3__117__compressed_pairImNS_19__map_value_compareIiNS_12__value_typeIiN5boost7variantIiJfbEEEEENS_4lessIiEELb1EEEE6secondB8ue170006Ev, symObjAddr: 0x9BF8, symBinAddr: 0x10001E09C, symSize: 0x24 }
  - { offsetInCU: 0x1353A, offset: 0x4F299, size: 0x8, addend: 0x0, symName: __ZNSt3__122__compressed_pair_elemINS_19__map_value_compareIiNS_12__value_typeIiN5boost7variantIiJfbEEEEENS_4lessIiEELb1EEELi1ELb1EE5__getB8ue170006Ev, symObjAddr: 0x9C1C, symBinAddr: 0x10001E0C0, symSize: 0x14 }
  - { offsetInCU: 0x1355E, offset: 0x4F2BD, size: 0x8, addend: 0x0, symName: __ZNKSt3__112__value_typeIiN5boost7variantIiJfbEEEE11__get_valueB8ue170006Ev, symObjAddr: 0x9C64, symBinAddr: 0x10001E0D4, symSize: 0x14 }
  - { offsetInCU: 0x13582, offset: 0x4F2E1, size: 0x8, addend: 0x0, symName: __ZNSt3__116allocator_traitsINS_9allocatorINS_11__tree_nodeINS_12__value_typeIiN5boost7variantIiJfbEEEEEPvEEEEE8allocateB8ue170006ERSA_m, symObjAddr: 0x9CD8, symBinAddr: 0x10001E0E8, symSize: 0x2C }
  - { offsetInCU: 0x135B4, offset: 0x4F313, size: 0x8, addend: 0x0, symName: __ZNSt3__122__tree_node_destructorINS_9allocatorINS_11__tree_nodeINS_12__value_typeIiN5boost7variantIiJfbEEEEEPvEEEEEC1B8ue170006ERSA_b, symObjAddr: 0x9D04, symBinAddr: 0x10001E114, symSize: 0x48 }
  - { offsetInCU: 0x135FF, offset: 0x4F35E, size: 0x8, addend: 0x0, symName: __ZNSt3__110unique_ptrINS_11__tree_nodeINS_12__value_typeIiN5boost7variantIiJfbEEEEEPvEENS_22__tree_node_destructorINS_9allocatorIS8_EEEEEC1B8ue170006ILb1EvEEPS8_NS_16__dependent_typeINS_27__unique_ptr_deleter_sfinaeISC_EEXT_EE20__good_rval_ref_typeE, symObjAddr: 0x9D4C, symBinAddr: 0x10001E15C, symSize: 0x3C }
  - { offsetInCU: 0x1364E, offset: 0x4F3AD, size: 0x8, addend: 0x0, symName: __ZNSt3__116allocator_traitsINS_9allocatorINS_11__tree_nodeINS_12__value_typeIiN5boost7variantIiJfbEEEEEPvEEEEE9constructB8ue170006INS_4pairIKiS6_EEJRKNS_21piecewise_construct_tENS_5tupleIJRSE_EEENSJ_IJEEEEvEEvRSA_PT_DpOT0_, symObjAddr: 0x9D88, symBinAddr: 0x10001E198, symSize: 0x44 }
  - { offsetInCU: 0x136CC, offset: 0x4F42B, size: 0x8, addend: 0x0, symName: __ZNKSt3__110unique_ptrINS_11__tree_nodeINS_12__value_typeIiN5boost7variantIiJfbEEEEEPvEENS_22__tree_node_destructorINS_9allocatorIS8_EEEEEptB8ue170006Ev, symObjAddr: 0x9DF0, symBinAddr: 0x10001E1DC, symSize: 0x28 }
  - { offsetInCU: 0x136F0, offset: 0x4F44F, size: 0x8, addend: 0x0, symName: __ZNSt3__110unique_ptrINS_11__tree_nodeINS_12__value_typeIiN5boost7variantIiJfbEEEEEPvEENS_22__tree_node_destructorINS_9allocatorIS8_EEEEE11get_deleterB8ue170006Ev, symObjAddr: 0x9E18, symBinAddr: 0x10001E204, symSize: 0x24 }
  - { offsetInCU: 0x13714, offset: 0x4F473, size: 0x8, addend: 0x0, symName: __ZNSt3__19allocatorINS_11__tree_nodeINS_12__value_typeIiN5boost7variantIiJfbEEEEEPvEEE8allocateB8ue170006Em, symObjAddr: 0x9E74, symBinAddr: 0x10001E228, symSize: 0x5C }
  - { offsetInCU: 0x13750, offset: 0x4F4AF, size: 0x8, addend: 0x0, symName: __ZNSt3__116allocator_traitsINS_9allocatorINS_11__tree_nodeINS_12__value_typeIiN5boost7variantIiJfbEEEEEPvEEEEE8max_sizeB8ue170006ISA_vEEmRKSA_, symObjAddr: 0x9ED0, symBinAddr: 0x10001E284, symSize: 0x24 }
  - { offsetInCU: 0x1377D, offset: 0x4F4DC, size: 0x8, addend: 0x0, symName: __ZNKSt3__19allocatorINS_11__tree_nodeINS_12__value_typeIiN5boost7variantIiJfbEEEEEPvEEE8max_sizeB8ue170006Ev, symObjAddr: 0x9EF4, symBinAddr: 0x10001E2A8, symSize: 0x18 }
  - { offsetInCU: 0x137A1, offset: 0x4F500, size: 0x8, addend: 0x0, symName: __ZNSt3__122__tree_node_destructorINS_9allocatorINS_11__tree_nodeINS_12__value_typeIiN5boost7variantIiJfbEEEEEPvEEEEEC2B8ue170006ERSA_b, symObjAddr: 0x9F0C, symBinAddr: 0x10001E2C0, symSize: 0x38 }
  - { offsetInCU: 0x137E7, offset: 0x4F546, size: 0x8, addend: 0x0, symName: __ZNSt3__110unique_ptrINS_11__tree_nodeINS_12__value_typeIiN5boost7variantIiJfbEEEEEPvEENS_22__tree_node_destructorINS_9allocatorIS8_EEEEEC2B8ue170006ILb1EvEEPS8_NS_16__dependent_typeINS_27__unique_ptr_deleter_sfinaeISC_EEXT_EE20__good_rval_ref_typeE, symObjAddr: 0x9F44, symBinAddr: 0x10001E2F8, symSize: 0x48 }
  - { offsetInCU: 0x13836, offset: 0x4F595, size: 0x8, addend: 0x0, symName: __ZNSt3__117__compressed_pairIPNS_11__tree_nodeINS_12__value_typeIiN5boost7variantIiJfbEEEEEPvEENS_22__tree_node_destructorINS_9allocatorIS8_EEEEEC1B8ue170006IRS9_SD_EEOT_OT0_, symObjAddr: 0x9F8C, symBinAddr: 0x10001E340, symSize: 0x3C }
  - { offsetInCU: 0x1388C, offset: 0x4F5EB, size: 0x8, addend: 0x0, symName: __ZNSt3__117__compressed_pairIPNS_11__tree_nodeINS_12__value_typeIiN5boost7variantIiJfbEEEEEPvEENS_22__tree_node_destructorINS_9allocatorIS8_EEEEEC2B8ue170006IRS9_SD_EEOT_OT0_, symObjAddr: 0x9FC8, symBinAddr: 0x10001E37C, symSize: 0x48 }
  - { offsetInCU: 0x138E2, offset: 0x4F641, size: 0x8, addend: 0x0, symName: __ZNSt3__122__compressed_pair_elemIPNS_11__tree_nodeINS_12__value_typeIiN5boost7variantIiJfbEEEEEPvEELi0ELb0EEC2B8ue170006IRS9_vEEOT_, symObjAddr: 0xA010, symBinAddr: 0x10001E3C4, symSize: 0x24 }
  - { offsetInCU: 0x13922, offset: 0x4F681, size: 0x8, addend: 0x0, symName: __ZNSt3__122__compressed_pair_elemINS_22__tree_node_destructorINS_9allocatorINS_11__tree_nodeINS_12__value_typeIiN5boost7variantIiJfbEEEEEPvEEEEEELi1ELb0EEC2B8ue170006ISC_vEEOT_, symObjAddr: 0xA034, symBinAddr: 0x10001E3E8, symSize: 0x24 }
  - { offsetInCU: 0x13962, offset: 0x4F6C1, size: 0x8, addend: 0x0, symName: __ZNSt3__19allocatorINS_11__tree_nodeINS_12__value_typeIiN5boost7variantIiJfbEEEEEPvEEE9constructB8ue170006INS_4pairIKiS5_EEJRKNS_21piecewise_construct_tENS_5tupleIJRSC_EEENSH_IJEEEEEEvPT_DpOT0_, symObjAddr: 0xA058, symBinAddr: 0x10001E40C, symSize: 0x44 }
  - { offsetInCU: 0x139DC, offset: 0x4F73B, size: 0x8, addend: 0x0, symName: __ZNSt3__14pairIKiN5boost7variantIiJfbEEEEC1B8ue170006IJRS1_EJEEENS_21piecewise_construct_tENS_5tupleIJDpT_EEENS9_IJDpT0_EEE, symObjAddr: 0xA09C, symBinAddr: 0x10001E450, symSize: 0x44 }
  - { offsetInCU: 0x13A41, offset: 0x4F7A0, size: 0x8, addend: 0x0, symName: __ZNSt3__14pairIKiN5boost7variantIiJfbEEEEC1B8ue170006IJRS1_EJEJLm0EEJEEENS_21piecewise_construct_tERNS_5tupleIJDpT_EEERNS9_IJDpT0_EEENS_15__tuple_indicesIJXspT1_EEEENSI_IJXspT2_EEEE, symObjAddr: 0xA0E0, symBinAddr: 0x10001E494, symSize: 0x3C }
  - { offsetInCU: 0x13ACC, offset: 0x4F82B, size: 0x8, addend: 0x0, symName: __ZNSt3__14pairIKiN5boost7variantIiJfbEEEEC2B8ue170006IJRS1_EJEJLm0EEJEEENS_21piecewise_construct_tERNS_5tupleIJDpT_EEERNS9_IJDpT0_EEENS_15__tuple_indicesIJXspT1_EEEENSI_IJXspT2_EEEE, symObjAddr: 0xA11C, symBinAddr: 0x10001E4D0, symSize: 0x4C }
  - { offsetInCU: 0x13B57, offset: 0x4F8B6, size: 0x8, addend: 0x0, symName: __ZN5boost7variantIiJfbEEC1Ev, symObjAddr: 0xA18C, symBinAddr: 0x10001E51C, symSize: 0x2C }
  - { offsetInCU: 0x13B7F, offset: 0x4F8DE, size: 0x8, addend: 0x0, symName: __ZN5boost7variantIiJfbEEC2Ev, symObjAddr: 0xA1D0, symBinAddr: 0x10001E548, symSize: 0x60 }
  - { offsetInCU: 0x13BA7, offset: 0x4F906, size: 0x8, addend: 0x0, symName: __ZN5boost15aligned_storageILm4ELm4EEC1Ev, symObjAddr: 0xA230, symBinAddr: 0x10001E5A8, symSize: 0x2C }
  - { offsetInCU: 0x13BCF, offset: 0x4F92E, size: 0x8, addend: 0x0, symName: __ZN5boost7variantIiJfbEE14indicate_whichEi, symObjAddr: 0xA280, symBinAddr: 0x10001E5D4, symSize: 0x20 }
  - { offsetInCU: 0x13C02, offset: 0x4F961, size: 0x8, addend: 0x0, symName: __ZN5boost15aligned_storageILm4ELm4EEC2Ev, symObjAddr: 0xA2A0, symBinAddr: 0x10001E5F4, symSize: 0x14 }
  - { offsetInCU: 0x13C2A, offset: 0x4F989, size: 0x8, addend: 0x0, symName: __ZNKSt3__117__compressed_pairIPNS_11__tree_nodeINS_12__value_typeIiN5boost7variantIiJfbEEEEEPvEENS_22__tree_node_destructorINS_9allocatorIS8_EEEEE5firstB8ue170006Ev, symObjAddr: 0xA2C8, symBinAddr: 0x10001E608, symSize: 0x24 }
  - { offsetInCU: 0x13C4E, offset: 0x4F9AD, size: 0x8, addend: 0x0, symName: __ZNKSt3__122__compressed_pair_elemIPNS_11__tree_nodeINS_12__value_typeIiN5boost7variantIiJfbEEEEEPvEELi0ELb0EE5__getB8ue170006Ev, symObjAddr: 0xA2EC, symBinAddr: 0x10001E62C, symSize: 0x14 }
  - { offsetInCU: 0x13C72, offset: 0x4F9D1, size: 0x8, addend: 0x0, symName: __ZNSt3__117__compressed_pairIPNS_11__tree_nodeINS_12__value_typeIiN5boost7variantIiJfbEEEEEPvEENS_22__tree_node_destructorINS_9allocatorIS8_EEEEE6secondB8ue170006Ev, symObjAddr: 0xA300, symBinAddr: 0x10001E640, symSize: 0x28 }
  - { offsetInCU: 0x13C96, offset: 0x4F9F5, size: 0x8, addend: 0x0, symName: __ZNSt3__122__compressed_pair_elemINS_22__tree_node_destructorINS_9allocatorINS_11__tree_nodeINS_12__value_typeIiN5boost7variantIiJfbEEEEEPvEEEEEELi1ELb0EE5__getB8ue170006Ev, symObjAddr: 0xA328, symBinAddr: 0x10001E668, symSize: 0x14 }
  - { offsetInCU: 0x13CBA, offset: 0x4FA19, size: 0x8, addend: 0x0, symName: __ZNSt3__16__treeINS_12__value_typeIiN5boost7variantIiJfbEEEEENS_19__map_value_compareIiS5_NS_4lessIiEELb1EEENS_9allocatorIS5_EEE4sizeB8ue170006Ev, symObjAddr: 0xA67C, symBinAddr: 0x10001E67C, symSize: 0x28 }
  - { offsetInCU: 0x13CDE, offset: 0x4FA3D, size: 0x8, addend: 0x0, symName: __ZNSt3__117__compressed_pairImNS_19__map_value_compareIiNS_12__value_typeIiN5boost7variantIiJfbEEEEENS_4lessIiEELb1EEEE5firstB8ue170006Ev, symObjAddr: 0xA8AC, symBinAddr: 0x10001E6A4, symSize: 0x24 }
  - { offsetInCU: 0x13D02, offset: 0x4FA61, size: 0x8, addend: 0x0, symName: __ZNSt3__117__compressed_pairIPNS_11__tree_nodeINS_12__value_typeIiN5boost7variantIiJfbEEEEEPvEENS_22__tree_node_destructorINS_9allocatorIS8_EEEEE5firstB8ue170006Ev, symObjAddr: 0xA8D0, symBinAddr: 0x10001E6C8, symSize: 0x24 }
  - { offsetInCU: 0x13D26, offset: 0x4FA85, size: 0x8, addend: 0x0, symName: __ZNSt3__122__compressed_pair_elemIPNS_11__tree_nodeINS_12__value_typeIiN5boost7variantIiJfbEEEEEPvEELi0ELb0EE5__getB8ue170006Ev, symObjAddr: 0xA8F4, symBinAddr: 0x10001E6EC, symSize: 0x14 }
  - { offsetInCU: 0x13D4A, offset: 0x4FAA9, size: 0x8, addend: 0x0, symName: __ZNSt3__110unique_ptrINS_11__tree_nodeINS_12__value_typeIiN5boost7variantIiJfbEEEEEPvEENS_22__tree_node_destructorINS_9allocatorIS8_EEEEED2B8ue170006Ev, symObjAddr: 0xA908, symBinAddr: 0x10001E700, symSize: 0x30 }
  - { offsetInCU: 0x13D72, offset: 0x4FAD1, size: 0x8, addend: 0x0, symName: __ZNSt3__110unique_ptrINS_11__tree_nodeINS_12__value_typeIiN5boost7variantIiJfbEEEEEPvEENS_22__tree_node_destructorINS_9allocatorIS8_EEEEE5resetB8ue170006EPS8_, symObjAddr: 0xA938, symBinAddr: 0x10001E730, symSize: 0x78 }
  - { offsetInCU: 0x13DB4, offset: 0x4FB13, size: 0x8, addend: 0x0, symName: __ZNSt3__122__tree_node_destructorINS_9allocatorINS_11__tree_nodeINS_12__value_typeIiN5boost7variantIiJfbEEEEEPvEEEEEclB8ue170006EPS9_, symObjAddr: 0xA9B0, symBinAddr: 0x10001E7A8, symSize: 0x98 }
  - { offsetInCU: 0x13DF6, offset: 0x4FB55, size: 0x8, addend: 0x0, symName: __ZNSt3__115__tree_iteratorINS_12__value_typeIiN5boost7variantIiJfbEEEEEPNS_11__tree_nodeIS5_PvEElEC2B8ue170006ES9_, symObjAddr: 0xB324, symBinAddr: 0x10001E890, symSize: 0x20 }
  - { offsetInCU: 0x13E2D, offset: 0x4FB8C, size: 0x8, addend: 0x0, symName: __ZNSt3__14pairINS_15__tree_iteratorINS_12__value_typeIiN5boost7variantIiJfbEEEEEPNS_11__tree_nodeIS6_PvEElEEbEC2B8ue170006ISB_RbLS8_0EEEOT_OT0_, symObjAddr: 0xB344, symBinAddr: 0x10001E8B0, symSize: 0x38 }
  - { offsetInCU: 0x13E89, offset: 0x4FBE8, size: 0x8, addend: 0x0, symName: __ZN5boost7variantIiJfbEE6assignIfEEvRKT_, symObjAddr: 0xB498, symBinAddr: 0x10001E8E8, symSize: 0xA8 }
  - { offsetInCU: 0x13EE9, offset: 0x4FC48, size: 0x8, addend: 0x0, symName: __ZN5boost6detail7variant15direct_assignerIfEC1ERKf, symObjAddr: 0xB540, symBinAddr: 0x10001E990, symSize: 0x34 }
  - { offsetInCU: 0x13F9A, offset: 0x4FCF9, size: 0x8, addend: 0x0, symName: __ZNR5boost7variantIiJfbEE13apply_visitorINS_6detail7variant15direct_assignerIfEEEENT_11result_typeERS7_, symObjAddr: 0xB574, symBinAddr: 0x10001E9C4, symSize: 0x468 }
  - { offsetInCU: 0x1409D, offset: 0x4FDFC, size: 0x8, addend: 0x0, symName: __ZN5boost7variantIiJfbEEC1IfEERKT_NS_9enable_ifINS_3mpl3or_INS7_4and_INS7_4not_INS_7is_sameIS3_S1_EEEENS_6detail7variant29is_variant_constructible_fromIS5_NS7_6l_itemIN4mpl_5long_ILl3EEEiNSH_INSJ_ILl2EEEfNSH_INSJ_ILl1EEEbNS7_5l_endEEEEEEEEENSI_5bool_ILb1EEEST_ST_EENSB_IS3_NS_18recursive_variant_EEENSS_ILb0EEESX_SX_EEbE4typeE, symObjAddr: 0xBA2C, symBinAddr: 0x10001EE7C, symSize: 0x48 }
  - { offsetInCU: 0x141DC, offset: 0x4FF3B, size: 0x8, addend: 0x0, symName: __ZN5boost7variantIiJfbEE14variant_assignEOS1_, symObjAddr: 0xBA74, symBinAddr: 0x10001EEC4, symSize: 0x6E4 }
  - { offsetInCU: 0x143C0, offset: 0x5011F, size: 0x8, addend: 0x0, symName: __ZN5boost6detail7variant15direct_assignerIfEC2ERKf, symObjAddr: 0xC1F8, symBinAddr: 0x10001F648, symSize: 0x20 }
  - { offsetInCU: 0x143F7, offset: 0x50156, size: 0x8, addend: 0x0, symName: __ZN5boost6detail7variant14invoke_visitorINS1_15direct_assignerIfEELb0EEC1ERS4_, symObjAddr: 0xC218, symBinAddr: 0x10001F668, symSize: 0x34 }
  - { offsetInCU: 0x1442E, offset: 0x5018D, size: 0x8, addend: 0x0, symName: __ZN5boost6detail7variant14invoke_visitorINS1_15direct_assignerIfEELb0EEC2ERS4_, symObjAddr: 0xC24C, symBinAddr: 0x10001F69C, symSize: 0x20 }
  - { offsetInCU: 0x14465, offset: 0x501C4, size: 0x8, addend: 0x0, symName: __ZN5boost6detail7variant14invoke_visitorINS1_15direct_assignerIfEELb0EE14internal_visitIRiEENS_12disable_if_cIXaaLb0Esr7is_sameIT_S9_EE5valueEbE4typeEOS9_i, symObjAddr: 0xC3D0, symBinAddr: 0x10001F820, symSize: 0x38 }
  - { offsetInCU: 0x144AC, offset: 0x5020B, size: 0x8, addend: 0x0, symName: __ZN5boost6detail7variant15direct_assignerIfEclIiEEbRT_, symObjAddr: 0xC408, symBinAddr: 0x10001F858, symSize: 0x1C }
  - { offsetInCU: 0x144E4, offset: 0x50243, size: 0x8, addend: 0x0, symName: __ZN5boost6detail7variant14invoke_visitorINS1_15direct_assignerIfEELb0EE14internal_visitIRfEENS_12disable_if_cIXaaLb0Esr7is_sameIT_S9_EE5valueEbE4typeEOS9_i, symObjAddr: 0xC470, symBinAddr: 0x10001F8C0, symSize: 0x38 }
  - { offsetInCU: 0x1452B, offset: 0x5028A, size: 0x8, addend: 0x0, symName: __ZN5boost6detail7variant15direct_assignerIfEclERf, symObjAddr: 0xC4A8, symBinAddr: 0x10001F8F8, symSize: 0x30 }
  - { offsetInCU: 0x1455E, offset: 0x502BD, size: 0x8, addend: 0x0, symName: __ZN5boost6detail7variant14invoke_visitorINS1_15direct_assignerIfEELb0EE14internal_visitIRbEENS_12disable_if_cIXaaLb0Esr7is_sameIT_S9_EE5valueEbE4typeEOS9_i, symObjAddr: 0xC524, symBinAddr: 0x10001F974, symSize: 0x38 }
  - { offsetInCU: 0x145A5, offset: 0x50304, size: 0x8, addend: 0x0, symName: __ZN5boost6detail7variant15direct_assignerIfEclIbEEbRT_, symObjAddr: 0xC55C, symBinAddr: 0x10001F9AC, symSize: 0x1C }
  - { offsetInCU: 0x145DD, offset: 0x5033C, size: 0x8, addend: 0x0, symName: __ZN5boost7variantIiJfbEEC2IfEERKT_NS_9enable_ifINS_3mpl3or_INS7_4and_INS7_4not_INS_7is_sameIS3_S1_EEEENS_6detail7variant29is_variant_constructible_fromIS5_NS7_6l_itemIN4mpl_5long_ILl3EEEiNSH_INSJ_ILl2EEEfNSH_INSJ_ILl1EEEbNS7_5l_endEEEEEEEEENSI_5bool_ILb1EEEST_ST_EENSB_IS3_NS_18recursive_variant_EEENSS_ILb0EEESX_SX_EEbE4typeE, symObjAddr: 0xC5A4, symBinAddr: 0x10001F9F4, symSize: 0x80 }
  - { offsetInCU: 0x14628, offset: 0x50387, size: 0x8, addend: 0x0, symName: __ZN5boost7variantIiJfbEE17convert_constructIKfEEvRT_iN4mpl_5bool_ILb0EEE, symObjAddr: 0xC624, symBinAddr: 0x10001FA74, symSize: 0x48 }
  - { offsetInCU: 0x1467F, offset: 0x503DE, size: 0x8, addend: 0x0, symName: __ZN5boost6detail7variant21make_initializer_node5applyINS_3mpl4pairINS3_INS5_INS1_16initializer_rootEN4mpl_4int_ILi0EEEEENS4_6l_iterINS4_5list3IifbEEEEE16initializer_nodeENS8_ILi1EEEEENSB_INS4_5list2IfbEEEEE16initializer_node10initializeEPvRKf, symObjAddr: 0xC66C, symBinAddr: 0x10001FABC, symSize: 0x28 }
  - { offsetInCU: 0x146AF, offset: 0x5040E, size: 0x8, addend: 0x0, symName: __ZN5boost6detail7variant12move_storageC1EPv, symObjAddr: 0xC694, symBinAddr: 0x10001FAE4, symSize: 0x34 }
  - { offsetInCU: 0x146E6, offset: 0x50445, size: 0x8, addend: 0x0, symName: __ZN5boost7variantIiJfbEE13move_assignerC1ERS1_i, symObjAddr: 0xC6C8, symBinAddr: 0x10001FB18, symSize: 0x3C }
  - { offsetInCU: 0x1472C, offset: 0x5048B, size: 0x8, addend: 0x0, symName: __ZN5boost6detail7variant12move_storageC2EPv, symObjAddr: 0xC704, symBinAddr: 0x10001FB54, symSize: 0x20 }
  - { offsetInCU: 0x1476D, offset: 0x504CC, size: 0x8, addend: 0x0, symName: __ZNK5boost6detail7variant12move_storage14internal_visitIiEEvRT_i, symObjAddr: 0xC878, symBinAddr: 0x10001FCC8, symSize: 0x2C }
  - { offsetInCU: 0x147B4, offset: 0x50513, size: 0x8, addend: 0x0, symName: __ZNK5boost6detail7variant12move_storage14internal_visitIfEEvRT_i, symObjAddr: 0xC8EC, symBinAddr: 0x10001FD3C, symSize: 0x2C }
  - { offsetInCU: 0x147FB, offset: 0x5055A, size: 0x8, addend: 0x0, symName: __ZNK5boost6detail7variant12move_storage14internal_visitIbEEvRT_i, symObjAddr: 0xC960, symBinAddr: 0x10001FDB0, symSize: 0x30 }
  - { offsetInCU: 0x14842, offset: 0x505A1, size: 0x8, addend: 0x0, symName: __ZN5boost7variantIiJfbEE13move_assignerC2ERS1_i, symObjAddr: 0xC990, symBinAddr: 0x10001FDE0, symSize: 0x3C }
  - { offsetInCU: 0x14888, offset: 0x505E7, size: 0x8, addend: 0x0, symName: __ZN5boost7variantIiJfbEE8assignerC2ERS1_i, symObjAddr: 0xC9CC, symBinAddr: 0x10001FE1C, symSize: 0x2C }
  - { offsetInCU: 0x148D8, offset: 0x50637, size: 0x8, addend: 0x0, symName: __ZNK5boost7variantIiJfbEE13move_assigner14internal_visitIiEEvRT_i, symObjAddr: 0xCB4C, symBinAddr: 0x10001FF9C, symSize: 0x48 }
  - { offsetInCU: 0x1491F, offset: 0x5067E, size: 0x8, addend: 0x0, symName: __ZNK5boost7variantIiJfbEE13move_assigner11assign_implIiN4mpl_5bool_ILb1EEENS1_18has_fallback_type_EEEvRT_T0_S6_T1_, symObjAddr: 0xCB94, symBinAddr: 0x10001FFE4, symSize: 0x6C }
  - { offsetInCU: 0x1498E, offset: 0x506ED, size: 0x8, addend: 0x0, symName: __ZNK5boost7variantIiJfbEE13move_assigner14internal_visitIfEEvRT_i, symObjAddr: 0xCC48, symBinAddr: 0x100020098, symSize: 0x48 }
  - { offsetInCU: 0x149D5, offset: 0x50734, size: 0x8, addend: 0x0, symName: __ZNK5boost7variantIiJfbEE13move_assigner11assign_implIfN4mpl_5bool_ILb1EEENS1_18has_fallback_type_EEEvRT_T0_S6_T1_, symObjAddr: 0xCC90, symBinAddr: 0x1000200E0, symSize: 0x6C }
  - { offsetInCU: 0x14A44, offset: 0x507A3, size: 0x8, addend: 0x0, symName: __ZNK5boost7variantIiJfbEE13move_assigner14internal_visitIbEEvRT_i, symObjAddr: 0xCD44, symBinAddr: 0x100020194, symSize: 0x48 }
  - { offsetInCU: 0x14A8B, offset: 0x507EA, size: 0x8, addend: 0x0, symName: __ZNK5boost7variantIiJfbEE13move_assigner11assign_implIbN4mpl_5bool_ILb1EEENS1_18has_fallback_type_EEEvRT_T0_S6_T1_, symObjAddr: 0xCD8C, symBinAddr: 0x1000201DC, symSize: 0x70 }
  - { offsetInCU: 0x14AFA, offset: 0x50859, size: 0x8, addend: 0x0, symName: __ZN5boost7variantIiJfbEE6assignIiEEvRKT_, symObjAddr: 0xCDFC, symBinAddr: 0x10002024C, symSize: 0xA8 }
  - { offsetInCU: 0x14B5A, offset: 0x508B9, size: 0x8, addend: 0x0, symName: __ZN5boost6detail7variant15direct_assignerIiEC1ERKi, symObjAddr: 0xCEA4, symBinAddr: 0x1000202F4, symSize: 0x34 }
  - { offsetInCU: 0x14C0B, offset: 0x5096A, size: 0x8, addend: 0x0, symName: __ZNR5boost7variantIiJfbEE13apply_visitorINS_6detail7variant15direct_assignerIiEEEENT_11result_typeERS7_, symObjAddr: 0xCED8, symBinAddr: 0x100020328, symSize: 0x468 }
  - { offsetInCU: 0x14D0E, offset: 0x50A6D, size: 0x8, addend: 0x0, symName: __ZN5boost7variantIiJfbEEC1IiEERKT_NS_9enable_ifINS_3mpl3or_INS7_4and_INS7_4not_INS_7is_sameIS3_S1_EEEENS_6detail7variant29is_variant_constructible_fromIS5_NS7_6l_itemIN4mpl_5long_ILl3EEEiNSH_INSJ_ILl2EEEfNSH_INSJ_ILl1EEEbNS7_5l_endEEEEEEEEENSI_5bool_ILb1EEEST_ST_EENSB_IS3_NS_18recursive_variant_EEENSS_ILb0EEESX_SX_EEbE4typeE, symObjAddr: 0xD390, symBinAddr: 0x1000207E0, symSize: 0x48 }
  - { offsetInCU: 0x14D59, offset: 0x50AB8, size: 0x8, addend: 0x0, symName: __ZN5boost6detail7variant15direct_assignerIiEC2ERKi, symObjAddr: 0xD3D8, symBinAddr: 0x100020828, symSize: 0x20 }
  - { offsetInCU: 0x14D90, offset: 0x50AEF, size: 0x8, addend: 0x0, symName: __ZN5boost6detail7variant14invoke_visitorINS1_15direct_assignerIiEELb0EEC1ERS4_, symObjAddr: 0xD3F8, symBinAddr: 0x100020848, symSize: 0x34 }
  - { offsetInCU: 0x14DC7, offset: 0x50B26, size: 0x8, addend: 0x0, symName: __ZN5boost6detail7variant14invoke_visitorINS1_15direct_assignerIiEELb0EEC2ERS4_, symObjAddr: 0xD42C, symBinAddr: 0x10002087C, symSize: 0x20 }
  - { offsetInCU: 0x14DFE, offset: 0x50B5D, size: 0x8, addend: 0x0, symName: __ZN5boost6detail7variant14invoke_visitorINS1_15direct_assignerIiEELb0EE14internal_visitIRiEENS_12disable_if_cIXaaLb0Esr7is_sameIT_S9_EE5valueEbE4typeEOS9_i, symObjAddr: 0xD5B0, symBinAddr: 0x100020A00, symSize: 0x38 }
  - { offsetInCU: 0x14E45, offset: 0x50BA4, size: 0x8, addend: 0x0, symName: __ZN5boost6detail7variant15direct_assignerIiEclERi, symObjAddr: 0xD5E8, symBinAddr: 0x100020A38, symSize: 0x30 }
  - { offsetInCU: 0x14E78, offset: 0x50BD7, size: 0x8, addend: 0x0, symName: __ZN5boost6detail7variant14invoke_visitorINS1_15direct_assignerIiEELb0EE14internal_visitIRfEENS_12disable_if_cIXaaLb0Esr7is_sameIT_S9_EE5valueEbE4typeEOS9_i, symObjAddr: 0xD664, symBinAddr: 0x100020AB4, symSize: 0x38 }
  - { offsetInCU: 0x14EBF, offset: 0x50C1E, size: 0x8, addend: 0x0, symName: __ZN5boost6detail7variant15direct_assignerIiEclIfEEbRT_, symObjAddr: 0xD69C, symBinAddr: 0x100020AEC, symSize: 0x1C }
  - { offsetInCU: 0x14EF7, offset: 0x50C56, size: 0x8, addend: 0x0, symName: __ZN5boost6detail7variant14invoke_visitorINS1_15direct_assignerIiEELb0EE14internal_visitIRbEENS_12disable_if_cIXaaLb0Esr7is_sameIT_S9_EE5valueEbE4typeEOS9_i, symObjAddr: 0xD704, symBinAddr: 0x100020B54, symSize: 0x38 }
  - { offsetInCU: 0x14F3E, offset: 0x50C9D, size: 0x8, addend: 0x0, symName: __ZN5boost6detail7variant15direct_assignerIiEclIbEEbRT_, symObjAddr: 0xD73C, symBinAddr: 0x100020B8C, symSize: 0x1C }
  - { offsetInCU: 0x14F76, offset: 0x50CD5, size: 0x8, addend: 0x0, symName: __ZN5boost7variantIiJfbEEC2IiEERKT_NS_9enable_ifINS_3mpl3or_INS7_4and_INS7_4not_INS_7is_sameIS3_S1_EEEENS_6detail7variant29is_variant_constructible_fromIS5_NS7_6l_itemIN4mpl_5long_ILl3EEEiNSH_INSJ_ILl2EEEfNSH_INSJ_ILl1EEEbNS7_5l_endEEEEEEEEENSI_5bool_ILb1EEEST_ST_EENSB_IS3_NS_18recursive_variant_EEENSS_ILb0EEESX_SX_EEbE4typeE, symObjAddr: 0xD758, symBinAddr: 0x100020BA8, symSize: 0x80 }
  - { offsetInCU: 0x14FC1, offset: 0x50D20, size: 0x8, addend: 0x0, symName: __ZN5boost7variantIiJfbEE17convert_constructIKiEEvRT_iN4mpl_5bool_ILb0EEE, symObjAddr: 0xD7D8, symBinAddr: 0x100020C28, symSize: 0x48 }
  - { offsetInCU: 0x15013, offset: 0x50D72, size: 0x8, addend: 0x0, symName: __ZN5boost6detail7variant21make_initializer_node5applyINS_3mpl4pairINS1_16initializer_rootEN4mpl_4int_ILi0EEEEENS4_6l_iterINS4_5list3IifbEEEEE16initializer_node10initializeEPvRKi, symObjAddr: 0xD820, symBinAddr: 0x100020C70, symSize: 0x28 }
  - { offsetInCU: 0x15043, offset: 0x50DA2, size: 0x8, addend: 0x0, symName: __ZN5boost7variantIiJfbEE11move_assignIbEEvOT_, symObjAddr: 0xD848, symBinAddr: 0x100020C98, symSize: 0xA8 }
  - { offsetInCU: 0x150A3, offset: 0x50E02, size: 0x8, addend: 0x0, symName: __ZN5boost6detail7variant12direct_moverIbEC1ERb, symObjAddr: 0xD8F0, symBinAddr: 0x100020D40, symSize: 0x34 }
  - { offsetInCU: 0x15154, offset: 0x50EB3, size: 0x8, addend: 0x0, symName: __ZNR5boost7variantIiJfbEE13apply_visitorINS_6detail7variant12direct_moverIbEEEENT_11result_typeERS7_, symObjAddr: 0xD924, symBinAddr: 0x100020D74, symSize: 0x468 }
  - { offsetInCU: 0x15257, offset: 0x50FB6, size: 0x8, addend: 0x0, symName: __ZN5boost7variantIiJfbEEC1IbEEOT_NS_9enable_ifINS_3mpl3or_INS6_4and_INS_19is_rvalue_referenceIS4_EENS6_4not_INS_8is_constIS3_EEEENSB_INS_7is_sameIS3_S1_EEEENS_6detail7variant29is_variant_constructible_fromIS4_NS6_6l_itemIN4mpl_5long_ILl3EEEiNSL_INSN_ILl2EEEfNSL_INSN_ILl1EEEbNS6_5l_endEEEEEEEEENSM_5bool_ILb1EEEEENSF_IS3_NS_18recursive_variant_EEENSW_ILb0EEES11_S11_EEbE4typeE, symObjAddr: 0xDDDC, symBinAddr: 0x10002122C, symSize: 0x48 }
  - { offsetInCU: 0x152A2, offset: 0x51001, size: 0x8, addend: 0x0, symName: __ZN5boost6detail7variant12direct_moverIbEC2ERb, symObjAddr: 0xDE24, symBinAddr: 0x100021274, symSize: 0x20 }
  - { offsetInCU: 0x152D9, offset: 0x51038, size: 0x8, addend: 0x0, symName: __ZN5boost6detail7variant14invoke_visitorINS1_12direct_moverIbEELb0EEC1ERS4_, symObjAddr: 0xDE44, symBinAddr: 0x100021294, symSize: 0x34 }
  - { offsetInCU: 0x15310, offset: 0x5106F, size: 0x8, addend: 0x0, symName: __ZN5boost6detail7variant14invoke_visitorINS1_12direct_moverIbEELb0EEC2ERS4_, symObjAddr: 0xDE78, symBinAddr: 0x1000212C8, symSize: 0x20 }
  - { offsetInCU: 0x15347, offset: 0x510A6, size: 0x8, addend: 0x0, symName: __ZN5boost6detail7variant14invoke_visitorINS1_12direct_moverIbEELb0EE14internal_visitIRiEENS_12disable_if_cIXaaLb0Esr7is_sameIT_S9_EE5valueEbE4typeEOS9_i, symObjAddr: 0xDFFC, symBinAddr: 0x10002144C, symSize: 0x38 }
  - { offsetInCU: 0x1538E, offset: 0x510ED, size: 0x8, addend: 0x0, symName: __ZN5boost6detail7variant12direct_moverIbEclIiEEbRT_, symObjAddr: 0xE034, symBinAddr: 0x100021484, symSize: 0x1C }
  - { offsetInCU: 0x153C6, offset: 0x51125, size: 0x8, addend: 0x0, symName: __ZN5boost6detail7variant14invoke_visitorINS1_12direct_moverIbEELb0EE14internal_visitIRfEENS_12disable_if_cIXaaLb0Esr7is_sameIT_S9_EE5valueEbE4typeEOS9_i, symObjAddr: 0xE09C, symBinAddr: 0x1000214EC, symSize: 0x38 }
  - { offsetInCU: 0x1540D, offset: 0x5116C, size: 0x8, addend: 0x0, symName: __ZN5boost6detail7variant12direct_moverIbEclIfEEbRT_, symObjAddr: 0xE0D4, symBinAddr: 0x100021524, symSize: 0x1C }
  - { offsetInCU: 0x15445, offset: 0x511A4, size: 0x8, addend: 0x0, symName: __ZN5boost6detail7variant14invoke_visitorINS1_12direct_moverIbEELb0EE14internal_visitIRbEENS_12disable_if_cIXaaLb0Esr7is_sameIT_S9_EE5valueEbE4typeEOS9_i, symObjAddr: 0xE13C, symBinAddr: 0x10002158C, symSize: 0x38 }
  - { offsetInCU: 0x1548C, offset: 0x511EB, size: 0x8, addend: 0x0, symName: __ZN5boost6detail7variant12direct_moverIbEclERb, symObjAddr: 0xE174, symBinAddr: 0x1000215C4, symSize: 0x34 }
  - { offsetInCU: 0x154BF, offset: 0x5121E, size: 0x8, addend: 0x0, symName: __ZN5boost7variantIiJfbEEC2IbEEOT_NS_9enable_ifINS_3mpl3or_INS6_4and_INS_19is_rvalue_referenceIS4_EENS6_4not_INS_8is_constIS3_EEEENSB_INS_7is_sameIS3_S1_EEEENS_6detail7variant29is_variant_constructible_fromIS4_NS6_6l_itemIN4mpl_5long_ILl3EEEiNSL_INSN_ILl2EEEfNSL_INSN_ILl1EEEbNS6_5l_endEEEEEEEEENSM_5bool_ILb1EEEEENSF_IS3_NS_18recursive_variant_EEENSW_ILb0EEES11_S11_EEbE4typeE, symObjAddr: 0xE1A8, symBinAddr: 0x1000215F8, symSize: 0x80 }
  - { offsetInCU: 0x1550A, offset: 0x51269, size: 0x8, addend: 0x0, symName: __ZN5boost7variantIiJfbEE17convert_constructIbEENS_9enable_ifINS_19is_rvalue_referenceIOT_EEvE4typeES6_iN4mpl_5bool_ILb0EEE, symObjAddr: 0xE228, symBinAddr: 0x100021678, symSize: 0x48 }
  - { offsetInCU: 0x15561, offset: 0x512C0, size: 0x8, addend: 0x0, symName: __ZN5boost6detail7variant21make_initializer_node5applyINS_3mpl4pairINS3_INS5_INS3_INS5_INS1_16initializer_rootEN4mpl_4int_ILi0EEEEENS4_6l_iterINS4_5list3IifbEEEEE16initializer_nodeENS8_ILi1EEEEENSB_INS4_5list2IfbEEEEE16initializer_nodeENS8_ILi2EEEEENSB_INS4_5list1IbEEEEE16initializer_node10initializeEPvOb, symObjAddr: 0xE270, symBinAddr: 0x1000216C0, symSize: 0x2C }
  - { offsetInCU: 0x23A, offset: 0x515DA, size: 0x8, addend: 0x0, symName: __ZN4Zoso18coco_string_createEPKw, symObjAddr: 0x0, symBinAddr: 0x1000216EC, symSize: 0x28 }
  - { offsetInCU: 0x267, offset: 0x51607, size: 0x8, addend: 0x0, symName: __ZN4Zoso18coco_string_createEPKwi, symObjAddr: 0x28, symBinAddr: 0x100021714, symSize: 0x70 }
  - { offsetInCU: 0x2C0, offset: 0x51660, size: 0x8, addend: 0x0, symName: __ZN4Zoso18coco_string_createEPKwii, symObjAddr: 0x98, symBinAddr: 0x100021784, symSize: 0xB0 }
  - { offsetInCU: 0x327, offset: 0x516C7, size: 0x8, addend: 0x0, symName: __ZN4Zoso24coco_string_create_upperEPKw, symObjAddr: 0x148, symBinAddr: 0x100021834, symSize: 0x16C }
  - { offsetInCU: 0x38F, offset: 0x5172F, size: 0x8, addend: 0x0, symName: __ZN4Zoso24coco_string_create_lowerEPKw, symObjAddr: 0x2B4, symBinAddr: 0x1000219A0, symSize: 0x64 }
  - { offsetInCU: 0x3CB, offset: 0x5176B, size: 0x8, addend: 0x0, symName: __ZN4Zoso24coco_string_create_lowerEPKwii, symObjAddr: 0x318, symBinAddr: 0x100021A04, symSize: 0x140 }
  - { offsetInCU: 0x45D, offset: 0x517FD, size: 0x8, addend: 0x0, symName: __ZN4Zoso25coco_string_create_appendEPKwS1_, symObjAddr: 0x458, symBinAddr: 0x100021B44, symSize: 0x128 }
  - { offsetInCU: 0x4C5, offset: 0x51865, size: 0x8, addend: 0x0, symName: __ZN4Zoso25coco_string_create_appendEPKww, symObjAddr: 0x580, symBinAddr: 0x100021C6C, symSize: 0xA0 }
  - { offsetInCU: 0x51E, offset: 0x518BE, size: 0x8, addend: 0x0, symName: __ZN4Zoso18coco_string_lengthEPKw, symObjAddr: 0x620, symBinAddr: 0x100021D0C, symSize: 0x50 }
  - { offsetInCU: 0x54B, offset: 0x518EB, size: 0x8, addend: 0x0, symName: __ZN4Zoso18coco_string_deleteERPw, symObjAddr: 0x670, symBinAddr: 0x100021D5C, symSize: 0x4C }
  - { offsetInCU: 0x574, offset: 0x51914, size: 0x8, addend: 0x0, symName: __ZN4Zoso20coco_string_endswithEPKwS1_, symObjAddr: 0x6BC, symBinAddr: 0x100021DA8, symSize: 0x9C }
  - { offsetInCU: 0x5CD, offset: 0x5196D, size: 0x8, addend: 0x0, symName: __ZN4Zoso19coco_string_indexofEPKww, symObjAddr: 0x758, symBinAddr: 0x100021E44, symSize: 0x70 }
  - { offsetInCU: 0x617, offset: 0x519B7, size: 0x8, addend: 0x0, symName: __ZN4Zoso23coco_string_lastindexofEPKww, symObjAddr: 0x7F4, symBinAddr: 0x100021EE0, symSize: 0x70 }
  - { offsetInCU: 0x661, offset: 0x51A01, size: 0x8, addend: 0x0, symName: __ZN4Zoso17coco_string_mergeERPwPKw, symObjAddr: 0x890, symBinAddr: 0x100021F7C, symSize: 0x84 }
  - { offsetInCU: 0x6A7, offset: 0x51A47, size: 0x8, addend: 0x0, symName: __ZN4Zoso17coco_string_equalEPKwS1_, symObjAddr: 0x914, symBinAddr: 0x100022000, symSize: 0x38 }
  - { offsetInCU: 0x6E2, offset: 0x51A82, size: 0x8, addend: 0x0, symName: __ZN4Zoso21coco_string_comparetoEPKwS1_, symObjAddr: 0x94C, symBinAddr: 0x100022038, symSize: 0x2C }
  - { offsetInCU: 0x71D, offset: 0x51ABD, size: 0x8, addend: 0x0, symName: __ZN4Zoso16coco_string_hashEPKw, symObjAddr: 0x978, symBinAddr: 0x100022064, symSize: 0x88 }
  - { offsetInCU: 0x758, offset: 0x51AF8, size: 0x8, addend: 0x0, symName: __ZN4Zoso18coco_string_createEPKc, symObjAddr: 0xA00, symBinAddr: 0x1000220EC, symSize: 0xE4 }
  - { offsetInCU: 0x7C0, offset: 0x51B60, size: 0x8, addend: 0x0, symName: __ZN4Zoso23coco_string_create_charEPKw, symObjAddr: 0xAE4, symBinAddr: 0x1000221D0, symSize: 0xB4 }
  - { offsetInCU: 0x828, offset: 0x51BC8, size: 0x8, addend: 0x0, symName: __ZN4Zoso18coco_string_deleteERPc, symObjAddr: 0xB98, symBinAddr: 0x100022284, symSize: 0x4C }
  - { offsetInCU: 0xD0D, offset: 0x520AD, size: 0x8, addend: 0x0, symName: __Z6wcschrB8ue170006Ua9enable_ifIXLb1EEEPKww, symObjAddr: 0x7C8, symBinAddr: 0x100021EB4, symSize: 0x2C }
  - { offsetInCU: 0xD48, offset: 0x520E8, size: 0x8, addend: 0x0, symName: __Z7wcsrchrB8ue170006Ua9enable_ifIXLb1EEEPKww, symObjAddr: 0x864, symBinAddr: 0x100021F50, symSize: 0x2C }
  - { offsetInCU: 0xD83, offset: 0x52123, size: 0x8, addend: 0x0, symName: __ZN4Zoso5TokenC2Ev, symObjAddr: 0xBE4, symBinAddr: 0x1000222D0, symSize: 0x2C }
  - { offsetInCU: 0xDAE, offset: 0x5214E, size: 0x8, addend: 0x0, symName: __ZN4Zoso5TokenC1Ev, symObjAddr: 0xC10, symBinAddr: 0x1000222FC, symSize: 0x2C }
  - { offsetInCU: 0xDD8, offset: 0x52178, size: 0x8, addend: 0x0, symName: __ZN4Zoso5TokenD2Ev, symObjAddr: 0xC3C, symBinAddr: 0x100022328, symSize: 0x30 }
  - { offsetInCU: 0xE02, offset: 0x521A2, size: 0x8, addend: 0x0, symName: __ZN4Zoso5TokenD1Ev, symObjAddr: 0xC6C, symBinAddr: 0x100022358, symSize: 0x2C }
  - { offsetInCU: 0xE2C, offset: 0x521CC, size: 0x8, addend: 0x0, symName: __ZN4Zoso6BufferC2EP7__sFILEb, symObjAddr: 0xC98, symBinAddr: 0x100022384, symSize: 0x1E4 }
  - { offsetInCU: 0xE72, offset: 0x52212, size: 0x8, addend: 0x0, symName: __ZN4Zoso6Buffer7CanSeekEv, symObjAddr: 0xE7C, symBinAddr: 0x100022568, symSize: 0x64 }
  - { offsetInCU: 0xE9A, offset: 0x5223A, size: 0x8, addend: 0x0, symName: __ZN4Zoso6BufferC1EP7__sFILEb, symObjAddr: 0xEE0, symBinAddr: 0x1000225CC, symSize: 0x48 }
  - { offsetInCU: 0xEE0, offset: 0x52280, size: 0x8, addend: 0x0, symName: __ZN4Zoso6BufferC2EPS0_, symObjAddr: 0xF28, symBinAddr: 0x100022614, symSize: 0x9C }
  - { offsetInCU: 0xF19, offset: 0x522B9, size: 0x8, addend: 0x0, symName: __ZN4Zoso6BufferC1EPS0_, symObjAddr: 0xFC4, symBinAddr: 0x1000226B0, symSize: 0x34 }
  - { offsetInCU: 0xF51, offset: 0x522F1, size: 0x8, addend: 0x0, symName: __ZN4Zoso6BufferC2EPKhi, symObjAddr: 0xFF8, symBinAddr: 0x1000226E4, symSize: 0x98 }
  - { offsetInCU: 0xF97, offset: 0x52337, size: 0x8, addend: 0x0, symName: __ZN4Zoso6BufferC1EPKhi, symObjAddr: 0x1090, symBinAddr: 0x10002277C, symSize: 0x3C }
  - { offsetInCU: 0xFDD, offset: 0x5237D, size: 0x8, addend: 0x0, symName: __ZN4Zoso6BufferD2Ev, symObjAddr: 0x10CC, symBinAddr: 0x1000227B8, symSize: 0xA0 }
  - { offsetInCU: 0x1007, offset: 0x523A7, size: 0x8, addend: 0x0, symName: __ZN4Zoso6BufferD1Ev, symObjAddr: 0x1178, symBinAddr: 0x100022858, symSize: 0x2C }
  - { offsetInCU: 0x1031, offset: 0x523D1, size: 0x8, addend: 0x0, symName: __ZN4Zoso6BufferD0Ev, symObjAddr: 0x11A4, symBinAddr: 0x100022884, symSize: 0x30 }
  - { offsetInCU: 0x105B, offset: 0x523FB, size: 0x8, addend: 0x0, symName: __ZN4Zoso6Buffer5CloseEv, symObjAddr: 0x11D4, symBinAddr: 0x1000228B4, symSize: 0x60 }
  - { offsetInCU: 0x1083, offset: 0x52423, size: 0x8, addend: 0x0, symName: __ZN4Zoso6Buffer4ReadEv, symObjAddr: 0x1234, symBinAddr: 0x100022914, symSize: 0x144 }
  - { offsetInCU: 0x10AB, offset: 0x5244B, size: 0x8, addend: 0x0, symName: __ZN4Zoso6Buffer19ReadNextStreamChunkEv, symObjAddr: 0x1378, symBinAddr: 0x100022A58, symSize: 0x13C }
  - { offsetInCU: 0x110E, offset: 0x524AE, size: 0x8, addend: 0x0, symName: __ZN4Zoso6Buffer4PeekEv, symObjAddr: 0x14B4, symBinAddr: 0x100022B94, symSize: 0x68 }
  - { offsetInCU: 0x1154, offset: 0x524F4, size: 0x8, addend: 0x0, symName: __ZN4Zoso6Buffer9GetStringEii, symObjAddr: 0x151C, symBinAddr: 0x100022BFC, symSize: 0x134 }
  - { offsetInCU: 0x11D6, offset: 0x52576, size: 0x8, addend: 0x0, symName: __ZN4Zoso6Buffer6GetPosEv, symObjAddr: 0x1650, symBinAddr: 0x100022D30, symSize: 0x20 }
  - { offsetInCU: 0x11FE, offset: 0x5259E, size: 0x8, addend: 0x0, symName: __ZN4Zoso6Buffer6SetPosEi, symObjAddr: 0x1670, symBinAddr: 0x100022D50, symSize: 0x1E4 }
  - { offsetInCU: 0x123A, offset: 0x525DA, size: 0x8, addend: 0x0, symName: __ZN4Zoso10UTF8Buffer4ReadEv, symObjAddr: 0x1854, symBinAddr: 0x100022F34, symSize: 0x22C }
  - { offsetInCU: 0x1336, offset: 0x526D6, size: 0x8, addend: 0x0, symName: __ZN4Zoso7ScannerC2EPKhi, symObjAddr: 0x1A80, symBinAddr: 0x100023160, symSize: 0xE4 }
  - { offsetInCU: 0x137F, offset: 0x5271F, size: 0x8, addend: 0x0, symName: __ZN4Zoso11StartStatesC1Ev, symObjAddr: 0x1B64, symBinAddr: 0x100023244, symSize: 0x2C }
  - { offsetInCU: 0x13A7, offset: 0x52747, size: 0x8, addend: 0x0, symName: __ZN4Zoso10KeywordMapC1Ev, symObjAddr: 0x1B90, symBinAddr: 0x100023270, symSize: 0x2C }
  - { offsetInCU: 0x13CF, offset: 0x5276F, size: 0x8, addend: 0x0, symName: __ZN4Zoso7Scanner4InitEv, symObjAddr: 0x1BBC, symBinAddr: 0x10002329C, symSize: 0x570 }
  - { offsetInCU: 0x1439, offset: 0x527D9, size: 0x8, addend: 0x0, symName: __ZN4Zoso10KeywordMapD1Ev, symObjAddr: 0x212C, symBinAddr: 0x10002380C, symSize: 0x2C }
  - { offsetInCU: 0x1461, offset: 0x52801, size: 0x8, addend: 0x0, symName: __ZN4Zoso11StartStatesD1Ev, symObjAddr: 0x2158, symBinAddr: 0x100023838, symSize: 0x2C }
  - { offsetInCU: 0x1489, offset: 0x52829, size: 0x8, addend: 0x0, symName: __ZN4Zoso7ScannerC1EPKhi, symObjAddr: 0x2184, symBinAddr: 0x100023864, symSize: 0x3C }
  - { offsetInCU: 0x14D2, offset: 0x52872, size: 0x8, addend: 0x0, symName: __ZN4Zoso7ScannerC2EPKw, symObjAddr: 0x21C0, symBinAddr: 0x1000238A0, symSize: 0x164 }
  - { offsetInCU: 0x1530, offset: 0x528D0, size: 0x8, addend: 0x0, symName: __ZN4Zoso7ScannerC1EPKw, symObjAddr: 0x2324, symBinAddr: 0x100023A04, symSize: 0x34 }
  - { offsetInCU: 0x156A, offset: 0x5290A, size: 0x8, addend: 0x0, symName: __ZN4Zoso7ScannerC2EP7__sFILE, symObjAddr: 0x2358, symBinAddr: 0x100023A38, symSize: 0xE4 }
  - { offsetInCU: 0x15A4, offset: 0x52944, size: 0x8, addend: 0x0, symName: __ZN4Zoso7ScannerC1EP7__sFILE, symObjAddr: 0x243C, symBinAddr: 0x100023B1C, symSize: 0x34 }
  - { offsetInCU: 0x15DE, offset: 0x5297E, size: 0x8, addend: 0x0, symName: __ZN4Zoso7ScannerD2Ev, symObjAddr: 0x2470, symBinAddr: 0x100023B50, symSize: 0xF4 }
  - { offsetInCU: 0x161E, offset: 0x529BE, size: 0x8, addend: 0x0, symName: __ZN4Zoso7ScannerD1Ev, symObjAddr: 0x2564, symBinAddr: 0x100023C44, symSize: 0x2C }
  - { offsetInCU: 0x1649, offset: 0x529E9, size: 0x8, addend: 0x0, symName: __ZN4Zoso11StartStates3setEii, symObjAddr: 0x2590, symBinAddr: 0x100023C70, symSize: 0xB4 }
  - { offsetInCU: 0x16A7, offset: 0x52A47, size: 0x8, addend: 0x0, symName: __ZN4Zoso10KeywordMap3setEPKwi, symObjAddr: 0x2644, symBinAddr: 0x100023D24, symSize: 0xB8 }
  - { offsetInCU: 0x1705, offset: 0x52AA5, size: 0x8, addend: 0x0, symName: __ZN4Zoso7Scanner6NextChEv, symObjAddr: 0x26FC, symBinAddr: 0x100023DDC, symSize: 0x120 }
  - { offsetInCU: 0x172D, offset: 0x52ACD, size: 0x8, addend: 0x0, symName: __ZN4Zoso10UTF8BufferC1EPNS_6BufferE, symObjAddr: 0x281C, symBinAddr: 0x100023EFC, symSize: 0x34 }
  - { offsetInCU: 0x1763, offset: 0x52B03, size: 0x8, addend: 0x0, symName: __ZN4Zoso7Scanner11CreateTokenEv, symObjAddr: 0x2850, symBinAddr: 0x100023F30, symSize: 0x78 }
  - { offsetInCU: 0x179A, offset: 0x52B3A, size: 0x8, addend: 0x0, symName: __ZN4Zoso7Scanner5AddChEv, symObjAddr: 0x28C8, symBinAddr: 0x100023FA8, symSize: 0x108 }
  - { offsetInCU: 0x17DF, offset: 0x52B7F, size: 0x8, addend: 0x0, symName: __ZN4Zoso7Scanner8Comment0Ev, symObjAddr: 0x29D0, symBinAddr: 0x1000240B0, symSize: 0x180 }
  - { offsetInCU: 0x1852, offset: 0x52BF2, size: 0x8, addend: 0x0, symName: __ZN4Zoso7Scanner8Comment1Ev, symObjAddr: 0x2B50, symBinAddr: 0x100024230, symSize: 0x1FC }
  - { offsetInCU: 0x18C5, offset: 0x52C65, size: 0x8, addend: 0x0, symName: __ZN4Zoso7Scanner15CreateHeapBlockEv, symObjAddr: 0x2D4C, symBinAddr: 0x10002442C, symSize: 0xF0 }
  - { offsetInCU: 0x190B, offset: 0x52CAB, size: 0x8, addend: 0x0, symName: __ZN4Zoso7Scanner9AppendValEPNS_5TokenE, symObjAddr: 0x2E3C, symBinAddr: 0x10002451C, symSize: 0xE0 }
  - { offsetInCU: 0x1951, offset: 0x52CF1, size: 0x8, addend: 0x0, symName: __ZN4Zoso7Scanner9NextTokenEv, symObjAddr: 0x2F1C, symBinAddr: 0x1000245FC, symSize: 0x758 }
  - { offsetInCU: 0x1A5C, offset: 0x52DFC, size: 0x8, addend: 0x0, symName: __ZN4Zoso11StartStates5stateEi, symObjAddr: 0x36D4, symBinAddr: 0x100024DB4, symSize: 0xC4 }
  - { offsetInCU: 0x1A9D, offset: 0x52E3D, size: 0x8, addend: 0x0, symName: __ZN4Zoso7Scanner17SetScannerBehindTEv, symObjAddr: 0x3798, symBinAddr: 0x100024E78, symSize: 0xAC }
  - { offsetInCU: 0x1AE2, offset: 0x52E82, size: 0x8, addend: 0x0, symName: __ZN4Zoso10KeywordMap3getEPKwi, symObjAddr: 0x3844, symBinAddr: 0x100024F24, symSize: 0xE0 }
  - { offsetInCU: 0x1B31, offset: 0x52ED1, size: 0x8, addend: 0x0, symName: __ZN4Zoso7Scanner4ScanEv, symObjAddr: 0x3924, symBinAddr: 0x100025004, symSize: 0x84 }
  - { offsetInCU: 0x1B59, offset: 0x52EF9, size: 0x8, addend: 0x0, symName: __ZN4Zoso7Scanner4PeekEv, symObjAddr: 0x39A8, symBinAddr: 0x100025088, symSize: 0x98 }
  - { offsetInCU: 0x1B81, offset: 0x52F21, size: 0x8, addend: 0x0, symName: __ZN4Zoso7Scanner9ResetPeekEv, symObjAddr: 0x3A40, symBinAddr: 0x100025120, symSize: 0x1C }
  - { offsetInCU: 0x1BA9, offset: 0x52F49, size: 0x8, addend: 0x0, symName: __ZN4Zoso10UTF8BufferD1Ev, symObjAddr: 0x3A5C, symBinAddr: 0x10002513C, symSize: 0x2C }
  - { offsetInCU: 0x1BD3, offset: 0x52F73, size: 0x8, addend: 0x0, symName: __ZN4Zoso10UTF8BufferD0Ev, symObjAddr: 0x3A88, symBinAddr: 0x100025168, symSize: 0x30 }
  - { offsetInCU: 0x1BFD, offset: 0x52F9D, size: 0x8, addend: 0x0, symName: __Z15__libcpp_wcschrB8ue170006PKww, symObjAddr: 0x3AB8, symBinAddr: 0x100025198, symSize: 0x2C }
  - { offsetInCU: 0x1C38, offset: 0x52FD8, size: 0x8, addend: 0x0, symName: __Z16__libcpp_wcsrchrB8ue170006PKww, symObjAddr: 0x3AE4, symBinAddr: 0x1000251C4, symSize: 0x2C }
  - { offsetInCU: 0x1C73, offset: 0x53013, size: 0x8, addend: 0x0, symName: __ZN4Zoso11StartStatesC2Ev, symObjAddr: 0x3B10, symBinAddr: 0x1000251F0, symSize: 0x58 }
  - { offsetInCU: 0x1C9B, offset: 0x5303B, size: 0x8, addend: 0x0, symName: __ZN4Zoso11StartStatesD0Ev, symObjAddr: 0x3B68, symBinAddr: 0x100025248, symSize: 0x30 }
  - { offsetInCU: 0x1CC3, offset: 0x53063, size: 0x8, addend: 0x0, symName: __ZN4Zoso10KeywordMapC2Ev, symObjAddr: 0x3B98, symBinAddr: 0x100025278, symSize: 0x58 }
  - { offsetInCU: 0x1CEB, offset: 0x5308B, size: 0x8, addend: 0x0, symName: __ZN4Zoso10KeywordMapD0Ev, symObjAddr: 0x3BF0, symBinAddr: 0x1000252D0, symSize: 0x30 }
  - { offsetInCU: 0x1D13, offset: 0x530B3, size: 0x8, addend: 0x0, symName: __ZN4Zoso10KeywordMapD2Ev, symObjAddr: 0x3C20, symBinAddr: 0x100025300, symSize: 0x108 }
  - { offsetInCU: 0x1D92, offset: 0x53132, size: 0x8, addend: 0x0, symName: __ZN4Zoso11StartStatesD2Ev, symObjAddr: 0x3D28, symBinAddr: 0x100025408, symSize: 0x100 }
  - { offsetInCU: 0x1E11, offset: 0x531B1, size: 0x8, addend: 0x0, symName: __ZN4Zoso11StartStates4ElemC1Eii, symObjAddr: 0x3E28, symBinAddr: 0x100025508, symSize: 0x3C }
  - { offsetInCU: 0x1E55, offset: 0x531F5, size: 0x8, addend: 0x0, symName: __ZN4Zoso11StartStates4ElemC2Eii, symObjAddr: 0x3E64, symBinAddr: 0x100025544, symSize: 0x30 }
  - { offsetInCU: 0x1E99, offset: 0x53239, size: 0x8, addend: 0x0, symName: __ZN4Zoso10KeywordMap4ElemC1EPKwi, symObjAddr: 0x3E94, symBinAddr: 0x100025574, symSize: 0x3C }
  - { offsetInCU: 0x1EDD, offset: 0x5327D, size: 0x8, addend: 0x0, symName: __ZN4Zoso10KeywordMap4ElemC2EPKwi, symObjAddr: 0x3ED0, symBinAddr: 0x1000255B0, symSize: 0x5C }
  - { offsetInCU: 0x1F21, offset: 0x532C1, size: 0x8, addend: 0x0, symName: __ZN4Zoso10KeywordMap4ElemD1Ev, symObjAddr: 0x3F2C, symBinAddr: 0x10002560C, symSize: 0x2C }
  - { offsetInCU: 0x1F49, offset: 0x532E9, size: 0x8, addend: 0x0, symName: __ZN4Zoso10KeywordMap4ElemD0Ev, symObjAddr: 0x3F58, symBinAddr: 0x100025638, symSize: 0x30 }
  - { offsetInCU: 0x1F71, offset: 0x53311, size: 0x8, addend: 0x0, symName: __ZN4Zoso10KeywordMap4ElemD2Ev, symObjAddr: 0x3F88, symBinAddr: 0x100025668, symSize: 0x40 }
  - { offsetInCU: 0x1F99, offset: 0x53339, size: 0x8, addend: 0x0, symName: __ZN4Zoso10UTF8BufferC2EPNS_6BufferE, symObjAddr: 0x3FC8, symBinAddr: 0x1000256A8, symSize: 0x4C }
  - { offsetInCU: 0x1FCF, offset: 0x5336F, size: 0x8, addend: 0x0, symName: __ZN4Zoso10UTF8BufferD2Ev, symObjAddr: 0x4014, symBinAddr: 0x1000256F4, symSize: 0x2C }
  - { offsetInCU: 0x5C, offset: 0x53413, size: 0x8, addend: 0x0, symName: __ZNSt3__1L19piecewise_constructE, symObjAddr: 0x3644, symBinAddr: 0x10002A875, symSize: 0x0 }
  - { offsetInCU: 0xBABC, offset: 0x5EE73, size: 0x8, addend: 0x0, symName: __ZNSt3__14endlB8ue170006IwNS_11char_traitsIwEEEERNS_13basic_ostreamIT_T0_EES7_, symObjAddr: 0x518, symBinAddr: 0x100025BBC, symSize: 0x54 }
  - { offsetInCU: 0xBAFC, offset: 0x5EEB3, size: 0x8, addend: 0x0, symName: __ZNSt3__1ltB8ue170006IwNS_11char_traitsIwEENS_9allocatorIwEEEEbRKNS_12basic_stringIT_T0_T1_EESB_, symObjAddr: 0xD4C, symBinAddr: 0x1000262C8, symSize: 0x38 }
  - { offsetInCU: 0xBB54, offset: 0x5EF0B, size: 0x8, addend: 0x0, symName: __ZNSt3__119__constexpr_wmemcmpB8ue170006EPKwS1_m, symObjAddr: 0x115C, symBinAddr: 0x100026614, symSize: 0x34 }
  - { offsetInCU: 0xBB9D, offset: 0x5EF54, size: 0x8, addend: 0x0, symName: __ZNSt3__116forward_as_tupleB8ue170006IJNS_12basic_stringIwNS_11char_traitsIwEENS_9allocatorIwEEEEEEENS_5tupleIJDpOT_EEESA_, symObjAddr: 0x15F4, symBinAddr: 0x100026808, symSize: 0x2C }
  - { offsetInCU: 0xBBF4, offset: 0x5EFAB, size: 0x8, addend: 0x0, symName: __ZNSt3__13getB8ue170006ILm0EJONS_12basic_stringIwNS_11char_traitsIwEENS_9allocatorIwEEEEEEERNS_13tuple_elementIXT_ENS_5tupleIJDpT0_EEEE4typeERSC_, symObjAddr: 0x209C, symBinAddr: 0x10002722C, symSize: 0x24 }
  - { offsetInCU: 0xF53F, offset: 0x628F6, size: 0x8, addend: 0x0, symName: __ZN4Zoso11SymbolTableC2EPNS_6ParserE, symObjAddr: 0x0, symBinAddr: 0x100025720, symSize: 0x74 }
  - { offsetInCU: 0xF577, offset: 0x6292E, size: 0x8, addend: 0x0, symName: __ZNSt3__13mapINS_12basic_stringIwNS_11char_traitsIwEENS_9allocatorIwEEEEN4Zoso3ObjENS_4lessIS6_EENS4_INS_4pairIKS6_S8_EEEEEC1B8ue170006Ev, symObjAddr: 0x74, symBinAddr: 0x100025794, symSize: 0x2C }
  - { offsetInCU: 0xF59F, offset: 0x62956, size: 0x8, addend: 0x0, symName: __ZN4Zoso11SymbolTableC1EPNS_6ParserE, symObjAddr: 0xA0, symBinAddr: 0x1000257C0, symSize: 0x34 }
  - { offsetInCU: 0xF5D7, offset: 0x6298E, size: 0x8, addend: 0x0, symName: __ZN4Zoso11SymbolTable6NewObjEPwii, symObjAddr: 0xD4, symBinAddr: 0x1000257F4, symSize: 0x2BC }
  - { offsetInCU: 0xF637, offset: 0x629EE, size: 0x8, addend: 0x0, symName: __ZNKSt3__13mapINS_12basic_stringIwNS_11char_traitsIwEENS_9allocatorIwEEEEN4Zoso3ObjENS_4lessIS6_EENS4_INS_4pairIKS6_S8_EEEEE5countB8ue170006ERSC_, symObjAddr: 0x390, symBinAddr: 0x100025AB0, symSize: 0x2C }
  - { offsetInCU: 0xF66F, offset: 0x62A26, size: 0x8, addend: 0x0, symName: __ZNSt3__112basic_stringIwNS_11char_traitsIwEENS_9allocatorIwEEEC1B8ue170006ILi0EEEPKw, symObjAddr: 0x3BC, symBinAddr: 0x100025ADC, symSize: 0x34 }
  - { offsetInCU: 0xF6AC, offset: 0x62A63, size: 0x8, addend: 0x0, symName: __ZNSt3__13mapINS_12basic_stringIwNS_11char_traitsIwEENS_9allocatorIwEEEEN4Zoso3ObjENS_4lessIS6_EENS4_INS_4pairIKS6_S8_EEEEEixEOS6_, symObjAddr: 0x424, symBinAddr: 0x100025B10, symSize: 0x80 }
  - { offsetInCU: 0xF6E1, offset: 0x62A98, size: 0x8, addend: 0x0, symName: __ZNSt3__113basic_ostreamIwNS_11char_traitsIwEEElsB8ue170006EPFRS3_S4_E, symObjAddr: 0x4EC, symBinAddr: 0x100025B90, symSize: 0x2C }
  - { offsetInCU: 0xF713, offset: 0x62ACA, size: 0x8, addend: 0x0, symName: __ZN4Zoso11SymbolTable4FindEPw, symObjAddr: 0x56C, symBinAddr: 0x100025C10, symSize: 0x140 }
  - { offsetInCU: 0xF746, offset: 0x62AFD, size: 0x8, addend: 0x0, symName: __ZNSt3__13mapINS_12basic_stringIwNS_11char_traitsIwEENS_9allocatorIwEEEEN4Zoso3ObjENS_4lessIS6_EENS4_INS_4pairIKS6_S8_EEEEEC2B8ue170006Ev, symObjAddr: 0x6F8, symBinAddr: 0x100025D50, symSize: 0x40 }
  - { offsetInCU: 0xF76E, offset: 0x62B25, size: 0x8, addend: 0x0, symName: __ZNSt3__119__map_value_compareINS_12basic_stringIwNS_11char_traitsIwEENS_9allocatorIwEEEENS_12__value_typeIS6_N4Zoso3ObjEEENS_4lessIS6_EELb1EEC1B8ue170006ESC_, symObjAddr: 0x738, symBinAddr: 0x100025D90, symSize: 0x2C }
  - { offsetInCU: 0xF7A5, offset: 0x62B5C, size: 0x8, addend: 0x0, symName: __ZNSt3__16__treeINS_12__value_typeINS_12basic_stringIwNS_11char_traitsIwEENS_9allocatorIwEEEEN4Zoso3ObjEEENS_19__map_value_compareIS7_SA_NS_4lessIS7_EELb1EEENS5_ISA_EEEC1ERKSE_, symObjAddr: 0x764, symBinAddr: 0x100025DBC, symSize: 0x34 }
  - { offsetInCU: 0xF7DE, offset: 0x62B95, size: 0x8, addend: 0x0, symName: __ZNSt3__119__map_value_compareINS_12basic_stringIwNS_11char_traitsIwEENS_9allocatorIwEEEENS_12__value_typeIS6_N4Zoso3ObjEEENS_4lessIS6_EELb1EEC2B8ue170006ESC_, symObjAddr: 0x798, symBinAddr: 0x100025DF0, symSize: 0x14 }
  - { offsetInCU: 0xF815, offset: 0x62BCC, size: 0x8, addend: 0x0, symName: __ZNSt3__16__treeINS_12__value_typeINS_12basic_stringIwNS_11char_traitsIwEENS_9allocatorIwEEEEN4Zoso3ObjEEENS_19__map_value_compareIS7_SA_NS_4lessIS7_EELb1EEENS5_ISA_EEEC2ERKSE_, symObjAddr: 0x7AC, symBinAddr: 0x100025E04, symSize: 0x7C }
  - { offsetInCU: 0xF84E, offset: 0x62C05, size: 0x8, addend: 0x0, symName: __ZNSt3__117__compressed_pairINS_15__tree_end_nodeIPNS_16__tree_node_baseIPvEEEENS_9allocatorINS_11__tree_nodeINS_12__value_typeINS_12basic_stringIwNS_11char_traitsIwEENS7_IwEEEEN4Zoso3ObjEEES3_EEEEEC1B8ue170006ILb1EvEEv, symObjAddr: 0x828, symBinAddr: 0x100025E80, symSize: 0x2C }
  - { offsetInCU: 0xF886, offset: 0x62C3D, size: 0x8, addend: 0x0, symName: __ZNSt3__117__compressed_pairImNS_19__map_value_compareINS_12basic_stringIwNS_11char_traitsIwEENS_9allocatorIwEEEENS_12__value_typeIS7_N4Zoso3ObjEEENS_4lessIS7_EELb1EEEEC1B8ue170006IiRKSE_EEOT_OT0_, symObjAddr: 0x860, symBinAddr: 0x100025EAC, symSize: 0x3C }
  - { offsetInCU: 0xF8DC, offset: 0x62C93, size: 0x8, addend: 0x0, symName: __ZNSt3__16__treeINS_12__value_typeINS_12basic_stringIwNS_11char_traitsIwEENS_9allocatorIwEEEEN4Zoso3ObjEEENS_19__map_value_compareIS7_SA_NS_4lessIS7_EELb1EEENS5_ISA_EEE10__end_nodeB8ue170006Ev, symObjAddr: 0x89C, symBinAddr: 0x100025EE8, symSize: 0x2C }
  - { offsetInCU: 0xF900, offset: 0x62CB7, size: 0x8, addend: 0x0, symName: __ZNSt3__16__treeINS_12__value_typeINS_12basic_stringIwNS_11char_traitsIwEENS_9allocatorIwEEEEN4Zoso3ObjEEENS_19__map_value_compareIS7_SA_NS_4lessIS7_EELb1EEENS5_ISA_EEE12__begin_nodeB8ue170006Ev, symObjAddr: 0x8C8, symBinAddr: 0x100025F14, symSize: 0x14 }
  - { offsetInCU: 0xF924, offset: 0x62CDB, size: 0x8, addend: 0x0, symName: __ZNSt3__117__compressed_pairINS_15__tree_end_nodeIPNS_16__tree_node_baseIPvEEEENS_9allocatorINS_11__tree_nodeINS_12__value_typeINS_12basic_stringIwNS_11char_traitsIwEENS7_IwEEEEN4Zoso3ObjEEES3_EEEEEC2B8ue170006ILb1EvEEv, symObjAddr: 0x8DC, symBinAddr: 0x100025F28, symSize: 0x34 }
  - { offsetInCU: 0xF957, offset: 0x62D0E, size: 0x8, addend: 0x0, symName: __ZNSt3__122__compressed_pair_elemINS_9allocatorINS_11__tree_nodeINS_12__value_typeINS_12basic_stringIwNS_11char_traitsIwEENS1_IwEEEEN4Zoso3ObjEEEPvEEEELi1ELb1EEC2B8ue170006ENS_16__value_init_tagE, symObjAddr: 0x93C, symBinAddr: 0x100025F5C, symSize: 0x2C }
  - { offsetInCU: 0xF989, offset: 0x62D40, size: 0x8, addend: 0x0, symName: __ZNSt3__19allocatorINS_11__tree_nodeINS_12__value_typeINS_12basic_stringIwNS_11char_traitsIwEENS0_IwEEEEN4Zoso3ObjEEEPvEEEC2B8ue170006Ev, symObjAddr: 0x9AC, symBinAddr: 0x100025F88, symSize: 0x2C }
  - { offsetInCU: 0xF9B1, offset: 0x62D68, size: 0x8, addend: 0x0, symName: __ZNSt3__116__non_trivial_ifILb1ENS_9allocatorINS_11__tree_nodeINS_12__value_typeINS_12basic_stringIwNS_11char_traitsIwEENS1_IwEEEEN4Zoso3ObjEEEPvEEEEEC2B8ue170006Ev, symObjAddr: 0x9D8, symBinAddr: 0x100025FB4, symSize: 0x14 }
  - { offsetInCU: 0xF9D9, offset: 0x62D90, size: 0x8, addend: 0x0, symName: __ZNSt3__117__compressed_pairImNS_19__map_value_compareINS_12basic_stringIwNS_11char_traitsIwEENS_9allocatorIwEEEENS_12__value_typeIS7_N4Zoso3ObjEEENS_4lessIS7_EELb1EEEEC2B8ue170006IiRKSE_EEOT_OT0_, symObjAddr: 0x9EC, symBinAddr: 0x100025FC8, symSize: 0x44 }
  - { offsetInCU: 0xFA2F, offset: 0x62DE6, size: 0x8, addend: 0x0, symName: __ZNSt3__122__compressed_pair_elemINS_19__map_value_compareINS_12basic_stringIwNS_11char_traitsIwEENS_9allocatorIwEEEENS_12__value_typeIS7_N4Zoso3ObjEEENS_4lessIS7_EELb1EEELi1ELb1EEC2B8ue170006IRKSE_vEEOT_, symObjAddr: 0xA54, symBinAddr: 0x10002600C, symSize: 0x18 }
  - { offsetInCU: 0xFA6F, offset: 0x62E26, size: 0x8, addend: 0x0, symName: __ZNSt3__117__compressed_pairINS_15__tree_end_nodeIPNS_16__tree_node_baseIPvEEEENS_9allocatorINS_11__tree_nodeINS_12__value_typeINS_12basic_stringIwNS_11char_traitsIwEENS7_IwEEEEN4Zoso3ObjEEES3_EEEEE5firstB8ue170006Ev, symObjAddr: 0xA80, symBinAddr: 0x100026024, symSize: 0x24 }
  - { offsetInCU: 0xFA93, offset: 0x62E4A, size: 0x8, addend: 0x0, symName: __ZNKSt3__16__treeINS_12__value_typeINS_12basic_stringIwNS_11char_traitsIwEENS_9allocatorIwEEEEN4Zoso3ObjEEENS_19__map_value_compareIS7_SA_NS_4lessIS7_EELb1EEENS5_ISA_EEE14__count_uniqueIS7_EEmRKT_, symObjAddr: 0xAB8, symBinAddr: 0x100026048, symSize: 0xC8 }
  - { offsetInCU: 0xFAE0, offset: 0x62E97, size: 0x8, addend: 0x0, symName: __ZNKSt3__16__treeINS_12__value_typeINS_12basic_stringIwNS_11char_traitsIwEENS_9allocatorIwEEEEN4Zoso3ObjEEENS_19__map_value_compareIS7_SA_NS_4lessIS7_EELb1EEENS5_ISA_EEE6__rootB8ue170006Ev, symObjAddr: 0xB80, symBinAddr: 0x100026110, symSize: 0x28 }
  - { offsetInCU: 0xFB04, offset: 0x62EBB, size: 0x8, addend: 0x0, symName: __ZNKSt3__16__treeINS_12__value_typeINS_12basic_stringIwNS_11char_traitsIwEENS_9allocatorIwEEEEN4Zoso3ObjEEENS_19__map_value_compareIS7_SA_NS_4lessIS7_EELb1EEENS5_ISA_EEE10value_compB8ue170006Ev, symObjAddr: 0xBA8, symBinAddr: 0x100026138, symSize: 0x28 }
  - { offsetInCU: 0xFB28, offset: 0x62EDF, size: 0x8, addend: 0x0, symName: __ZNKSt3__119__map_value_compareINS_12basic_stringIwNS_11char_traitsIwEENS_9allocatorIwEEEENS_12__value_typeIS6_N4Zoso3ObjEEENS_4lessIS6_EELb1EEclB8ue170006ERKS6_RKSA_, symObjAddr: 0xBD0, symBinAddr: 0x100026160, symSize: 0x50 }
  - { offsetInCU: 0xFB6A, offset: 0x62F21, size: 0x8, addend: 0x0, symName: __ZNKSt3__119__map_value_compareINS_12basic_stringIwNS_11char_traitsIwEENS_9allocatorIwEEEENS_12__value_typeIS6_N4Zoso3ObjEEENS_4lessIS6_EELb1EEclB8ue170006ERKSA_RKS6_, symObjAddr: 0xC20, symBinAddr: 0x1000261B0, symSize: 0x48 }
  - { offsetInCU: 0xFBAC, offset: 0x62F63, size: 0x8, addend: 0x0, symName: __ZNKSt3__16__treeINS_12__value_typeINS_12basic_stringIwNS_11char_traitsIwEENS_9allocatorIwEEEEN4Zoso3ObjEEENS_19__map_value_compareIS7_SA_NS_4lessIS7_EELb1EEENS5_ISA_EEE10__end_nodeB8ue170006Ev, symObjAddr: 0xC68, symBinAddr: 0x1000261F8, symSize: 0x2C }
  - { offsetInCU: 0xFBD0, offset: 0x62F87, size: 0x8, addend: 0x0, symName: __ZNKSt3__117__compressed_pairINS_15__tree_end_nodeIPNS_16__tree_node_baseIPvEEEENS_9allocatorINS_11__tree_nodeINS_12__value_typeINS_12basic_stringIwNS_11char_traitsIwEENS7_IwEEEEN4Zoso3ObjEEES3_EEEEE5firstB8ue170006Ev, symObjAddr: 0xC94, symBinAddr: 0x100026224, symSize: 0x24 }
  - { offsetInCU: 0xFBF4, offset: 0x62FAB, size: 0x8, addend: 0x0, symName: __ZNKSt3__117__compressed_pairImNS_19__map_value_compareINS_12basic_stringIwNS_11char_traitsIwEENS_9allocatorIwEEEENS_12__value_typeIS7_N4Zoso3ObjEEENS_4lessIS7_EELb1EEEE6secondB8ue170006Ev, symObjAddr: 0xCCC, symBinAddr: 0x100026248, symSize: 0x24 }
  - { offsetInCU: 0xFC18, offset: 0x62FCF, size: 0x8, addend: 0x0, symName: __ZNKSt3__122__compressed_pair_elemINS_19__map_value_compareINS_12basic_stringIwNS_11char_traitsIwEENS_9allocatorIwEEEENS_12__value_typeIS7_N4Zoso3ObjEEENS_4lessIS7_EELb1EEELi1ELb1EE5__getB8ue170006Ev, symObjAddr: 0xCF0, symBinAddr: 0x10002626C, symSize: 0x14 }
  - { offsetInCU: 0xFC3C, offset: 0x62FF3, size: 0x8, addend: 0x0, symName: __ZNKSt3__14lessINS_12basic_stringIwNS_11char_traitsIwEENS_9allocatorIwEEEEEclB8ue170006ERKS6_S9_, symObjAddr: 0xD04, symBinAddr: 0x100026280, symSize: 0x34 }
  - { offsetInCU: 0xFC7E, offset: 0x63035, size: 0x8, addend: 0x0, symName: __ZNKSt3__112__value_typeINS_12basic_stringIwNS_11char_traitsIwEENS_9allocatorIwEEEEN4Zoso3ObjEE11__get_valueB8ue170006Ev, symObjAddr: 0xD38, symBinAddr: 0x1000262B4, symSize: 0x14 }
  - { offsetInCU: 0xFCA2, offset: 0x63059, size: 0x8, addend: 0x0, symName: __ZNKSt3__112basic_stringIwNS_11char_traitsIwEENS_9allocatorIwEEE7compareB8ue170006ERKS5_, symObjAddr: 0xD84, symBinAddr: 0x100026300, symSize: 0x4C }
  - { offsetInCU: 0xFCD7, offset: 0x6308E, size: 0x8, addend: 0x0, symName: __ZNKSt3__112basic_stringIwNS_11char_traitsIwEENS_9allocatorIwEEE7compareINS_17basic_string_viewIwS2_EELi0EEEiRKT_, symObjAddr: 0xDD0, symBinAddr: 0x10002634C, symSize: 0x12C }
  - { offsetInCU: 0xFD58, offset: 0x6310F, size: 0x8, addend: 0x0, symName: __ZNKSt3__112basic_stringIwNS_11char_traitsIwEENS_9allocatorIwEEEcvNS_17basic_string_viewIwS2_EEB8ue170006Ev, symObjAddr: 0xEFC, symBinAddr: 0x100026478, symSize: 0x50 }
  - { offsetInCU: 0xFD7C, offset: 0x63133, size: 0x8, addend: 0x0, symName: __ZNKSt3__112basic_stringIwNS_11char_traitsIwEENS_9allocatorIwEEE4sizeB8ue170006Ev, symObjAddr: 0xF4C, symBinAddr: 0x1000264C8, symSize: 0x54 }
  - { offsetInCU: 0xFDA0, offset: 0x63157, size: 0x8, addend: 0x0, symName: __ZNKSt3__117basic_string_viewIwNS_11char_traitsIwEEE4sizeB8ue170006Ev, symObjAddr: 0xFA0, symBinAddr: 0x10002651C, symSize: 0x18 }
  - { offsetInCU: 0xFDC4, offset: 0x6317B, size: 0x8, addend: 0x0, symName: __ZNSt3__111char_traitsIwE7compareB8ue170006EPKwS3_m, symObjAddr: 0xFB8, symBinAddr: 0x100026534, symSize: 0x6C }
  - { offsetInCU: 0xFE05, offset: 0x631BC, size: 0x8, addend: 0x0, symName: __ZNKSt3__117basic_string_viewIwNS_11char_traitsIwEEE4dataB8ue170006Ev, symObjAddr: 0x104C, symBinAddr: 0x1000265A0, symSize: 0x18 }
  - { offsetInCU: 0xFE29, offset: 0x631E0, size: 0x8, addend: 0x0, symName: __ZNKSt3__112basic_stringIwNS_11char_traitsIwEENS_9allocatorIwEEE15__get_long_sizeB8ue170006Ev, symObjAddr: 0x10C8, symBinAddr: 0x1000265B8, symSize: 0x28 }
  - { offsetInCU: 0xFE4D, offset: 0x63204, size: 0x8, addend: 0x0, symName: __ZNKSt3__112basic_stringIwNS_11char_traitsIwEENS_9allocatorIwEEE16__get_short_sizeB8ue170006Ev, symObjAddr: 0x10F0, symBinAddr: 0x1000265E0, symSize: 0x34 }
  - { offsetInCU: 0xFE71, offset: 0x63228, size: 0x8, addend: 0x0, symName: __ZNSt3__117basic_string_viewIwNS_11char_traitsIwEEEC1B8ue170006EPKwm, symObjAddr: 0x12E4, symBinAddr: 0x100026648, symSize: 0x3C }
  - { offsetInCU: 0xFEB7, offset: 0x6326E, size: 0x8, addend: 0x0, symName: __ZNSt3__117basic_string_viewIwNS_11char_traitsIwEEEC2B8ue170006EPKwm, symObjAddr: 0x1320, symBinAddr: 0x100026684, symSize: 0x2C }
  - { offsetInCU: 0xFEFD, offset: 0x632B4, size: 0x8, addend: 0x0, symName: __ZNSt3__112basic_stringIwNS_11char_traitsIwEENS_9allocatorIwEEEC2B8ue170006ILi0EEEPKw, symObjAddr: 0x134C, symBinAddr: 0x1000266B0, symSize: 0x58 }
  - { offsetInCU: 0xFF49, offset: 0x63300, size: 0x8, addend: 0x0, symName: __ZNSt3__16__treeINS_12__value_typeINS_12basic_stringIwNS_11char_traitsIwEENS_9allocatorIwEEEEN4Zoso3ObjEEENS_19__map_value_compareIS7_SA_NS_4lessIS7_EELb1EEENS5_ISA_EEE25__emplace_unique_key_argsIS7_JRKNS_21piecewise_construct_tENS_5tupleIJOS7_EEENSL_IJEEEEEENS_4pairINS_15__tree_iteratorISA_PNS_11__tree_nodeISA_PvEElEEbEERKT_DpOT0_, symObjAddr: 0x14F4, symBinAddr: 0x100026708, symSize: 0x100 }
  - { offsetInCU: 0x1001D, offset: 0x633D4, size: 0x8, addend: 0x0, symName: __ZNKSt3__115__tree_iteratorINS_12__value_typeINS_12basic_stringIwNS_11char_traitsIwEENS_9allocatorIwEEEEN4Zoso3ObjEEEPNS_11__tree_nodeISA_PvEElEptB8ue170006Ev, symObjAddr: 0x1624, symBinAddr: 0x100026834, symSize: 0x2C }
  - { offsetInCU: 0x10041, offset: 0x633F8, size: 0x8, addend: 0x0, symName: __ZNSt3__112__value_typeINS_12basic_stringIwNS_11char_traitsIwEENS_9allocatorIwEEEEN4Zoso3ObjEE11__get_valueB8ue170006Ev, symObjAddr: 0x1650, symBinAddr: 0x100026860, symSize: 0x14 }
  - { offsetInCU: 0x10065, offset: 0x6341C, size: 0x8, addend: 0x0, symName: __ZNSt3__16__treeINS_12__value_typeINS_12basic_stringIwNS_11char_traitsIwEENS_9allocatorIwEEEEN4Zoso3ObjEEENS_19__map_value_compareIS7_SA_NS_4lessIS7_EELb1EEENS5_ISA_EEE12__find_equalIS7_EERPNS_16__tree_node_baseIPvEERPNS_15__tree_end_nodeISL_EERKT_, symObjAddr: 0x1664, symBinAddr: 0x100026874, symSize: 0x184 }
  - { offsetInCU: 0x100D0, offset: 0x63487, size: 0x8, addend: 0x0, symName: __ZNSt3__16__treeINS_12__value_typeINS_12basic_stringIwNS_11char_traitsIwEENS_9allocatorIwEEEEN4Zoso3ObjEEENS_19__map_value_compareIS7_SA_NS_4lessIS7_EELb1EEENS5_ISA_EEE16__construct_nodeIJRKNS_21piecewise_construct_tENS_5tupleIJOS7_EEENSL_IJEEEEEENS_10unique_ptrINS_11__tree_nodeISA_PvEENS_22__tree_node_destructorINS5_ISS_EEEEEEDpOT_, symObjAddr: 0x17E8, symBinAddr: 0x1000269F8, symSize: 0x120 }
  - { offsetInCU: 0x10157, offset: 0x6350E, size: 0x8, addend: 0x0, symName: __ZNSt3__16__treeINS_12__value_typeINS_12basic_stringIwNS_11char_traitsIwEENS_9allocatorIwEEEEN4Zoso3ObjEEENS_19__map_value_compareIS7_SA_NS_4lessIS7_EELb1EEENS5_ISA_EEE16__insert_node_atEPNS_15__tree_end_nodeIPNS_16__tree_node_baseIPvEEEERSL_SL_, symObjAddr: 0x1908, symBinAddr: 0x100026B18, symSize: 0xCC }
  - { offsetInCU: 0x101AA, offset: 0x63561, size: 0x8, addend: 0x0, symName: __ZNKSt3__110unique_ptrINS_11__tree_nodeINS_12__value_typeINS_12basic_stringIwNS_11char_traitsIwEENS_9allocatorIwEEEEN4Zoso3ObjEEEPvEENS_22__tree_node_destructorINS6_ISD_EEEEE3getB8ue170006Ev, symObjAddr: 0x19D4, symBinAddr: 0x100026BE4, symSize: 0x28 }
  - { offsetInCU: 0x101CE, offset: 0x63585, size: 0x8, addend: 0x0, symName: __ZNSt3__110unique_ptrINS_11__tree_nodeINS_12__value_typeINS_12basic_stringIwNS_11char_traitsIwEENS_9allocatorIwEEEEN4Zoso3ObjEEEPvEENS_22__tree_node_destructorINS6_ISD_EEEEE7releaseB8ue170006Ev, symObjAddr: 0x19FC, symBinAddr: 0x100026C0C, symSize: 0x44 }
  - { offsetInCU: 0x10201, offset: 0x635B8, size: 0x8, addend: 0x0, symName: __ZNSt3__110unique_ptrINS_11__tree_nodeINS_12__value_typeINS_12basic_stringIwNS_11char_traitsIwEENS_9allocatorIwEEEEN4Zoso3ObjEEEPvEENS_22__tree_node_destructorINS6_ISD_EEEEED1B8ue170006Ev, symObjAddr: 0x1A40, symBinAddr: 0x100026C50, symSize: 0x2C }
  - { offsetInCU: 0x10229, offset: 0x635E0, size: 0x8, addend: 0x0, symName: __ZNSt3__115__tree_iteratorINS_12__value_typeINS_12basic_stringIwNS_11char_traitsIwEENS_9allocatorIwEEEEN4Zoso3ObjEEEPNS_11__tree_nodeISA_PvEElEC1B8ue170006ESE_, symObjAddr: 0x1A6C, symBinAddr: 0x100026C7C, symSize: 0x34 }
  - { offsetInCU: 0x1026A, offset: 0x63621, size: 0x8, addend: 0x0, symName: __ZNSt3__14pairINS_15__tree_iteratorINS_12__value_typeINS_12basic_stringIwNS_11char_traitsIwEENS_9allocatorIwEEEEN4Zoso3ObjEEEPNS_11__tree_nodeISB_PvEElEEbEC1B8ue170006ISG_RbLSD_0EEEOT_OT0_, symObjAddr: 0x1AA0, symBinAddr: 0x100026CB0, symSize: 0x3C }
  - { offsetInCU: 0x102C6, offset: 0x6367D, size: 0x8, addend: 0x0, symName: __ZNKSt3__16__treeINS_12__value_typeINS_12basic_stringIwNS_11char_traitsIwEENS_9allocatorIwEEEEN4Zoso3ObjEEENS_19__map_value_compareIS7_SA_NS_4lessIS7_EELb1EEENS5_ISA_EEE10__root_ptrB8ue170006Ev, symObjAddr: 0x1ADC, symBinAddr: 0x100026CEC, symSize: 0x24 }
  - { offsetInCU: 0x102EA, offset: 0x636A1, size: 0x8, addend: 0x0, symName: __ZNSt3__16__treeINS_12__value_typeINS_12basic_stringIwNS_11char_traitsIwEENS_9allocatorIwEEEEN4Zoso3ObjEEENS_19__map_value_compareIS7_SA_NS_4lessIS7_EELb1EEENS5_ISA_EEE10value_compB8ue170006Ev, symObjAddr: 0x1B00, symBinAddr: 0x100026D10, symSize: 0x28 }
  - { offsetInCU: 0x1030E, offset: 0x636C5, size: 0x8, addend: 0x0, symName: __ZNSt3__117__compressed_pairImNS_19__map_value_compareINS_12basic_stringIwNS_11char_traitsIwEENS_9allocatorIwEEEENS_12__value_typeIS7_N4Zoso3ObjEEENS_4lessIS7_EELb1EEEE6secondB8ue170006Ev, symObjAddr: 0x1B28, symBinAddr: 0x100026D38, symSize: 0x24 }
  - { offsetInCU: 0x10332, offset: 0x636E9, size: 0x8, addend: 0x0, symName: __ZNSt3__122__compressed_pair_elemINS_19__map_value_compareINS_12basic_stringIwNS_11char_traitsIwEENS_9allocatorIwEEEENS_12__value_typeIS7_N4Zoso3ObjEEENS_4lessIS7_EELb1EEELi1ELb1EE5__getB8ue170006Ev, symObjAddr: 0x1B4C, symBinAddr: 0x100026D5C, symSize: 0x14 }
  - { offsetInCU: 0x10356, offset: 0x6370D, size: 0x8, addend: 0x0, symName: __ZNSt3__16__treeINS_12__value_typeINS_12basic_stringIwNS_11char_traitsIwEENS_9allocatorIwEEEEN4Zoso3ObjEEENS_19__map_value_compareIS7_SA_NS_4lessIS7_EELb1EEENS5_ISA_EEE12__node_allocB8ue170006Ev, symObjAddr: 0x1B60, symBinAddr: 0x100026D70, symSize: 0x28 }
  - { offsetInCU: 0x1037A, offset: 0x63731, size: 0x8, addend: 0x0, symName: __ZNSt3__116allocator_traitsINS_9allocatorINS_11__tree_nodeINS_12__value_typeINS_12basic_stringIwNS_11char_traitsIwEENS1_IwEEEEN4Zoso3ObjEEEPvEEEEE8allocateB8ue170006ERSE_m, symObjAddr: 0x1B88, symBinAddr: 0x100026D98, symSize: 0x2C }
  - { offsetInCU: 0x103AC, offset: 0x63763, size: 0x8, addend: 0x0, symName: __ZNSt3__122__tree_node_destructorINS_9allocatorINS_11__tree_nodeINS_12__value_typeINS_12basic_stringIwNS_11char_traitsIwEENS1_IwEEEEN4Zoso3ObjEEEPvEEEEEC1B8ue170006ERSE_b, symObjAddr: 0x1BB4, symBinAddr: 0x100026DC4, symSize: 0x48 }
  - { offsetInCU: 0x103F7, offset: 0x637AE, size: 0x8, addend: 0x0, symName: __ZNSt3__110unique_ptrINS_11__tree_nodeINS_12__value_typeINS_12basic_stringIwNS_11char_traitsIwEENS_9allocatorIwEEEEN4Zoso3ObjEEEPvEENS_22__tree_node_destructorINS6_ISD_EEEEEC1B8ue170006ILb1EvEEPSD_NS_16__dependent_typeINS_27__unique_ptr_deleter_sfinaeISG_EEXT_EE20__good_rval_ref_typeE, symObjAddr: 0x1BFC, symBinAddr: 0x100026E0C, symSize: 0x3C }
  - { offsetInCU: 0x10446, offset: 0x637FD, size: 0x8, addend: 0x0, symName: __ZNSt3__116allocator_traitsINS_9allocatorINS_11__tree_nodeINS_12__value_typeINS_12basic_stringIwNS_11char_traitsIwEENS1_IwEEEEN4Zoso3ObjEEEPvEEEEE9constructB8ue170006INS_4pairIKS8_SA_EEJRKNS_21piecewise_construct_tENS_5tupleIJOS8_EEENSN_IJEEEEvEEvRSE_PT_DpOT0_, symObjAddr: 0x1C38, symBinAddr: 0x100026E48, symSize: 0x44 }
  - { offsetInCU: 0x104C4, offset: 0x6387B, size: 0x8, addend: 0x0, symName: __ZNSt3__122__tree_key_value_typesINS_12__value_typeINS_12basic_stringIwNS_11char_traitsIwEENS_9allocatorIwEEEEN4Zoso3ObjEEEE9__get_ptrB8ue170006ERSA_, symObjAddr: 0x1C7C, symBinAddr: 0x100026E8C, symSize: 0x24 }
  - { offsetInCU: 0x104E7, offset: 0x6389E, size: 0x8, addend: 0x0, symName: __ZNKSt3__110unique_ptrINS_11__tree_nodeINS_12__value_typeINS_12basic_stringIwNS_11char_traitsIwEENS_9allocatorIwEEEEN4Zoso3ObjEEEPvEENS_22__tree_node_destructorINS6_ISD_EEEEEptB8ue170006Ev, symObjAddr: 0x1CA0, symBinAddr: 0x100026EB0, symSize: 0x28 }
  - { offsetInCU: 0x1050B, offset: 0x638C2, size: 0x8, addend: 0x0, symName: __ZNSt3__110unique_ptrINS_11__tree_nodeINS_12__value_typeINS_12basic_stringIwNS_11char_traitsIwEENS_9allocatorIwEEEEN4Zoso3ObjEEEPvEENS_22__tree_node_destructorINS6_ISD_EEEEE11get_deleterB8ue170006Ev, symObjAddr: 0x1CC8, symBinAddr: 0x100026ED8, symSize: 0x24 }
  - { offsetInCU: 0x1052F, offset: 0x638E6, size: 0x8, addend: 0x0, symName: __ZNSt3__117__compressed_pairINS_15__tree_end_nodeIPNS_16__tree_node_baseIPvEEEENS_9allocatorINS_11__tree_nodeINS_12__value_typeINS_12basic_stringIwNS_11char_traitsIwEENS7_IwEEEEN4Zoso3ObjEEES3_EEEEE6secondB8ue170006Ev, symObjAddr: 0x1CEC, symBinAddr: 0x100026EFC, symSize: 0x24 }
  - { offsetInCU: 0x10553, offset: 0x6390A, size: 0x8, addend: 0x0, symName: __ZNSt3__122__compressed_pair_elemINS_9allocatorINS_11__tree_nodeINS_12__value_typeINS_12basic_stringIwNS_11char_traitsIwEENS1_IwEEEEN4Zoso3ObjEEEPvEEEELi1ELb1EE5__getB8ue170006Ev, symObjAddr: 0x1D10, symBinAddr: 0x100026F20, symSize: 0x14 }
  - { offsetInCU: 0x10577, offset: 0x6392E, size: 0x8, addend: 0x0, symName: __ZNSt3__19allocatorINS_11__tree_nodeINS_12__value_typeINS_12basic_stringIwNS_11char_traitsIwEENS0_IwEEEEN4Zoso3ObjEEEPvEEE8allocateB8ue170006Em, symObjAddr: 0x1D24, symBinAddr: 0x100026F34, symSize: 0x5C }
  - { offsetInCU: 0x105B3, offset: 0x6396A, size: 0x8, addend: 0x0, symName: __ZNSt3__116allocator_traitsINS_9allocatorINS_11__tree_nodeINS_12__value_typeINS_12basic_stringIwNS_11char_traitsIwEENS1_IwEEEEN4Zoso3ObjEEEPvEEEEE8max_sizeB8ue170006ISE_vEEmRKSE_, symObjAddr: 0x1D80, symBinAddr: 0x100026F90, symSize: 0x24 }
  - { offsetInCU: 0x105E0, offset: 0x63997, size: 0x8, addend: 0x0, symName: __ZNKSt3__19allocatorINS_11__tree_nodeINS_12__value_typeINS_12basic_stringIwNS_11char_traitsIwEENS0_IwEEEEN4Zoso3ObjEEEPvEEE8max_sizeB8ue170006Ev, symObjAddr: 0x1E00, symBinAddr: 0x100026FB4, symSize: 0x18 }
  - { offsetInCU: 0x10604, offset: 0x639BB, size: 0x8, addend: 0x0, symName: __ZNSt3__122__tree_node_destructorINS_9allocatorINS_11__tree_nodeINS_12__value_typeINS_12basic_stringIwNS_11char_traitsIwEENS1_IwEEEEN4Zoso3ObjEEEPvEEEEEC2B8ue170006ERSE_b, symObjAddr: 0x1E3C, symBinAddr: 0x100026FCC, symSize: 0x38 }
  - { offsetInCU: 0x1064A, offset: 0x63A01, size: 0x8, addend: 0x0, symName: __ZNSt3__110unique_ptrINS_11__tree_nodeINS_12__value_typeINS_12basic_stringIwNS_11char_traitsIwEENS_9allocatorIwEEEEN4Zoso3ObjEEEPvEENS_22__tree_node_destructorINS6_ISD_EEEEEC2B8ue170006ILb1EvEEPSD_NS_16__dependent_typeINS_27__unique_ptr_deleter_sfinaeISG_EEXT_EE20__good_rval_ref_typeE, symObjAddr: 0x1E74, symBinAddr: 0x100027004, symSize: 0x48 }
  - { offsetInCU: 0x10699, offset: 0x63A50, size: 0x8, addend: 0x0, symName: __ZNSt3__117__compressed_pairIPNS_11__tree_nodeINS_12__value_typeINS_12basic_stringIwNS_11char_traitsIwEENS_9allocatorIwEEEEN4Zoso3ObjEEEPvEENS_22__tree_node_destructorINS6_ISD_EEEEEC1B8ue170006IRSE_SH_EEOT_OT0_, symObjAddr: 0x1EBC, symBinAddr: 0x10002704C, symSize: 0x3C }
  - { offsetInCU: 0x106EF, offset: 0x63AA6, size: 0x8, addend: 0x0, symName: __ZNSt3__117__compressed_pairIPNS_11__tree_nodeINS_12__value_typeINS_12basic_stringIwNS_11char_traitsIwEENS_9allocatorIwEEEEN4Zoso3ObjEEEPvEENS_22__tree_node_destructorINS6_ISD_EEEEEC2B8ue170006IRSE_SH_EEOT_OT0_, symObjAddr: 0x1EF8, symBinAddr: 0x100027088, symSize: 0x48 }
  - { offsetInCU: 0x10745, offset: 0x63AFC, size: 0x8, addend: 0x0, symName: __ZNSt3__122__compressed_pair_elemIPNS_11__tree_nodeINS_12__value_typeINS_12basic_stringIwNS_11char_traitsIwEENS_9allocatorIwEEEEN4Zoso3ObjEEEPvEELi0ELb0EEC2B8ue170006IRSE_vEEOT_, symObjAddr: 0x1F40, symBinAddr: 0x1000270D0, symSize: 0x24 }
  - { offsetInCU: 0x10785, offset: 0x63B3C, size: 0x8, addend: 0x0, symName: __ZNSt3__122__compressed_pair_elemINS_22__tree_node_destructorINS_9allocatorINS_11__tree_nodeINS_12__value_typeINS_12basic_stringIwNS_11char_traitsIwEENS2_IwEEEEN4Zoso3ObjEEEPvEEEEEELi1ELb0EEC2B8ue170006ISG_vEEOT_, symObjAddr: 0x1F64, symBinAddr: 0x1000270F4, symSize: 0x24 }
  - { offsetInCU: 0x107C5, offset: 0x63B7C, size: 0x8, addend: 0x0, symName: __ZNSt3__19allocatorINS_11__tree_nodeINS_12__value_typeINS_12basic_stringIwNS_11char_traitsIwEENS0_IwEEEEN4Zoso3ObjEEEPvEEE9constructB8ue170006INS_4pairIKS7_S9_EEJRKNS_21piecewise_construct_tENS_5tupleIJOS7_EEENSL_IJEEEEEEvPT_DpOT0_, symObjAddr: 0x1F88, symBinAddr: 0x100027118, symSize: 0x44 }
  - { offsetInCU: 0x1083F, offset: 0x63BF6, size: 0x8, addend: 0x0, symName: __ZNSt3__14pairIKNS_12basic_stringIwNS_11char_traitsIwEENS_9allocatorIwEEEEN4Zoso3ObjEEC1B8ue170006IJOS6_EJEEENS_21piecewise_construct_tENS_5tupleIJDpT_EEENSE_IJDpT0_EEE, symObjAddr: 0x1FCC, symBinAddr: 0x10002715C, symSize: 0x44 }
  - { offsetInCU: 0x108A4, offset: 0x63C5B, size: 0x8, addend: 0x0, symName: __ZNSt3__14pairIKNS_12basic_stringIwNS_11char_traitsIwEENS_9allocatorIwEEEEN4Zoso3ObjEEC1B8ue170006IJOS6_EJEJLm0EEJEEENS_21piecewise_construct_tERNS_5tupleIJDpT_EEERNSE_IJDpT0_EEENS_15__tuple_indicesIJXspT1_EEEENSN_IJXspT2_EEEE, symObjAddr: 0x2010, symBinAddr: 0x1000271A0, symSize: 0x3C }
  - { offsetInCU: 0x1092F, offset: 0x63CE6, size: 0x8, addend: 0x0, symName: __ZNSt3__14pairIKNS_12basic_stringIwNS_11char_traitsIwEENS_9allocatorIwEEEEN4Zoso3ObjEEC2B8ue170006IJOS6_EJEJLm0EEJEEENS_21piecewise_construct_tERNS_5tupleIJDpT_EEERNSE_IJDpT0_EEENS_15__tuple_indicesIJXspT1_EEEENSN_IJXspT2_EEEE, symObjAddr: 0x204C, symBinAddr: 0x1000271DC, symSize: 0x50 }
  - { offsetInCU: 0x109BA, offset: 0x63D71, size: 0x8, addend: 0x0, symName: __ZNSt3__112basic_stringIwNS_11char_traitsIwEENS_9allocatorIwEEEC1B8ue170006EOS5_, symObjAddr: 0x20C0, symBinAddr: 0x100027250, symSize: 0x34 }
  - { offsetInCU: 0x109F1, offset: 0x63DA8, size: 0x8, addend: 0x0, symName: __ZNSt3__112__tuple_leafILm0EONS_12basic_stringIwNS_11char_traitsIwEENS_9allocatorIwEEEELb0EE3getB8ue170006Ev, symObjAddr: 0x20F4, symBinAddr: 0x100027284, symSize: 0x18 }
  - { offsetInCU: 0x10A15, offset: 0x63DCC, size: 0x8, addend: 0x0, symName: __ZNSt3__112basic_stringIwNS_11char_traitsIwEENS_9allocatorIwEEEC2B8ue170006EOS5_, symObjAddr: 0x210C, symBinAddr: 0x10002729C, symSize: 0x50 }
  - { offsetInCU: 0x10A4C, offset: 0x63E03, size: 0x8, addend: 0x0, symName: __ZNSt3__112basic_stringIwNS_11char_traitsIwEENS_9allocatorIwEEE14__default_initB8ue170006Ev, symObjAddr: 0x215C, symBinAddr: 0x1000272EC, symSize: 0x40 }
  - { offsetInCU: 0x10A70, offset: 0x63E27, size: 0x8, addend: 0x0, symName: __ZNSt3__117__compressed_pairINS_12basic_stringIwNS_11char_traitsIwEENS_9allocatorIwEEE5__repES5_E5firstB8ue170006Ev, symObjAddr: 0x219C, symBinAddr: 0x10002732C, symSize: 0x24 }
  - { offsetInCU: 0x10A94, offset: 0x63E4B, size: 0x8, addend: 0x0, symName: __ZNSt3__122__compressed_pair_elemINS_12basic_stringIwNS_11char_traitsIwEENS_9allocatorIwEEE5__repELi0ELb0EE5__getB8ue170006Ev, symObjAddr: 0x21C0, symBinAddr: 0x100027350, symSize: 0x14 }
  - { offsetInCU: 0x10AB8, offset: 0x63E6F, size: 0x8, addend: 0x0, symName: __ZNKSt3__117__compressed_pairIPNS_11__tree_nodeINS_12__value_typeINS_12basic_stringIwNS_11char_traitsIwEENS_9allocatorIwEEEEN4Zoso3ObjEEEPvEENS_22__tree_node_destructorINS6_ISD_EEEEE5firstB8ue170006Ev, symObjAddr: 0x21D4, symBinAddr: 0x100027364, symSize: 0x24 }
  - { offsetInCU: 0x10ADC, offset: 0x63E93, size: 0x8, addend: 0x0, symName: __ZNKSt3__122__compressed_pair_elemIPNS_11__tree_nodeINS_12__value_typeINS_12basic_stringIwNS_11char_traitsIwEENS_9allocatorIwEEEEN4Zoso3ObjEEEPvEELi0ELb0EE5__getB8ue170006Ev, symObjAddr: 0x21F8, symBinAddr: 0x100027388, symSize: 0x14 }
  - { offsetInCU: 0x10B00, offset: 0x63EB7, size: 0x8, addend: 0x0, symName: __ZNSt3__117__compressed_pairIPNS_11__tree_nodeINS_12__value_typeINS_12basic_stringIwNS_11char_traitsIwEENS_9allocatorIwEEEEN4Zoso3ObjEEEPvEENS_22__tree_node_destructorINS6_ISD_EEEEE6secondB8ue170006Ev, symObjAddr: 0x220C, symBinAddr: 0x10002739C, symSize: 0x28 }
  - { offsetInCU: 0x10B24, offset: 0x63EDB, size: 0x8, addend: 0x0, symName: __ZNSt3__122__compressed_pair_elemINS_22__tree_node_destructorINS_9allocatorINS_11__tree_nodeINS_12__value_typeINS_12basic_stringIwNS_11char_traitsIwEENS2_IwEEEEN4Zoso3ObjEEEPvEEEEEELi1ELb0EE5__getB8ue170006Ev, symObjAddr: 0x2234, symBinAddr: 0x1000273C4, symSize: 0x14 }
  - { offsetInCU: 0x10B48, offset: 0x63EFF, size: 0x8, addend: 0x0, symName: __ZNSt3__16__treeINS_12__value_typeINS_12basic_stringIwNS_11char_traitsIwEENS_9allocatorIwEEEEN4Zoso3ObjEEENS_19__map_value_compareIS7_SA_NS_4lessIS7_EELb1EEENS5_ISA_EEE4sizeB8ue170006Ev, symObjAddr: 0x2574, symBinAddr: 0x1000273D8, symSize: 0x28 }
  - { offsetInCU: 0x10B6C, offset: 0x63F23, size: 0x8, addend: 0x0, symName: __ZNSt3__117__compressed_pairImNS_19__map_value_compareINS_12basic_stringIwNS_11char_traitsIwEENS_9allocatorIwEEEENS_12__value_typeIS7_N4Zoso3ObjEEENS_4lessIS7_EELb1EEEE5firstB8ue170006Ev, symObjAddr: 0x27A4, symBinAddr: 0x100027400, symSize: 0x24 }
  - { offsetInCU: 0x10B90, offset: 0x63F47, size: 0x8, addend: 0x0, symName: __ZNSt3__117__compressed_pairIPNS_11__tree_nodeINS_12__value_typeINS_12basic_stringIwNS_11char_traitsIwEENS_9allocatorIwEEEEN4Zoso3ObjEEEPvEENS_22__tree_node_destructorINS6_ISD_EEEEE5firstB8ue170006Ev, symObjAddr: 0x27DC, symBinAddr: 0x100027424, symSize: 0x24 }
  - { offsetInCU: 0x10BB4, offset: 0x63F6B, size: 0x8, addend: 0x0, symName: __ZNSt3__122__compressed_pair_elemIPNS_11__tree_nodeINS_12__value_typeINS_12basic_stringIwNS_11char_traitsIwEENS_9allocatorIwEEEEN4Zoso3ObjEEEPvEELi0ELb0EE5__getB8ue170006Ev, symObjAddr: 0x2800, symBinAddr: 0x100027448, symSize: 0x14 }
  - { offsetInCU: 0x10BD8, offset: 0x63F8F, size: 0x8, addend: 0x0, symName: __ZNSt3__110unique_ptrINS_11__tree_nodeINS_12__value_typeINS_12basic_stringIwNS_11char_traitsIwEENS_9allocatorIwEEEEN4Zoso3ObjEEEPvEENS_22__tree_node_destructorINS6_ISD_EEEEED2B8ue170006Ev, symObjAddr: 0x2814, symBinAddr: 0x10002745C, symSize: 0x30 }
  - { offsetInCU: 0x10C00, offset: 0x63FB7, size: 0x8, addend: 0x0, symName: __ZNSt3__110unique_ptrINS_11__tree_nodeINS_12__value_typeINS_12basic_stringIwNS_11char_traitsIwEENS_9allocatorIwEEEEN4Zoso3ObjEEEPvEENS_22__tree_node_destructorINS6_ISD_EEEEE5resetB8ue170006EPSD_, symObjAddr: 0x2844, symBinAddr: 0x10002748C, symSize: 0x78 }
  - { offsetInCU: 0x10C42, offset: 0x63FF9, size: 0x8, addend: 0x0, symName: __ZNSt3__122__tree_node_destructorINS_9allocatorINS_11__tree_nodeINS_12__value_typeINS_12basic_stringIwNS_11char_traitsIwEENS1_IwEEEEN4Zoso3ObjEEEPvEEEEEclB8ue170006EPSD_, symObjAddr: 0x28BC, symBinAddr: 0x100027504, symSize: 0x98 }
  - { offsetInCU: 0x10C75, offset: 0x6402C, size: 0x8, addend: 0x0, symName: __ZNSt3__116allocator_traitsINS_9allocatorINS_11__tree_nodeINS_12__value_typeINS_12basic_stringIwNS_11char_traitsIwEENS1_IwEEEEN4Zoso3ObjEEEPvEEEEE7destroyB8ue170006INS_4pairIKS8_SA_EEvvEEvRSE_PT_, symObjAddr: 0x2954, symBinAddr: 0x10002759C, symSize: 0x28 }
  - { offsetInCU: 0x10CAE, offset: 0x64065, size: 0x8, addend: 0x0, symName: __ZNSt3__116allocator_traitsINS_9allocatorINS_11__tree_nodeINS_12__value_typeINS_12basic_stringIwNS_11char_traitsIwEENS1_IwEEEEN4Zoso3ObjEEEPvEEEEE10deallocateB8ue170006ERSE_PSD_m, symObjAddr: 0x297C, symBinAddr: 0x1000275C4, symSize: 0x34 }
  - { offsetInCU: 0x10CEF, offset: 0x640A6, size: 0x8, addend: 0x0, symName: __ZNSt3__14pairIKNS_12basic_stringIwNS_11char_traitsIwEENS_9allocatorIwEEEEN4Zoso3ObjEED1Ev, symObjAddr: 0x29B0, symBinAddr: 0x1000275F8, symSize: 0x2C }
  - { offsetInCU: 0x10D19, offset: 0x640D0, size: 0x8, addend: 0x0, symName: __ZNSt3__14pairIKNS_12basic_stringIwNS_11char_traitsIwEENS_9allocatorIwEEEEN4Zoso3ObjEED2Ev, symObjAddr: 0x29DC, symBinAddr: 0x100027624, symSize: 0x2C }
  - { offsetInCU: 0x10D43, offset: 0x640FA, size: 0x8, addend: 0x0, symName: __ZNSt3__19allocatorINS_11__tree_nodeINS_12__value_typeINS_12basic_stringIwNS_11char_traitsIwEENS0_IwEEEEN4Zoso3ObjEEEPvEEE10deallocateB8ue170006EPSC_m, symObjAddr: 0x2A08, symBinAddr: 0x100027650, symSize: 0x44 }
  - { offsetInCU: 0x10D83, offset: 0x6413A, size: 0x8, addend: 0x0, symName: __ZNSt3__115__tree_iteratorINS_12__value_typeINS_12basic_stringIwNS_11char_traitsIwEENS_9allocatorIwEEEEN4Zoso3ObjEEEPNS_11__tree_nodeISA_PvEElEC2B8ue170006ESE_, symObjAddr: 0x2AC8, symBinAddr: 0x100027694, symSize: 0x20 }
  - { offsetInCU: 0x10DBA, offset: 0x64171, size: 0x8, addend: 0x0, symName: __ZNSt3__14pairINS_15__tree_iteratorINS_12__value_typeINS_12basic_stringIwNS_11char_traitsIwEENS_9allocatorIwEEEEN4Zoso3ObjEEEPNS_11__tree_nodeISB_PvEElEEbEC2B8ue170006ISG_RbLSD_0EEEOT_OT0_, symObjAddr: 0x2AE8, symBinAddr: 0x1000276B4, symSize: 0x38 }
  - { offsetInCU: 0x10E16, offset: 0x641CD, size: 0x8, addend: 0x0, symName: __ZNSt3__15tupleIJONS_12basic_stringIwNS_11char_traitsIwEENS_9allocatorIwEEEEEEC1B8ue170006IJS6_ELi0EEEDpOT_, symObjAddr: 0x2B20, symBinAddr: 0x1000276EC, symSize: 0x34 }
  - { offsetInCU: 0x10E5E, offset: 0x64215, size: 0x8, addend: 0x0, symName: __ZNSt3__15tupleIJONS_12basic_stringIwNS_11char_traitsIwEENS_9allocatorIwEEEEEEC2B8ue170006IJS6_ELi0EEEDpOT_, symObjAddr: 0x2B54, symBinAddr: 0x100027720, symSize: 0x34 }
  - { offsetInCU: 0x10EA6, offset: 0x6425D, size: 0x8, addend: 0x0, symName: __ZNSt3__112__tuple_implINS_15__tuple_indicesIJLm0EEEEJONS_12basic_stringIwNS_11char_traitsIwEENS_9allocatorIwEEEEEEC1B8ue170006IJLm0EEJS9_EJEJEJS8_EEENS1_IJXspT_EEEENS_13__tuple_typesIJDpT0_EEENS1_IJXspT1_EEEENSD_IJDpT2_EEEDpOT3_, symObjAddr: 0x2B88, symBinAddr: 0x100027754, symSize: 0x34 }
  - { offsetInCU: 0x10F35, offset: 0x642EC, size: 0x8, addend: 0x0, symName: __ZNSt3__112__tuple_implINS_15__tuple_indicesIJLm0EEEEJONS_12basic_stringIwNS_11char_traitsIwEENS_9allocatorIwEEEEEEC2B8ue170006IJLm0EEJS9_EJEJEJS8_EEENS1_IJXspT_EEEENS_13__tuple_typesIJDpT0_EEENS1_IJXspT1_EEEENSD_IJDpT2_EEEDpOT3_, symObjAddr: 0x2BBC, symBinAddr: 0x100027788, symSize: 0x34 }
  - { offsetInCU: 0x10FC4, offset: 0x6437B, size: 0x8, addend: 0x0, symName: __ZNSt3__112__tuple_leafILm0EONS_12basic_stringIwNS_11char_traitsIwEENS_9allocatorIwEEEELb0EEC2B8ue170006IS6_vEEOT_, symObjAddr: 0x2BF0, symBinAddr: 0x1000277BC, symSize: 0x20 }
  - { offsetInCU: 0x11005, offset: 0x643BC, size: 0x8, addend: 0x0, symName: __ZNSt3__114pointer_traitsIPNS_12__value_typeINS_12basic_stringIwNS_11char_traitsIwEENS_9allocatorIwEEEEN4Zoso3ObjEEEE10pointer_toB8ue170006ERSA_, symObjAddr: 0x2C10, symBinAddr: 0x1000277DC, symSize: 0x14 }
  - { offsetInCU: 0x11027, offset: 0x643DE, size: 0x8, addend: 0x0, symName: __ZNKSt3__115__tree_iteratorINS_12__value_typeINS_12basic_stringIwNS_11char_traitsIwEENS_9allocatorIwEEEEN4Zoso3ObjEEEPNS_11__tree_nodeISA_PvEElE8__get_npB8ue170006Ev, symObjAddr: 0x2C24, symBinAddr: 0x1000277F0, symSize: 0x18 }
  - { offsetInCU: 0xC414, offset: 0x708C4, size: 0x8, addend: 0x0, symName: _main, symObjAddr: 0x0, symBinAddr: 0x100027808, symSize: 0x348 }
  - { offsetInCU: 0xC47D, offset: 0x7092D, size: 0x8, addend: 0x0, symName: __ZNSt3__112basic_stringIcNS_11char_traitsIcEENS_9allocatorIcEEEC1B8ue170006ILi0EEEPKc, symObjAddr: 0x414, symBinAddr: 0x100027B50, symSize: 0x34 }
  - { offsetInCU: 0xC4BA, offset: 0x7096A, size: 0x8, addend: 0x0, symName: __ZNSt3__112basic_stringIcNS_11char_traitsIcEENS_9allocatorIcEEEC2B8ue170006ILi0EEEPKc, symObjAddr: 0x448, symBinAddr: 0x100027B84, symSize: 0x58 }
...
